ARM GAS  C:\Users\Ika\AppData\Local\Temp\ccPNwcbO.s 			page 1


   1              		.cpu cortex-m3
   2              		.eabi_attribute 20, 1
   3              		.eabi_attribute 21, 1
   4              		.eabi_attribute 23, 3
   5              		.eabi_attribute 24, 1
   6              		.eabi_attribute 25, 1
   7              		.eabi_attribute 26, 1
   8              		.eabi_attribute 30, 1
   9              		.eabi_attribute 34, 1
  10              		.eabi_attribute 18, 4
  11              		.file	"casovnik.c"
  12              		.text
  13              	.Ltext0:
  14              		.cfi_sections	.debug_frame
  15              		.section	.text.casovnik,"ax",%progbits
  16              		.align	1
  17              		.global	casovnik
  18              		.arch armv7-m
  19              		.syntax unified
  20              		.thumb
  21              		.thumb_func
  22              		.fpu softvfp
  24              	casovnik:
  25              	.LFB65:
  26              		.file 1 "../Core/Src/casovnik.c"
   1:../Core/Src/casovnik.c **** 
  27              		.loc 1 54 16 view -0
  28              		.cfi_startproc
  29              		@ args = 0, pretend = 0, frame = 0
  30              		@ frame_needed = 0, uses_anonymous_args = 0
  31              		@ link register save eliminated.
  32              		.loc 1 55 2 view .LVU1
  33              		.loc 1 55 24 is_stmt 0 view .LVU2
  34 0000 024B     		ldr	r3, .L2
  35 0002 5A78     		ldrb	r2, [r3, #1]	@ zero_extendqisi2
  36              		.loc 1 55 13 view .LVU3
  37 0004 024B     		ldr	r3, .L2+4
  38 0006 DA60     		str	r2, [r3, #12]
  39              		.loc 1 56 1 view .LVU4
  40 0008 7047     		bx	lr
  41              	.L3:
  42 000a 00BF     		.align	2
  43              	.L2:
  44 000c 00000000 		.word	.LANCHOR0
  45 0010 00100140 		.word	1073811456
  46              		.cfi_endproc
  47              	.LFE65:
  49              		.section	.text.HAL_GPIO_EXTI_Callback,"ax",%progbits
  50              		.align	1
  51              		.global	HAL_GPIO_EXTI_Callback
  52              		.syntax unified
  53              		.thumb
  54              		.thumb_func
  55              		.fpu softvfp
  57              	HAL_GPIO_EXTI_Callback:
  58              	.LVL0:
  59              	.LFB66:
ARM GAS  C:\Users\Ika\AppData\Local\Temp\ccPNwcbO.s 			page 2


  60              		.loc 1 58 47 is_stmt 1 view -0
  61              		.cfi_startproc
  62              		@ args = 0, pretend = 0, frame = 0
  63              		@ frame_needed = 0, uses_anonymous_args = 0
  64              		@ link register save eliminated.
  65              		.loc 1 60 2 view .LVU6
  66 0000 4028     		cmp	r0, #64
  67 0002 02D0     		beq	.L5
  68 0004 8028     		cmp	r0, #128
  69 0006 04D0     		beq	.L6
  70 0008 7047     		bx	lr
  71              	.L5:
  72              		.loc 1 62 4 view .LVU7
  73              		.loc 1 62 9 is_stmt 0 view .LVU8
  74 000a 044B     		ldr	r3, .L8
  75 000c 0122     		movs	r2, #1
  76 000e 1A70     		strb	r2, [r3]
  77              		.loc 1 63 4 is_stmt 1 view .LVU9
  78 0010 7047     		bx	lr
  79              	.L6:
  80              		.loc 1 65 4 view .LVU10
  81              		.loc 1 65 9 is_stmt 0 view .LVU11
  82 0012 024B     		ldr	r3, .L8
  83 0014 0022     		movs	r2, #0
  84 0016 1A70     		strb	r2, [r3]
  85              		.loc 1 66 4 is_stmt 1 view .LVU12
  86              		.loc 1 70 1 is_stmt 0 view .LVU13
  87 0018 7047     		bx	lr
  88              	.L9:
  89 001a 00BF     		.align	2
  90              	.L8:
  91 001c 00000000 		.word	.LANCHOR1
  92              		.cfi_endproc
  93              	.LFE66:
  95              		.section	.text.promeniCifru,"ax",%progbits
  96              		.align	1
  97              		.global	promeniCifru
  98              		.syntax unified
  99              		.thumb
 100              		.thumb_func
 101              		.fpu softvfp
 103              	promeniCifru:
 104              	.LFB67:
 105              		.loc 1 72 20 is_stmt 1 view -0
 106              		.cfi_startproc
 107              		@ args = 0, pretend = 0, frame = 0
 108              		@ frame_needed = 0, uses_anonymous_args = 0
 109              		@ link register save eliminated.
 110              		.loc 1 73 2 view .LVU15
 111              		.loc 1 73 10 is_stmt 0 view .LVU16
 112 0000 0D4B     		ldr	r3, .L14
 113 0002 1B78     		ldrb	r3, [r3]	@ zero_extendqisi2
 114              		.loc 1 73 4 view .LVU17
 115 0004 8BB9     		cbnz	r3, .L11
 116              		.loc 1 74 3 is_stmt 1 view .LVU18
 117              		.loc 1 74 30 is_stmt 0 view .LVU19
 118 0006 0D49     		ldr	r1, .L14+4
ARM GAS  C:\Users\Ika\AppData\Local\Temp\ccPNwcbO.s 			page 3


 119 0008 0A68     		ldr	r2, [r1]
 120 000a 0132     		adds	r2, r2, #1
 121              		.loc 1 74 35 view .LVU20
 122 000c A3F13333 		sub	r3, r3, #858993459
 123 0010 A3FB0203 		umull	r0, r3, r3, r2
 124 0014 DB08     		lsrs	r3, r3, #3
 125 0016 03EB8303 		add	r3, r3, r3, lsl #2
 126 001a 5800     		lsls	r0, r3, #1
 127 001c 131A     		subs	r3, r2, r0
 128              		.loc 1 74 15 view .LVU21
 129 001e 0B60     		str	r3, [r1]
 130              		.loc 1 75 3 is_stmt 1 view .LVU22
 131              		.loc 1 75 25 is_stmt 0 view .LVU23
 132 0020 074A     		ldr	r2, .L14+8
 133 0022 D25C     		ldrb	r2, [r2, r3]	@ zero_extendqisi2
 134              		.loc 1 75 14 view .LVU24
 135 0024 074B     		ldr	r3, .L14+12
 136 0026 DA60     		str	r2, [r3, #12]
 137 0028 7047     		bx	lr
 138              	.L11:
 139              		.loc 1 77 7 is_stmt 1 view .LVU25
 140              		.loc 1 77 9 is_stmt 0 view .LVU26
 141 002a 012B     		cmp	r3, #1
 142 002c 00D0     		beq	.L13
 143              	.L10:
 144              		.loc 1 81 1 view .LVU27
 145 002e 7047     		bx	lr
 146              	.L13:
 147              		.loc 1 78 3 is_stmt 1 view .LVU28
 148              		.loc 1 78 14 is_stmt 0 view .LVU29
 149 0030 044B     		ldr	r3, .L14+12
 150 0032 B722     		movs	r2, #183
 151 0034 DA60     		str	r2, [r3, #12]
 152              		.loc 1 81 1 view .LVU30
 153 0036 FAE7     		b	.L10
 154              	.L15:
 155              		.align	2
 156              	.L14:
 157 0038 00000000 		.word	.LANCHOR1
 158 003c 00000000 		.word	.LANCHOR2
 159 0040 00000000 		.word	.LANCHOR0
 160 0044 00100140 		.word	1073811456
 161              		.cfi_endproc
 162              	.LFE67:
 164              		.section	.text.HAL_TIM_PeriodElapsedCallback,"ax",%progbits
 165              		.align	1
 166              		.global	HAL_TIM_PeriodElapsedCallback
 167              		.syntax unified
 168              		.thumb
 169              		.thumb_func
 170              		.fpu softvfp
 172              	HAL_TIM_PeriodElapsedCallback:
 173              	.LVL1:
 174              	.LFB68:
 175              		.loc 1 90 60 is_stmt 1 view -0
 176              		.cfi_startproc
 177              		@ args = 0, pretend = 0, frame = 0
ARM GAS  C:\Users\Ika\AppData\Local\Temp\ccPNwcbO.s 			page 4


 178              		@ frame_needed = 0, uses_anonymous_args = 0
 179              		@ link register save eliminated.
 180              		.loc 1 94 2 view .LVU32
 181              		.loc 1 94 9 is_stmt 0 view .LVU33
 182 0000 0268     		ldr	r2, [r0]
 183              		.loc 1 94 28 view .LVU34
 184 0002 2A4B     		ldr	r3, .L27
 185 0004 1B68     		ldr	r3, [r3]
 186              		.loc 1 94 4 view .LVU35
 187 0006 9A42     		cmp	r2, r3
 188 0008 00D0     		beq	.L24
 189 000a 7047     		bx	lr
 190              	.L24:
 191              		.loc 1 90 60 view .LVU36
 192 000c 10B4     		push	{r4}
 193              	.LCFI0:
 194              		.cfi_def_cfa_offset 4
 195              		.cfi_offset 4, -4
 196              		.loc 1 96 3 is_stmt 1 view .LVU37
 197              		.loc 1 96 6 is_stmt 0 view .LVU38
 198 000e 284A     		ldr	r2, .L27+4
 199 0010 1368     		ldr	r3, [r2]
 200 0012 0133     		adds	r3, r3, #1
 201              		.loc 1 96 5 view .LVU39
 202 0014 1360     		str	r3, [r2]
 203 0016 642B     		cmp	r3, #100
 204 0018 19D0     		beq	.L25
 205              	.LVL2:
 206              	.L18:
 207              		.loc 1 115 3 is_stmt 1 view .LVU40
 208              		.loc 1 115 30 is_stmt 0 view .LVU41
 209 001a 264A     		ldr	r2, .L27+8
 210 001c 1368     		ldr	r3, [r2]
 211 001e 0133     		adds	r3, r3, #1
 212              		.loc 1 115 35 view .LVU42
 213 0020 03F00303 		and	r3, r3, #3
 214              		.loc 1 115 15 view .LVU43
 215 0024 1360     		str	r3, [r2]
 216              		.loc 1 118 3 is_stmt 1 view .LVU44
 217              		.loc 1 118 14 is_stmt 0 view .LVU45
 218 0026 244A     		ldr	r2, .L27+12
 219 0028 2449     		ldr	r1, .L27+16
 220 002a D160     		str	r1, [r2, #12]
 221              		.loc 1 121 3 is_stmt 1 view .LVU46
 222              		.loc 1 121 14 is_stmt 0 view .LVU47
 223 002c D168     		ldr	r1, [r2, #12]
 224              		.loc 1 121 32 view .LVU48
 225 002e 2448     		ldr	r0, .L27+20
 226 0030 50F82300 		ldr	r0, [r0, r3, lsl #2]
 227              		.loc 1 121 26 view .LVU49
 228 0034 234C     		ldr	r4, .L27+24
 229 0036 205C     		ldrb	r0, [r4, r0]	@ zero_extendqisi2
 230              		.loc 1 121 14 view .LVU50
 231 0038 0143     		orrs	r1, r1, r0
 232 003a D160     		str	r1, [r2, #12]
 233              		.loc 1 124 3 is_stmt 1 view .LVU51
 234              		.loc 1 124 14 is_stmt 0 view .LVU52
ARM GAS  C:\Users\Ika\AppData\Local\Temp\ccPNwcbO.s 			page 5


 235 003c D168     		ldr	r1, [r2, #12]
 236              		.loc 1 124 27 view .LVU53
 237 003e 0833     		adds	r3, r3, #8
 238              		.loc 1 124 21 view .LVU54
 239 0040 0120     		movs	r0, #1
 240 0042 00FA03F3 		lsl	r3, r0, r3
 241              		.loc 1 124 14 view .LVU55
 242 0046 0B43     		orrs	r3, r3, r1
 243 0048 D360     		str	r3, [r2, #12]
 244              		.loc 1 128 1 view .LVU56
 245 004a 10BC     		pop	{r4}
 246              	.LCFI1:
 247              		.cfi_remember_state
 248              		.cfi_restore 4
 249              		.cfi_def_cfa_offset 0
 250 004c 7047     		bx	lr
 251              	.LVL3:
 252              	.L25:
 253              	.LCFI2:
 254              		.cfi_restore_state
 255              		.loc 1 98 4 is_stmt 1 view .LVU57
 256              		.loc 1 98 12 is_stmt 0 view .LVU58
 257 004e 1346     		mov	r3, r2
 258 0050 0022     		movs	r2, #0
 259 0052 1A60     		str	r2, [r3]
 260              		.loc 1 100 4 is_stmt 1 view .LVU59
 261              		.loc 1 100 7 is_stmt 0 view .LVU60
 262 0054 1C4A     		ldr	r2, .L27+28
 263 0056 1368     		ldr	r3, [r2]
 264 0058 0133     		adds	r3, r3, #1
 265              		.loc 1 100 6 view .LVU61
 266 005a 1360     		str	r3, [r2]
 267 005c 3C2B     		cmp	r3, #60
 268 005e 18D0     		beq	.L26
 269              	.L19:
 270              		.loc 1 108 4 is_stmt 1 view .LVU62
 271              		.loc 1 108 22 is_stmt 0 view .LVU63
 272 0060 1A4B     		ldr	r3, .L27+32
 273 0062 1868     		ldr	r0, [r3]
 274              	.LVL4:
 275              		.loc 1 108 22 view .LVU64
 276 0064 1A4B     		ldr	r3, .L27+36
 277 0066 A3FB0012 		umull	r1, r2, r3, r0
 278 006a D208     		lsrs	r2, r2, #3
 279              		.loc 1 108 13 view .LVU65
 280 006c 1449     		ldr	r1, .L27+20
 281 006e 0A60     		str	r2, [r1]
 282              		.loc 1 109 4 is_stmt 1 view .LVU66
 283              		.loc 1 109 22 is_stmt 0 view .LVU67
 284 0070 02EB8202 		add	r2, r2, r2, lsl #2
 285 0074 A0EB4202 		sub	r2, r0, r2, lsl #1
 286              		.loc 1 109 13 view .LVU68
 287 0078 4A60     		str	r2, [r1, #4]
 288              		.loc 1 110 4 is_stmt 1 view .LVU69
 289              		.loc 1 110 23 is_stmt 0 view .LVU70
 290 007a 134A     		ldr	r2, .L27+28
 291 007c 1268     		ldr	r2, [r2]
ARM GAS  C:\Users\Ika\AppData\Local\Temp\ccPNwcbO.s 			page 6


 292 007e A3FB0203 		umull	r0, r3, r3, r2
 293 0082 DB08     		lsrs	r3, r3, #3
 294              		.loc 1 110 13 view .LVU71
 295 0084 8B60     		str	r3, [r1, #8]
 296              		.loc 1 111 4 is_stmt 1 view .LVU72
 297              		.loc 1 111 23 is_stmt 0 view .LVU73
 298 0086 03EB8303 		add	r3, r3, r3, lsl #2
 299 008a A2EB4303 		sub	r3, r2, r3, lsl #1
 300              		.loc 1 111 13 view .LVU74
 301 008e CB60     		str	r3, [r1, #12]
 302 0090 C3E7     		b	.L18
 303              	.LVL5:
 304              	.L26:
 305              		.loc 1 101 5 is_stmt 1 view .LVU75
 306              		.loc 1 101 13 is_stmt 0 view .LVU76
 307 0092 1346     		mov	r3, r2
 308 0094 0022     		movs	r2, #0
 309 0096 1A60     		str	r2, [r3]
 310              		.loc 1 103 5 is_stmt 1 view .LVU77
 311              		.loc 1 103 8 is_stmt 0 view .LVU78
 312 0098 0C4A     		ldr	r2, .L27+32
 313 009a 1368     		ldr	r3, [r2]
 314 009c 0133     		adds	r3, r3, #1
 315              		.loc 1 103 7 view .LVU79
 316 009e 1360     		str	r3, [r2]
 317 00a0 3C2B     		cmp	r3, #60
 318 00a2 DDD1     		bne	.L19
 319              		.loc 1 104 6 is_stmt 1 view .LVU80
 320              		.loc 1 104 13 is_stmt 0 view .LVU81
 321 00a4 1346     		mov	r3, r2
 322 00a6 0022     		movs	r2, #0
 323 00a8 1A60     		str	r2, [r3]
 324 00aa D9E7     		b	.L19
 325              	.L28:
 326              		.align	2
 327              	.L27:
 328 00ac 00000000 		.word	htim1
 329 00b0 00000000 		.word	.LANCHOR3
 330 00b4 00000000 		.word	.LANCHOR2
 331 00b8 00100140 		.word	1073811456
 332 00bc 00F0FFFF 		.word	-4096
 333 00c0 00000000 		.word	.LANCHOR6
 334 00c4 00000000 		.word	.LANCHOR0
 335 00c8 00000000 		.word	.LANCHOR4
 336 00cc 00000000 		.word	.LANCHOR5
 337 00d0 CDCCCCCC 		.word	-858993459
 338              		.cfi_endproc
 339              	.LFE68:
 341              		.global	minuti
 342              		.global	sekunde
 343              		.global	counter
 344              		.global	cifre
 345              		.global	fleg
 346              		.global	tekucaCifra
 347              		.global	seven_seg
 348              		.section	.bss.cifre,"aw",%nobits
 349              		.align	2
ARM GAS  C:\Users\Ika\AppData\Local\Temp\ccPNwcbO.s 			page 7


 350              		.set	.LANCHOR6,. + 0
 353              	cifre:
 354 0000 00000000 		.space	16
 354      00000000 
 354      00000000 
 354      00000000 
 355              		.section	.bss.counter,"aw",%nobits
 356              		.align	2
 357              		.set	.LANCHOR3,. + 0
 360              	counter:
 361 0000 00000000 		.space	4
 362              		.section	.bss.fleg,"aw",%nobits
 363              		.set	.LANCHOR1,. + 0
 366              	fleg:
 367 0000 00       		.space	1
 368              		.section	.bss.minuti,"aw",%nobits
 369              		.align	2
 370              		.set	.LANCHOR5,. + 0
 373              	minuti:
 374 0000 00000000 		.space	4
 375              		.section	.bss.sekunde,"aw",%nobits
 376              		.align	2
 377              		.set	.LANCHOR4,. + 0
 380              	sekunde:
 381 0000 00000000 		.space	4
 382              		.section	.bss.tekucaCifra,"aw",%nobits
 383              		.align	2
 384              		.set	.LANCHOR2,. + 0
 387              	tekucaCifra:
 388 0000 00000000 		.space	4
 389              		.section	.data.seven_seg,"aw"
 390              		.align	2
 391              		.set	.LANCHOR0,. + 0
 394              	seven_seg:
 395 0000 81CF9286 		.ascii	"\201\317\222\206\314\244\240\217\200\204"
 395      CCA4A08F 
 395      8084
 396              		.text
 397              	.Letext0:
 398              		.file 2 "../c:\\users\\ika\\desktop\\gnu mcu\\arm-none-eabi-gcc-9.3.1-1.1\\arm-none-eabi\\include\
 399              		.file 3 "../c:\\users\\ika\\desktop\\gnu mcu\\arm-none-eabi-gcc-9.3.1-1.1\\arm-none-eabi\\include\
 400              		.file 4 "../Drivers/CMSIS/Include/core_cm3.h"
 401              		.file 5 "../Drivers/CMSIS/Device/ST/STM32F1xx/Include/system_stm32f1xx.h"
 402              		.file 6 "../Drivers/CMSIS/Device/ST/STM32F1xx/Include/stm32f103x6.h"
 403              		.file 7 "../Drivers/STM32F1xx_HAL_Driver/Inc/stm32f1xx_hal_def.h"
 404              		.file 8 "../Drivers/STM32F1xx_HAL_Driver/Inc/stm32f1xx_hal_dma.h"
 405              		.file 9 "../Drivers/STM32F1xx_HAL_Driver/Inc/stm32f1xx_hal_tim.h"
 406              		.file 10 "../Drivers/STM32F1xx_HAL_Driver/Inc/stm32f1xx_hal.h"
 407              		.file 11 "../Core/Inc/tim.h"
ARM GAS  C:\Users\Ika\AppData\Local\Temp\ccPNwcbO.s 			page 8


DEFINED SYMBOLS
                            *ABS*:0000000000000000 casovnik.c
C:\Users\Ika\AppData\Local\Temp\ccPNwcbO.s:16     .text.casovnik:0000000000000000 $t
C:\Users\Ika\AppData\Local\Temp\ccPNwcbO.s:24     .text.casovnik:0000000000000000 casovnik
C:\Users\Ika\AppData\Local\Temp\ccPNwcbO.s:44     .text.casovnik:000000000000000c $d
C:\Users\Ika\AppData\Local\Temp\ccPNwcbO.s:50     .text.HAL_GPIO_EXTI_Callback:0000000000000000 $t
C:\Users\Ika\AppData\Local\Temp\ccPNwcbO.s:57     .text.HAL_GPIO_EXTI_Callback:0000000000000000 HAL_GPIO_EXTI_Callback
C:\Users\Ika\AppData\Local\Temp\ccPNwcbO.s:91     .text.HAL_GPIO_EXTI_Callback:000000000000001c $d
C:\Users\Ika\AppData\Local\Temp\ccPNwcbO.s:96     .text.promeniCifru:0000000000000000 $t
C:\Users\Ika\AppData\Local\Temp\ccPNwcbO.s:103    .text.promeniCifru:0000000000000000 promeniCifru
C:\Users\Ika\AppData\Local\Temp\ccPNwcbO.s:157    .text.promeniCifru:0000000000000038 $d
C:\Users\Ika\AppData\Local\Temp\ccPNwcbO.s:165    .text.HAL_TIM_PeriodElapsedCallback:0000000000000000 $t
C:\Users\Ika\AppData\Local\Temp\ccPNwcbO.s:172    .text.HAL_TIM_PeriodElapsedCallback:0000000000000000 HAL_TIM_PeriodElapsedCallback
C:\Users\Ika\AppData\Local\Temp\ccPNwcbO.s:328    .text.HAL_TIM_PeriodElapsedCallback:00000000000000ac $d
C:\Users\Ika\AppData\Local\Temp\ccPNwcbO.s:373    .bss.minuti:0000000000000000 minuti
C:\Users\Ika\AppData\Local\Temp\ccPNwcbO.s:380    .bss.sekunde:0000000000000000 sekunde
C:\Users\Ika\AppData\Local\Temp\ccPNwcbO.s:360    .bss.counter:0000000000000000 counter
C:\Users\Ika\AppData\Local\Temp\ccPNwcbO.s:353    .bss.cifre:0000000000000000 cifre
C:\Users\Ika\AppData\Local\Temp\ccPNwcbO.s:366    .bss.fleg:0000000000000000 fleg
C:\Users\Ika\AppData\Local\Temp\ccPNwcbO.s:387    .bss.tekucaCifra:0000000000000000 tekucaCifra
C:\Users\Ika\AppData\Local\Temp\ccPNwcbO.s:394    .data.seven_seg:0000000000000000 seven_seg
C:\Users\Ika\AppData\Local\Temp\ccPNwcbO.s:349    .bss.cifre:0000000000000000 $d
C:\Users\Ika\AppData\Local\Temp\ccPNwcbO.s:356    .bss.counter:0000000000000000 $d
C:\Users\Ika\AppData\Local\Temp\ccPNwcbO.s:367    .bss.fleg:0000000000000000 $d
C:\Users\Ika\AppData\Local\Temp\ccPNwcbO.s:369    .bss.minuti:0000000000000000 $d
C:\Users\Ika\AppData\Local\Temp\ccPNwcbO.s:376    .bss.sekunde:0000000000000000 $d
C:\Users\Ika\AppData\Local\Temp\ccPNwcbO.s:383    .bss.tekucaCifra:0000000000000000 $d
C:\Users\Ika\AppData\Local\Temp\ccPNwcbO.s:390    .data.seven_seg:0000000000000000 $d

UNDEFINED SYMBOLS
htim1
