ARM GAS  C:\Users\Ika\AppData\Local\Temp\ccO7S27f.s 			page 1


   1              		.cpu cortex-m3
   2              		.eabi_attribute 20, 1
   3              		.eabi_attribute 21, 1
   4              		.eabi_attribute 23, 3
   5              		.eabi_attribute 24, 1
   6              		.eabi_attribute 25, 1
   7              		.eabi_attribute 26, 1
   8              		.eabi_attribute 30, 1
   9              		.eabi_attribute 34, 1
  10              		.eabi_attribute 18, 4
  11              		.file	"stm32f1xx_it.c"
  12              		.text
  13              	.Ltext0:
  14              		.cfi_sections	.debug_frame
  15              		.section	.text.NMI_Handler,"ax",%progbits
  16              		.align	1
  17              		.global	NMI_Handler
  18              		.arch armv7-m
  19              		.syntax unified
  20              		.thumb
  21              		.thumb_func
  22              		.fpu softvfp
  24              	NMI_Handler:
  25              	.LFB65:
  26              		.file 1 "../Core/Src/stm32f1xx_it.c"
   1:../Core/Src/stm32f1xx_it.c **** 
  27              		.loc 1 71 1 view -0
  28              		.cfi_startproc
  29              		@ args = 0, pretend = 0, frame = 0
  30              		@ frame_needed = 0, uses_anonymous_args = 0
  31              		@ link register save eliminated.
  32              		.loc 1 78 1 view .LVU1
  33 0000 7047     		bx	lr
  34              		.cfi_endproc
  35              	.LFE65:
  37              		.section	.text.HardFault_Handler,"ax",%progbits
  38              		.align	1
  39              		.global	HardFault_Handler
  40              		.syntax unified
  41              		.thumb
  42              		.thumb_func
  43              		.fpu softvfp
  45              	HardFault_Handler:
  46              	.LFB66:
  47              		.loc 1 84 1 view -0
  48              		.cfi_startproc
  49              		@ Volatile: function does not return.
  50              		@ args = 0, pretend = 0, frame = 0
  51              		@ frame_needed = 0, uses_anonymous_args = 0
  52              		@ link register save eliminated.
  53              	.L3:
  54              		.loc 1 88 3 discriminator 1 view .LVU3
  55              		.loc 1 92 3 discriminator 1 view .LVU4
  56              		.loc 1 88 9 discriminator 1 view .LVU5
  57 0000 FEE7     		b	.L3
  58              		.cfi_endproc
  59              	.LFE66:
ARM GAS  C:\Users\Ika\AppData\Local\Temp\ccO7S27f.s 			page 2


  61              		.section	.text.MemManage_Handler,"ax",%progbits
  62              		.align	1
  63              		.global	MemManage_Handler
  64              		.syntax unified
  65              		.thumb
  66              		.thumb_func
  67              		.fpu softvfp
  69              	MemManage_Handler:
  70              	.LFB67:
  71              		.loc 1 99 1 view -0
  72              		.cfi_startproc
  73              		@ Volatile: function does not return.
  74              		@ args = 0, pretend = 0, frame = 0
  75              		@ frame_needed = 0, uses_anonymous_args = 0
  76              		@ link register save eliminated.
  77              	.L5:
  78              		.loc 1 103 3 discriminator 1 view .LVU7
  79              		.loc 1 107 3 discriminator 1 view .LVU8
  80              		.loc 1 103 9 discriminator 1 view .LVU9
  81 0000 FEE7     		b	.L5
  82              		.cfi_endproc
  83              	.LFE67:
  85              		.section	.text.BusFault_Handler,"ax",%progbits
  86              		.align	1
  87              		.global	BusFault_Handler
  88              		.syntax unified
  89              		.thumb
  90              		.thumb_func
  91              		.fpu softvfp
  93              	BusFault_Handler:
  94              	.LFB68:
  95              		.loc 1 114 1 view -0
  96              		.cfi_startproc
  97              		@ Volatile: function does not return.
  98              		@ args = 0, pretend = 0, frame = 0
  99              		@ frame_needed = 0, uses_anonymous_args = 0
 100              		@ link register save eliminated.
 101              	.L7:
 102              		.loc 1 118 3 discriminator 1 view .LVU11
 103              		.loc 1 122 3 discriminator 1 view .LVU12
 104              		.loc 1 118 9 discriminator 1 view .LVU13
 105 0000 FEE7     		b	.L7
 106              		.cfi_endproc
 107              	.LFE68:
 109              		.section	.text.UsageFault_Handler,"ax",%progbits
 110              		.align	1
 111              		.global	UsageFault_Handler
 112              		.syntax unified
 113              		.thumb
 114              		.thumb_func
 115              		.fpu softvfp
 117              	UsageFault_Handler:
 118              	.LFB69:
 119              		.loc 1 129 1 view -0
 120              		.cfi_startproc
 121              		@ Volatile: function does not return.
 122              		@ args = 0, pretend = 0, frame = 0
ARM GAS  C:\Users\Ika\AppData\Local\Temp\ccO7S27f.s 			page 3


 123              		@ frame_needed = 0, uses_anonymous_args = 0
 124              		@ link register save eliminated.
 125              	.L9:
 126              		.loc 1 133 3 discriminator 1 view .LVU15
 127              		.loc 1 137 3 discriminator 1 view .LVU16
 128              		.loc 1 133 9 discriminator 1 view .LVU17
 129 0000 FEE7     		b	.L9
 130              		.cfi_endproc
 131              	.LFE69:
 133              		.section	.text.SVC_Handler,"ax",%progbits
 134              		.align	1
 135              		.global	SVC_Handler
 136              		.syntax unified
 137              		.thumb
 138              		.thumb_func
 139              		.fpu softvfp
 141              	SVC_Handler:
 142              	.LFB70:
 143              		.loc 1 144 1 view -0
 144              		.cfi_startproc
 145              		@ args = 0, pretend = 0, frame = 0
 146              		@ frame_needed = 0, uses_anonymous_args = 0
 147              		@ link register save eliminated.
 148              		.loc 1 151 1 view .LVU19
 149 0000 7047     		bx	lr
 150              		.cfi_endproc
 151              	.LFE70:
 153              		.section	.text.DebugMon_Handler,"ax",%progbits
 154              		.align	1
 155              		.global	DebugMon_Handler
 156              		.syntax unified
 157              		.thumb
 158              		.thumb_func
 159              		.fpu softvfp
 161              	DebugMon_Handler:
 162              	.LFB71:
 163              		.loc 1 157 1 view -0
 164              		.cfi_startproc
 165              		@ args = 0, pretend = 0, frame = 0
 166              		@ frame_needed = 0, uses_anonymous_args = 0
 167              		@ link register save eliminated.
 168              		.loc 1 164 1 view .LVU21
 169 0000 7047     		bx	lr
 170              		.cfi_endproc
 171              	.LFE71:
 173              		.section	.text.PendSV_Handler,"ax",%progbits
 174              		.align	1
 175              		.global	PendSV_Handler
 176              		.syntax unified
 177              		.thumb
 178              		.thumb_func
 179              		.fpu softvfp
 181              	PendSV_Handler:
 182              	.LFB72:
 183              		.loc 1 170 1 view -0
 184              		.cfi_startproc
 185              		@ args = 0, pretend = 0, frame = 0
ARM GAS  C:\Users\Ika\AppData\Local\Temp\ccO7S27f.s 			page 4


 186              		@ frame_needed = 0, uses_anonymous_args = 0
 187              		@ link register save eliminated.
 188              		.loc 1 177 1 view .LVU23
 189 0000 7047     		bx	lr
 190              		.cfi_endproc
 191              	.LFE72:
 193              		.section	.text.SysTick_Handler,"ax",%progbits
 194              		.align	1
 195              		.global	SysTick_Handler
 196              		.syntax unified
 197              		.thumb
 198              		.thumb_func
 199              		.fpu softvfp
 201              	SysTick_Handler:
 202              	.LFB73:
 203              		.loc 1 183 1 view -0
 204              		.cfi_startproc
 205              		@ args = 0, pretend = 0, frame = 0
 206              		@ frame_needed = 0, uses_anonymous_args = 0
 207 0000 08B5     		push	{r3, lr}
 208              	.LCFI0:
 209              		.cfi_def_cfa_offset 8
 210              		.cfi_offset 3, -8
 211              		.cfi_offset 14, -4
 212              		.loc 1 187 3 view .LVU25
 213 0002 014B     		ldr	r3, .L15
 214 0004 9847     		blx	r3
 215              	.LVL0:
 216              		.loc 1 191 1 is_stmt 0 view .LVU26
 217 0006 08BD     		pop	{r3, pc}
 218              	.L16:
 219              		.align	2
 220              	.L15:
 221 0008 00000000 		.word	HAL_IncTick
 222              		.cfi_endproc
 223              	.LFE73:
 225              		.section	.text.EXTI9_5_IRQHandler,"ax",%progbits
 226              		.align	1
 227              		.global	EXTI9_5_IRQHandler
 228              		.syntax unified
 229              		.thumb
 230              		.thumb_func
 231              		.fpu softvfp
 233              	EXTI9_5_IRQHandler:
 234              	.LFB74:
 235              		.loc 1 204 1 is_stmt 1 view -0
 236              		.cfi_startproc
 237              		@ args = 0, pretend = 0, frame = 0
 238              		@ frame_needed = 0, uses_anonymous_args = 0
 239 0000 10B5     		push	{r4, lr}
 240              	.LCFI1:
 241              		.cfi_def_cfa_offset 8
 242              		.cfi_offset 4, -8
 243              		.cfi_offset 14, -4
 244              		.loc 1 208 3 view .LVU28
 245 0002 4020     		movs	r0, #64
 246 0004 024C     		ldr	r4, .L19
ARM GAS  C:\Users\Ika\AppData\Local\Temp\ccO7S27f.s 			page 5


 247 0006 A047     		blx	r4
 248              	.LVL1:
 249              		.loc 1 209 3 view .LVU29
 250 0008 8020     		movs	r0, #128
 251 000a A047     		blx	r4
 252              	.LVL2:
 253              		.loc 1 213 1 is_stmt 0 view .LVU30
 254 000c 10BD     		pop	{r4, pc}
 255              	.L20:
 256 000e 00BF     		.align	2
 257              	.L19:
 258 0010 00000000 		.word	HAL_GPIO_EXTI_IRQHandler
 259              		.cfi_endproc
 260              	.LFE74:
 262              		.section	.text.TIM1_UP_IRQHandler,"ax",%progbits
 263              		.align	1
 264              		.global	TIM1_UP_IRQHandler
 265              		.syntax unified
 266              		.thumb
 267              		.thumb_func
 268              		.fpu softvfp
 270              	TIM1_UP_IRQHandler:
 271              	.LFB75:
 272              		.loc 1 219 1 is_stmt 1 view -0
 273              		.cfi_startproc
 274              		@ args = 0, pretend = 0, frame = 0
 275              		@ frame_needed = 0, uses_anonymous_args = 0
 276 0000 08B5     		push	{r3, lr}
 277              	.LCFI2:
 278              		.cfi_def_cfa_offset 8
 279              		.cfi_offset 3, -8
 280              		.cfi_offset 14, -4
 281              		.loc 1 223 3 view .LVU32
 282 0002 0248     		ldr	r0, .L23
 283 0004 024B     		ldr	r3, .L23+4
 284 0006 9847     		blx	r3
 285              	.LVL3:
 286              		.loc 1 227 1 is_stmt 0 view .LVU33
 287 0008 08BD     		pop	{r3, pc}
 288              	.L24:
 289 000a 00BF     		.align	2
 290              	.L23:
 291 000c 00000000 		.word	htim1
 292 0010 00000000 		.word	HAL_TIM_IRQHandler
 293              		.cfi_endproc
 294              	.LFE75:
 296              		.section	.text.TIM1_CC_IRQHandler,"ax",%progbits
 297              		.align	1
 298              		.global	TIM1_CC_IRQHandler
 299              		.syntax unified
 300              		.thumb
 301              		.thumb_func
 302              		.fpu softvfp
 304              	TIM1_CC_IRQHandler:
 305              	.LFB76:
 306              		.loc 1 233 1 is_stmt 1 view -0
 307              		.cfi_startproc
ARM GAS  C:\Users\Ika\AppData\Local\Temp\ccO7S27f.s 			page 6


 308              		@ args = 0, pretend = 0, frame = 0
 309              		@ frame_needed = 0, uses_anonymous_args = 0
 310 0000 08B5     		push	{r3, lr}
 311              	.LCFI3:
 312              		.cfi_def_cfa_offset 8
 313              		.cfi_offset 3, -8
 314              		.cfi_offset 14, -4
 315              		.loc 1 237 3 view .LVU35
 316 0002 0248     		ldr	r0, .L27
 317 0004 024B     		ldr	r3, .L27+4
 318 0006 9847     		blx	r3
 319              	.LVL4:
 320              		.loc 1 241 1 is_stmt 0 view .LVU36
 321 0008 08BD     		pop	{r3, pc}
 322              	.L28:
 323 000a 00BF     		.align	2
 324              	.L27:
 325 000c 00000000 		.word	htim1
 326 0010 00000000 		.word	HAL_TIM_IRQHandler
 327              		.cfi_endproc
 328              	.LFE76:
 330              		.section	.text.EXTI15_10_IRQHandler,"ax",%progbits
 331              		.align	1
 332              		.global	EXTI15_10_IRQHandler
 333              		.syntax unified
 334              		.thumb
 335              		.thumb_func
 336              		.fpu softvfp
 338              	EXTI15_10_IRQHandler:
 339              	.LFB77:
 340              		.loc 1 247 1 is_stmt 1 view -0
 341              		.cfi_startproc
 342              		@ args = 0, pretend = 0, frame = 0
 343              		@ frame_needed = 0, uses_anonymous_args = 0
 344 0000 08B5     		push	{r3, lr}
 345              	.LCFI4:
 346              		.cfi_def_cfa_offset 8
 347              		.cfi_offset 3, -8
 348              		.cfi_offset 14, -4
 349              		.loc 1 251 3 view .LVU38
 350 0002 4FF48050 		mov	r0, #4096
 351 0006 014B     		ldr	r3, .L31
 352 0008 9847     		blx	r3
 353              	.LVL5:
 354              		.loc 1 255 1 is_stmt 0 view .LVU39
 355 000a 08BD     		pop	{r3, pc}
 356              	.L32:
 357              		.align	2
 358              	.L31:
 359 000c 00000000 		.word	HAL_GPIO_EXTI_IRQHandler
 360              		.cfi_endproc
 361              	.LFE77:
 363              		.text
 364              	.Letext0:
 365              		.file 2 "../c:\\users\\ika\\desktop\\gnu mcu\\arm-none-eabi-gcc-9.3.1-1.1\\arm-none-eabi\\include\
 366              		.file 3 "../c:\\users\\ika\\desktop\\gnu mcu\\arm-none-eabi-gcc-9.3.1-1.1\\arm-none-eabi\\include\
 367              		.file 4 "../Drivers/CMSIS/Include/core_cm3.h"
ARM GAS  C:\Users\Ika\AppData\Local\Temp\ccO7S27f.s 			page 7


 368              		.file 5 "../Drivers/CMSIS/Device/ST/STM32F1xx/Include/system_stm32f1xx.h"
 369              		.file 6 "../Drivers/CMSIS/Device/ST/STM32F1xx/Include/stm32f103x6.h"
 370              		.file 7 "../Drivers/STM32F1xx_HAL_Driver/Inc/stm32f1xx_hal_def.h"
 371              		.file 8 "../Drivers/STM32F1xx_HAL_Driver/Inc/stm32f1xx_hal_dma.h"
 372              		.file 9 "../Drivers/STM32F1xx_HAL_Driver/Inc/stm32f1xx_hal_tim.h"
 373              		.file 10 "../Drivers/STM32F1xx_HAL_Driver/Inc/stm32f1xx_hal.h"
 374              		.file 11 "../Drivers/STM32F1xx_HAL_Driver/Inc/stm32f1xx_hal_gpio.h"
ARM GAS  C:\Users\Ika\AppData\Local\Temp\ccO7S27f.s 			page 8

