ARM GAS  C:\Users\Ika\AppData\Local\Temp\ccf6m5Fc.s 			page 1


   1              		.cpu cortex-m3
   2              		.eabi_attribute 20, 1
   3              		.eabi_attribute 21, 1
   4              		.eabi_attribute 23, 3
   5              		.eabi_attribute 24, 1
   6              		.eabi_attribute 25, 1
   7              		.eabi_attribute 26, 1
   8              		.eabi_attribute 30, 1
   9              		.eabi_attribute 34, 1
  10              		.eabi_attribute 18, 4
  11              		.file	"stm32f1xx_hal_tim_ex.c"
  12              		.text
  13              	.Ltext0:
  14              		.cfi_sections	.debug_frame
  15              		.section	.text.HAL_TIMEx_HallSensor_MspInit,"ax",%progbits
  16              		.align	1
  17              		.weak	HAL_TIMEx_HallSensor_MspInit
  18              		.arch armv7-m
  19              		.syntax unified
  20              		.thumb
  21              		.thumb_func
  22              		.fpu softvfp
  24              	HAL_TIMEx_HallSensor_MspInit:
  25              	.LVL0:
  26              	.LFB67:
  27              		.file 1 "../Drivers/STM32F1xx_HAL_Driver/Src/stm32f1xx_hal_tim_ex.c"
   1:../Drivers/STM32F1xx_HAL_Driver/Src/stm32f1xx_hal_tim_ex.c **** 
  28              		.loc 1 282 1 view -0
  29              		.cfi_startproc
  30              		@ args = 0, pretend = 0, frame = 0
  31              		@ frame_needed = 0, uses_anonymous_args = 0
  32              		@ link register save eliminated.
  33              		.loc 1 284 3 view .LVU1
  34              		.loc 1 289 1 is_stmt 0 view .LVU2
  35 0000 7047     		bx	lr
  36              		.cfi_endproc
  37              	.LFE67:
  39              		.section	.text.HAL_TIMEx_HallSensor_MspDeInit,"ax",%progbits
  40              		.align	1
  41              		.weak	HAL_TIMEx_HallSensor_MspDeInit
  42              		.syntax unified
  43              		.thumb
  44              		.thumb_func
  45              		.fpu softvfp
  47              	HAL_TIMEx_HallSensor_MspDeInit:
  48              	.LVL1:
  49              	.LFB68:
  50              		.loc 1 297 1 is_stmt 1 view -0
  51              		.cfi_startproc
  52              		@ args = 0, pretend = 0, frame = 0
  53              		@ frame_needed = 0, uses_anonymous_args = 0
  54              		@ link register save eliminated.
  55              		.loc 1 299 3 view .LVU4
  56              		.loc 1 304 1 is_stmt 0 view .LVU5
  57 0000 7047     		bx	lr
  58              		.cfi_endproc
  59              	.LFE68:
ARM GAS  C:\Users\Ika\AppData\Local\Temp\ccf6m5Fc.s 			page 2


  61              		.section	.text.TIMEx_DMACommutationCplt,"ax",%progbits
  62              		.align	1
  63              		.global	TIMEx_DMACommutationCplt
  64              		.syntax unified
  65              		.thumb
  66              		.thumb_func
  67              		.fpu softvfp
  69              	TIMEx_DMACommutationCplt:
  70              	.LVL2:
  71              	.LFB102:
  72              		.loc 1 2129 1 is_stmt 1 view -0
  73              		.cfi_startproc
  74              		@ args = 0, pretend = 0, frame = 0
  75              		@ frame_needed = 0, uses_anonymous_args = 0
  76              		.loc 1 2129 1 is_stmt 0 view .LVU7
  77 0000 08B5     		push	{r3, lr}
  78              	.LCFI0:
  79              		.cfi_def_cfa_offset 8
  80              		.cfi_offset 3, -8
  81              		.cfi_offset 14, -4
  82              		.loc 1 2130 3 is_stmt 1 view .LVU8
  83              		.loc 1 2130 22 is_stmt 0 view .LVU9
  84 0002 406A     		ldr	r0, [r0, #36]
  85              	.LVL3:
  86              		.loc 1 2133 3 is_stmt 1 view .LVU10
  87              		.loc 1 2133 15 is_stmt 0 view .LVU11
  88 0004 0123     		movs	r3, #1
  89 0006 80F83D30 		strb	r3, [r0, #61]
  90              		.loc 1 2136 3 is_stmt 1 view .LVU12
  91              		.loc 1 2136 7 is_stmt 0 view .LVU13
  92 000a D0F8A830 		ldr	r3, [r0, #168]
  93              		.loc 1 2136 3 view .LVU14
  94 000e 9847     		blx	r3
  95              	.LVL4:
  96              		.loc 1 2140 1 view .LVU15
  97 0010 08BD     		pop	{r3, pc}
  98              		.cfi_endproc
  99              	.LFE102:
 101              		.section	.text.TIMEx_DMACommutationHalfCplt,"ax",%progbits
 102              		.align	1
 103              		.global	TIMEx_DMACommutationHalfCplt
 104              		.syntax unified
 105              		.thumb
 106              		.thumb_func
 107              		.fpu softvfp
 109              	TIMEx_DMACommutationHalfCplt:
 110              	.LVL5:
 111              	.LFB103:
 112              		.loc 1 2148 1 is_stmt 1 view -0
 113              		.cfi_startproc
 114              		@ args = 0, pretend = 0, frame = 0
 115              		@ frame_needed = 0, uses_anonymous_args = 0
 116              		.loc 1 2148 1 is_stmt 0 view .LVU17
 117 0000 08B5     		push	{r3, lr}
 118              	.LCFI1:
 119              		.cfi_def_cfa_offset 8
 120              		.cfi_offset 3, -8
ARM GAS  C:\Users\Ika\AppData\Local\Temp\ccf6m5Fc.s 			page 3


 121              		.cfi_offset 14, -4
 122              		.loc 1 2149 3 is_stmt 1 view .LVU18
 123              		.loc 1 2149 22 is_stmt 0 view .LVU19
 124 0002 406A     		ldr	r0, [r0, #36]
 125              	.LVL6:
 126              		.loc 1 2152 3 is_stmt 1 view .LVU20
 127              		.loc 1 2152 15 is_stmt 0 view .LVU21
 128 0004 0123     		movs	r3, #1
 129 0006 80F83D30 		strb	r3, [r0, #61]
 130              		.loc 1 2155 3 is_stmt 1 view .LVU22
 131              		.loc 1 2155 7 is_stmt 0 view .LVU23
 132 000a D0F8AC30 		ldr	r3, [r0, #172]
 133              		.loc 1 2155 3 view .LVU24
 134 000e 9847     		blx	r3
 135              	.LVL7:
 136              		.loc 1 2159 1 view .LVU25
 137 0010 08BD     		pop	{r3, pc}
 138              		.cfi_endproc
 139              	.LFE103:
 141              		.section	.text.TIM_DMADelayPulseNCplt,"ax",%progbits
 142              		.align	1
 143              		.syntax unified
 144              		.thumb
 145              		.thumb_func
 146              		.fpu softvfp
 148              	TIM_DMADelayPulseNCplt:
 149              	.LVL8:
 150              	.LFB104:
 151              		.loc 1 2168 1 is_stmt 1 view -0
 152              		.cfi_startproc
 153              		@ args = 0, pretend = 0, frame = 0
 154              		@ frame_needed = 0, uses_anonymous_args = 0
 155              		.loc 1 2168 1 is_stmt 0 view .LVU27
 156 0000 10B5     		push	{r4, lr}
 157              	.LCFI2:
 158              		.cfi_def_cfa_offset 8
 159              		.cfi_offset 4, -8
 160              		.cfi_offset 14, -4
 161              		.loc 1 2169 3 is_stmt 1 view .LVU28
 162              		.loc 1 2169 22 is_stmt 0 view .LVU29
 163 0002 446A     		ldr	r4, [r0, #36]
 164              	.LVL9:
 165              		.loc 1 2171 3 is_stmt 1 view .LVU30
 166              		.loc 1 2171 25 is_stmt 0 view .LVU31
 167 0004 636A     		ldr	r3, [r4, #36]
 168              		.loc 1 2171 6 view .LVU32
 169 0006 8342     		cmp	r3, r0
 170 0008 0FD0     		beq	.L13
 171              		.loc 1 2180 8 is_stmt 1 view .LVU33
 172              		.loc 1 2180 30 is_stmt 0 view .LVU34
 173 000a A36A     		ldr	r3, [r4, #40]
 174              		.loc 1 2180 11 view .LVU35
 175 000c 8342     		cmp	r3, r0
 176 000e 15D0     		beq	.L14
 177              		.loc 1 2189 8 is_stmt 1 view .LVU36
 178              		.loc 1 2189 30 is_stmt 0 view .LVU37
 179 0010 E36A     		ldr	r3, [r4, #44]
ARM GAS  C:\Users\Ika\AppData\Local\Temp\ccf6m5Fc.s 			page 4


 180              		.loc 1 2189 11 view .LVU38
 181 0012 8342     		cmp	r3, r0
 182 0014 1BD0     		beq	.L15
 183              		.loc 1 2198 8 is_stmt 1 view .LVU39
 184              		.loc 1 2198 30 is_stmt 0 view .LVU40
 185 0016 236B     		ldr	r3, [r4, #48]
 186              		.loc 1 2198 11 view .LVU41
 187 0018 8342     		cmp	r3, r0
 188 001a 21D0     		beq	.L16
 189              	.L9:
 190              		.loc 1 2210 3 is_stmt 1 view .LVU42
 191              		.loc 1 2213 3 view .LVU43
 192              		.loc 1 2213 7 is_stmt 0 view .LVU44
 193 001c D4F89C30 		ldr	r3, [r4, #156]
 194              		.loc 1 2213 3 view .LVU45
 195 0020 2046     		mov	r0, r4
 196              	.LVL10:
 197              		.loc 1 2213 3 view .LVU46
 198 0022 9847     		blx	r3
 199              	.LVL11:
 200              		.loc 1 2218 3 is_stmt 1 view .LVU47
 201              		.loc 1 2218 17 is_stmt 0 view .LVU48
 202 0024 0023     		movs	r3, #0
 203 0026 2377     		strb	r3, [r4, #28]
 204              		.loc 1 2219 1 view .LVU49
 205 0028 10BD     		pop	{r4, pc}
 206              	.LVL12:
 207              	.L13:
 208              		.loc 1 2173 5 is_stmt 1 view .LVU50
 209              		.loc 1 2173 19 is_stmt 0 view .LVU51
 210 002a 0123     		movs	r3, #1
 211 002c 2377     		strb	r3, [r4, #28]
 212              		.loc 1 2175 5 is_stmt 1 view .LVU52
 213              		.loc 1 2175 19 is_stmt 0 view .LVU53
 214 002e 8369     		ldr	r3, [r0, #24]
 215              		.loc 1 2175 8 view .LVU54
 216 0030 002B     		cmp	r3, #0
 217 0032 F3D1     		bne	.L9
 218              		.loc 1 2177 7 is_stmt 1 view .LVU55
 219 0034 0123     		movs	r3, #1
 220 0036 84F84230 		strb	r3, [r4, #66]
 221 003a EFE7     		b	.L9
 222              	.L14:
 223              		.loc 1 2182 5 view .LVU56
 224              		.loc 1 2182 19 is_stmt 0 view .LVU57
 225 003c 0223     		movs	r3, #2
 226 003e 2377     		strb	r3, [r4, #28]
 227              		.loc 1 2184 5 is_stmt 1 view .LVU58
 228              		.loc 1 2184 19 is_stmt 0 view .LVU59
 229 0040 8369     		ldr	r3, [r0, #24]
 230              		.loc 1 2184 8 view .LVU60
 231 0042 002B     		cmp	r3, #0
 232 0044 EAD1     		bne	.L9
 233              		.loc 1 2186 7 is_stmt 1 view .LVU61
 234 0046 0123     		movs	r3, #1
 235 0048 84F84330 		strb	r3, [r4, #67]
 236 004c E6E7     		b	.L9
ARM GAS  C:\Users\Ika\AppData\Local\Temp\ccf6m5Fc.s 			page 5


 237              	.L15:
 238              		.loc 1 2191 5 view .LVU62
 239              		.loc 1 2191 19 is_stmt 0 view .LVU63
 240 004e 0423     		movs	r3, #4
 241 0050 2377     		strb	r3, [r4, #28]
 242              		.loc 1 2193 5 is_stmt 1 view .LVU64
 243              		.loc 1 2193 19 is_stmt 0 view .LVU65
 244 0052 8369     		ldr	r3, [r0, #24]
 245              		.loc 1 2193 8 view .LVU66
 246 0054 002B     		cmp	r3, #0
 247 0056 E1D1     		bne	.L9
 248              		.loc 1 2195 7 is_stmt 1 view .LVU67
 249 0058 0123     		movs	r3, #1
 250 005a 84F84430 		strb	r3, [r4, #68]
 251 005e DDE7     		b	.L9
 252              	.L16:
 253              		.loc 1 2200 5 view .LVU68
 254              		.loc 1 2200 19 is_stmt 0 view .LVU69
 255 0060 0823     		movs	r3, #8
 256 0062 2377     		strb	r3, [r4, #28]
 257              		.loc 1 2202 5 is_stmt 1 view .LVU70
 258              		.loc 1 2202 19 is_stmt 0 view .LVU71
 259 0064 8369     		ldr	r3, [r0, #24]
 260              		.loc 1 2202 8 view .LVU72
 261 0066 002B     		cmp	r3, #0
 262 0068 D8D1     		bne	.L9
 263              		.loc 1 2204 7 is_stmt 1 view .LVU73
 264 006a 0123     		movs	r3, #1
 265 006c 84F84530 		strb	r3, [r4, #69]
 266 0070 D4E7     		b	.L9
 267              		.cfi_endproc
 268              	.LFE104:
 270              		.section	.text.TIM_DMAErrorCCxN,"ax",%progbits
 271              		.align	1
 272              		.syntax unified
 273              		.thumb
 274              		.thumb_func
 275              		.fpu softvfp
 277              	TIM_DMAErrorCCxN:
 278              	.LVL13:
 279              	.LFB105:
 280              		.loc 1 2227 1 view -0
 281              		.cfi_startproc
 282              		@ args = 0, pretend = 0, frame = 0
 283              		@ frame_needed = 0, uses_anonymous_args = 0
 284              		.loc 1 2227 1 is_stmt 0 view .LVU75
 285 0000 10B5     		push	{r4, lr}
 286              	.LCFI3:
 287              		.cfi_def_cfa_offset 8
 288              		.cfi_offset 4, -8
 289              		.cfi_offset 14, -4
 290              		.loc 1 2228 3 is_stmt 1 view .LVU76
 291              		.loc 1 2228 22 is_stmt 0 view .LVU77
 292 0002 446A     		ldr	r4, [r0, #36]
 293              	.LVL14:
 294              		.loc 1 2230 3 is_stmt 1 view .LVU78
 295              		.loc 1 2230 25 is_stmt 0 view .LVU79
ARM GAS  C:\Users\Ika\AppData\Local\Temp\ccf6m5Fc.s 			page 6


 296 0004 636A     		ldr	r3, [r4, #36]
 297              		.loc 1 2230 6 view .LVU80
 298 0006 8342     		cmp	r3, r0
 299 0008 0CD0     		beq	.L22
 300              		.loc 1 2235 8 is_stmt 1 view .LVU81
 301              		.loc 1 2235 30 is_stmt 0 view .LVU82
 302 000a A36A     		ldr	r3, [r4, #40]
 303              		.loc 1 2235 11 view .LVU83
 304 000c 8342     		cmp	r3, r0
 305 000e 0ED0     		beq	.L23
 306              		.loc 1 2240 8 is_stmt 1 view .LVU84
 307              		.loc 1 2240 30 is_stmt 0 view .LVU85
 308 0010 E36A     		ldr	r3, [r4, #44]
 309              		.loc 1 2240 11 view .LVU86
 310 0012 8342     		cmp	r3, r0
 311 0014 11D0     		beq	.L24
 312              	.L19:
 313              		.loc 1 2248 3 is_stmt 1 view .LVU87
 314              		.loc 1 2251 3 view .LVU88
 315              		.loc 1 2251 7 is_stmt 0 view .LVU89
 316 0016 D4F8A430 		ldr	r3, [r4, #164]
 317              		.loc 1 2251 3 view .LVU90
 318 001a 2046     		mov	r0, r4
 319              	.LVL15:
 320              		.loc 1 2251 3 view .LVU91
 321 001c 9847     		blx	r3
 322              	.LVL16:
 323              		.loc 1 2256 3 is_stmt 1 view .LVU92
 324              		.loc 1 2256 17 is_stmt 0 view .LVU93
 325 001e 0023     		movs	r3, #0
 326 0020 2377     		strb	r3, [r4, #28]
 327              		.loc 1 2257 1 view .LVU94
 328 0022 10BD     		pop	{r4, pc}
 329              	.LVL17:
 330              	.L22:
 331              		.loc 1 2232 5 is_stmt 1 view .LVU95
 332              		.loc 1 2232 19 is_stmt 0 view .LVU96
 333 0024 0123     		movs	r3, #1
 334 0026 2377     		strb	r3, [r4, #28]
 335              		.loc 1 2233 5 is_stmt 1 view .LVU97
 336 0028 84F84230 		strb	r3, [r4, #66]
 337 002c F3E7     		b	.L19
 338              	.L23:
 339              		.loc 1 2237 5 view .LVU98
 340              		.loc 1 2237 19 is_stmt 0 view .LVU99
 341 002e 0223     		movs	r3, #2
 342 0030 2377     		strb	r3, [r4, #28]
 343              		.loc 1 2238 5 is_stmt 1 view .LVU100
 344 0032 0123     		movs	r3, #1
 345 0034 84F84330 		strb	r3, [r4, #67]
 346 0038 EDE7     		b	.L19
 347              	.L24:
 348              		.loc 1 2242 5 view .LVU101
 349              		.loc 1 2242 19 is_stmt 0 view .LVU102
 350 003a 0423     		movs	r3, #4
 351 003c 2377     		strb	r3, [r4, #28]
 352              		.loc 1 2243 5 is_stmt 1 view .LVU103
ARM GAS  C:\Users\Ika\AppData\Local\Temp\ccf6m5Fc.s 			page 7


 353 003e 0123     		movs	r3, #1
 354 0040 84F84430 		strb	r3, [r4, #68]
 355 0044 E7E7     		b	.L19
 356              		.cfi_endproc
 357              	.LFE105:
 359              		.section	.text.TIM_CCxNChannelCmd,"ax",%progbits
 360              		.align	1
 361              		.syntax unified
 362              		.thumb
 363              		.thumb_func
 364              		.fpu softvfp
 366              	TIM_CCxNChannelCmd:
 367              	.LVL18:
 368              	.LFB106:
 369              		.loc 1 2272 1 view -0
 370              		.cfi_startproc
 371              		@ args = 0, pretend = 0, frame = 0
 372              		@ frame_needed = 0, uses_anonymous_args = 0
 373              		@ link register save eliminated.
 374              		.loc 1 2272 1 is_stmt 0 view .LVU105
 375 0000 10B4     		push	{r4}
 376              	.LCFI4:
 377              		.cfi_def_cfa_offset 4
 378              		.cfi_offset 4, -4
 379              		.loc 1 2273 3 is_stmt 1 view .LVU106
 380              		.loc 1 2275 3 view .LVU107
 381              		.loc 1 2275 36 is_stmt 0 view .LVU108
 382 0002 01F01F01 		and	r1, r1, #31
 383              	.LVL19:
 384              		.loc 1 2275 7 view .LVU109
 385 0006 0423     		movs	r3, #4
 386 0008 03FA01F4 		lsl	r4, r3, r1
 387              	.LVL20:
 388              		.loc 1 2278 3 is_stmt 1 view .LVU110
 389              		.loc 1 2278 14 is_stmt 0 view .LVU111
 390 000c 036A     		ldr	r3, [r0, #32]
 391 000e 23EA0403 		bic	r3, r3, r4
 392 0012 0362     		str	r3, [r0, #32]
 393              		.loc 1 2281 3 is_stmt 1 view .LVU112
 394              		.loc 1 2281 14 is_stmt 0 view .LVU113
 395 0014 036A     		ldr	r3, [r0, #32]
 396              		.loc 1 2281 42 view .LVU114
 397 0016 02FA01F1 		lsl	r1, r2, r1
 398              		.loc 1 2281 14 view .LVU115
 399 001a 0B43     		orrs	r3, r3, r1
 400 001c 0362     		str	r3, [r0, #32]
 401              		.loc 1 2282 1 view .LVU116
 402 001e 10BC     		pop	{r4}
 403              	.LCFI5:
 404              		.cfi_restore 4
 405              		.cfi_def_cfa_offset 0
 406              	.LVL21:
 407              		.loc 1 2282 1 view .LVU117
 408 0020 7047     		bx	lr
 409              		.cfi_endproc
 410              	.LFE106:
 412              		.section	.text.HAL_TIMEx_HallSensor_Init,"ax",%progbits
ARM GAS  C:\Users\Ika\AppData\Local\Temp\ccf6m5Fc.s 			page 8


 413              		.align	1
 414              		.global	HAL_TIMEx_HallSensor_Init
 415              		.syntax unified
 416              		.thumb
 417              		.thumb_func
 418              		.fpu softvfp
 420              	HAL_TIMEx_HallSensor_Init:
 421              	.LVL22:
 422              	.LFB65:
 423              		.loc 1 136 1 is_stmt 1 view -0
 424              		.cfi_startproc
 425              		@ args = 0, pretend = 0, frame = 32
 426              		@ frame_needed = 0, uses_anonymous_args = 0
 427              		.loc 1 137 3 view .LVU119
 428              		.loc 1 140 3 view .LVU120
 429              		.loc 1 140 6 is_stmt 0 view .LVU121
 430 0000 0028     		cmp	r0, #0
 431 0002 6DD0     		beq	.L31
 432              		.loc 1 136 1 view .LVU122
 433 0004 70B5     		push	{r4, r5, r6, lr}
 434              	.LCFI6:
 435              		.cfi_def_cfa_offset 16
 436              		.cfi_offset 4, -16
 437              		.cfi_offset 5, -12
 438              		.cfi_offset 6, -8
 439              		.cfi_offset 14, -4
 440 0006 88B0     		sub	sp, sp, #32
 441              	.LCFI7:
 442              		.cfi_def_cfa_offset 48
 443 0008 0E46     		mov	r6, r1
 444 000a 0446     		mov	r4, r0
 445              		.loc 1 146 3 is_stmt 1 view .LVU123
 446              		.loc 1 147 3 view .LVU124
 447              		.loc 1 148 3 view .LVU125
 448              		.loc 1 149 3 view .LVU126
 449              		.loc 1 150 3 view .LVU127
 450              		.loc 1 151 3 view .LVU128
 451              		.loc 1 152 3 view .LVU129
 452              		.loc 1 154 3 view .LVU130
 453              		.loc 1 154 11 is_stmt 0 view .LVU131
 454 000c 90F83D30 		ldrb	r3, [r0, #61]	@ zero_extendqisi2
 455              		.loc 1 154 6 view .LVU132
 456 0010 002B     		cmp	r3, #0
 457 0012 58D0     		beq	.L36
 458              	.LVL23:
 459              	.L29:
 460              		.loc 1 176 3 is_stmt 1 view .LVU133
 461              		.loc 1 176 15 is_stmt 0 view .LVU134
 462 0014 0223     		movs	r3, #2
 463 0016 84F83D30 		strb	r3, [r4, #61]
 464              		.loc 1 179 3 is_stmt 1 view .LVU135
 465 001a 2146     		mov	r1, r4
 466 001c 51F8040B 		ldr	r0, [r1], #4
 467 0020 FFF7FEFF 		bl	TIM_Base_SetConfig
 468              	.LVL24:
 469              		.loc 1 182 3 view .LVU136
 470 0024 B368     		ldr	r3, [r6, #8]
ARM GAS  C:\Users\Ika\AppData\Local\Temp\ccf6m5Fc.s 			page 9


 471 0026 0322     		movs	r2, #3
 472 0028 3168     		ldr	r1, [r6]
 473 002a 2068     		ldr	r0, [r4]
 474 002c FFF7FEFF 		bl	TIM_TI1_SetConfig
 475              	.LVL25:
 476              		.loc 1 185 3 view .LVU137
 477              		.loc 1 185 7 is_stmt 0 view .LVU138
 478 0030 2268     		ldr	r2, [r4]
 479              		.loc 1 185 25 view .LVU139
 480 0032 9369     		ldr	r3, [r2, #24]
 481 0034 23F00C03 		bic	r3, r3, #12
 482 0038 9361     		str	r3, [r2, #24]
 483              		.loc 1 187 3 is_stmt 1 view .LVU140
 484              		.loc 1 187 7 is_stmt 0 view .LVU141
 485 003a 2268     		ldr	r2, [r4]
 486              		.loc 1 187 25 view .LVU142
 487 003c 9369     		ldr	r3, [r2, #24]
 488              		.loc 1 187 35 view .LVU143
 489 003e 7168     		ldr	r1, [r6, #4]
 490              		.loc 1 187 25 view .LVU144
 491 0040 0B43     		orrs	r3, r3, r1
 492 0042 9361     		str	r3, [r2, #24]
 493              		.loc 1 190 3 is_stmt 1 view .LVU145
 494              		.loc 1 190 7 is_stmt 0 view .LVU146
 495 0044 2268     		ldr	r2, [r4]
 496              		.loc 1 190 23 view .LVU147
 497 0046 5368     		ldr	r3, [r2, #4]
 498 0048 43F08003 		orr	r3, r3, #128
 499 004c 5360     		str	r3, [r2, #4]
 500              		.loc 1 193 3 is_stmt 1 view .LVU148
 501              		.loc 1 193 7 is_stmt 0 view .LVU149
 502 004e 2268     		ldr	r2, [r4]
 503              		.loc 1 193 24 view .LVU150
 504 0050 9368     		ldr	r3, [r2, #8]
 505 0052 23F07003 		bic	r3, r3, #112
 506 0056 9360     		str	r3, [r2, #8]
 507              		.loc 1 194 3 is_stmt 1 view .LVU151
 508              		.loc 1 194 7 is_stmt 0 view .LVU152
 509 0058 2268     		ldr	r2, [r4]
 510              		.loc 1 194 24 view .LVU153
 511 005a 9368     		ldr	r3, [r2, #8]
 512 005c 43F04003 		orr	r3, r3, #64
 513 0060 9360     		str	r3, [r2, #8]
 514              		.loc 1 197 3 is_stmt 1 view .LVU154
 515              		.loc 1 197 7 is_stmt 0 view .LVU155
 516 0062 2268     		ldr	r2, [r4]
 517              		.loc 1 197 24 view .LVU156
 518 0064 9368     		ldr	r3, [r2, #8]
 519 0066 23F00703 		bic	r3, r3, #7
 520 006a 9360     		str	r3, [r2, #8]
 521              		.loc 1 198 3 is_stmt 1 view .LVU157
 522              		.loc 1 198 7 is_stmt 0 view .LVU158
 523 006c 2268     		ldr	r2, [r4]
 524              		.loc 1 198 24 view .LVU159
 525 006e 9368     		ldr	r3, [r2, #8]
 526 0070 43F00403 		orr	r3, r3, #4
 527 0074 9360     		str	r3, [r2, #8]
ARM GAS  C:\Users\Ika\AppData\Local\Temp\ccf6m5Fc.s 			page 10


 528              		.loc 1 201 3 is_stmt 1 view .LVU160
 529              		.loc 1 201 24 is_stmt 0 view .LVU161
 530 0076 0025     		movs	r5, #0
 531 0078 0595     		str	r5, [sp, #20]
 532              		.loc 1 202 3 is_stmt 1 view .LVU162
 533              		.loc 1 202 25 is_stmt 0 view .LVU163
 534 007a 0695     		str	r5, [sp, #24]
 535              		.loc 1 203 3 is_stmt 1 view .LVU164
 536              		.loc 1 203 20 is_stmt 0 view .LVU165
 537 007c 7023     		movs	r3, #112
 538 007e 0193     		str	r3, [sp, #4]
 539              		.loc 1 204 3 is_stmt 1 view .LVU166
 540              		.loc 1 204 26 is_stmt 0 view .LVU167
 541 0080 0795     		str	r5, [sp, #28]
 542              		.loc 1 205 3 is_stmt 1 view .LVU168
 543              		.loc 1 205 25 is_stmt 0 view .LVU169
 544 0082 0495     		str	r5, [sp, #16]
 545              		.loc 1 206 3 is_stmt 1 view .LVU170
 546              		.loc 1 206 24 is_stmt 0 view .LVU171
 547 0084 0395     		str	r5, [sp, #12]
 548              		.loc 1 207 3 is_stmt 1 view .LVU172
 549              		.loc 1 207 28 is_stmt 0 view .LVU173
 550 0086 F368     		ldr	r3, [r6, #12]
 551              		.loc 1 207 19 view .LVU174
 552 0088 0293     		str	r3, [sp, #8]
 553              		.loc 1 209 3 is_stmt 1 view .LVU175
 554 008a 01A9     		add	r1, sp, #4
 555 008c 2068     		ldr	r0, [r4]
 556 008e FFF7FEFF 		bl	TIM_OC2_SetConfig
 557              	.LVL26:
 558              		.loc 1 213 3 view .LVU176
 559              		.loc 1 213 7 is_stmt 0 view .LVU177
 560 0092 2268     		ldr	r2, [r4]
 561              		.loc 1 213 23 view .LVU178
 562 0094 5368     		ldr	r3, [r2, #4]
 563 0096 23F07003 		bic	r3, r3, #112
 564 009a 5360     		str	r3, [r2, #4]
 565              		.loc 1 214 3 is_stmt 1 view .LVU179
 566              		.loc 1 214 7 is_stmt 0 view .LVU180
 567 009c 2268     		ldr	r2, [r4]
 568              		.loc 1 214 23 view .LVU181
 569 009e 5368     		ldr	r3, [r2, #4]
 570 00a0 43F05003 		orr	r3, r3, #80
 571 00a4 5360     		str	r3, [r2, #4]
 572              		.loc 1 217 3 is_stmt 1 view .LVU182
 573              		.loc 1 217 23 is_stmt 0 view .LVU183
 574 00a6 0123     		movs	r3, #1
 575 00a8 84F84630 		strb	r3, [r4, #70]
 576              		.loc 1 220 3 is_stmt 1 view .LVU184
 577 00ac 84F83E30 		strb	r3, [r4, #62]
 578              		.loc 1 221 3 view .LVU185
 579 00b0 84F83F30 		strb	r3, [r4, #63]
 580              		.loc 1 222 3 view .LVU186
 581 00b4 84F84230 		strb	r3, [r4, #66]
 582              		.loc 1 223 3 view .LVU187
 583 00b8 84F84330 		strb	r3, [r4, #67]
 584              		.loc 1 226 3 view .LVU188
ARM GAS  C:\Users\Ika\AppData\Local\Temp\ccf6m5Fc.s 			page 11


 585              		.loc 1 226 15 is_stmt 0 view .LVU189
 586 00bc 84F83D30 		strb	r3, [r4, #61]
 587              		.loc 1 228 3 is_stmt 1 view .LVU190
 588              		.loc 1 228 10 is_stmt 0 view .LVU191
 589 00c0 2846     		mov	r0, r5
 590              		.loc 1 229 1 view .LVU192
 591 00c2 08B0     		add	sp, sp, #32
 592              	.LCFI8:
 593              		.cfi_remember_state
 594              		.cfi_def_cfa_offset 16
 595              		@ sp needed
 596 00c4 70BD     		pop	{r4, r5, r6, pc}
 597              	.LVL27:
 598              	.L36:
 599              	.LCFI9:
 600              		.cfi_restore_state
 601              		.loc 1 157 5 is_stmt 1 view .LVU193
 602              		.loc 1 157 16 is_stmt 0 view .LVU194
 603 00c6 80F83C30 		strb	r3, [r0, #60]
 604              		.loc 1 161 5 is_stmt 1 view .LVU195
 605 00ca FFF7FEFF 		bl	TIM_ResetCallback
 606              	.LVL28:
 607              		.loc 1 163 5 view .LVU196
 608              		.loc 1 163 13 is_stmt 0 view .LVU197
 609 00ce A36F     		ldr	r3, [r4, #120]
 610              		.loc 1 163 8 view .LVU198
 611 00d0 1BB1     		cbz	r3, .L37
 612              	.L30:
 613              		.loc 1 168 5 is_stmt 1 view .LVU199
 614              		.loc 1 168 9 is_stmt 0 view .LVU200
 615 00d2 A36F     		ldr	r3, [r4, #120]
 616              		.loc 1 168 5 view .LVU201
 617 00d4 2046     		mov	r0, r4
 618 00d6 9847     		blx	r3
 619              	.LVL29:
 620 00d8 9CE7     		b	.L29
 621              	.L37:
 622              		.loc 1 165 7 is_stmt 1 view .LVU202
 623              		.loc 1 165 40 is_stmt 0 view .LVU203
 624 00da 024B     		ldr	r3, .L38
 625 00dc A367     		str	r3, [r4, #120]
 626 00de F8E7     		b	.L30
 627              	.LVL30:
 628              	.L31:
 629              	.LCFI10:
 630              		.cfi_def_cfa_offset 0
 631              		.cfi_restore 4
 632              		.cfi_restore 5
 633              		.cfi_restore 6
 634              		.cfi_restore 14
 635              		.loc 1 142 12 view .LVU204
 636 00e0 0120     		movs	r0, #1
 637              	.LVL31:
 638              		.loc 1 229 1 view .LVU205
 639 00e2 7047     		bx	lr
 640              	.L39:
 641              		.align	2
ARM GAS  C:\Users\Ika\AppData\Local\Temp\ccf6m5Fc.s 			page 12


 642              	.L38:
 643 00e4 00000000 		.word	HAL_TIMEx_HallSensor_MspInit
 644              		.cfi_endproc
 645              	.LFE65:
 647              		.section	.text.HAL_TIMEx_HallSensor_DeInit,"ax",%progbits
 648              		.align	1
 649              		.global	HAL_TIMEx_HallSensor_DeInit
 650              		.syntax unified
 651              		.thumb
 652              		.thumb_func
 653              		.fpu softvfp
 655              	HAL_TIMEx_HallSensor_DeInit:
 656              	.LVL32:
 657              	.LFB66:
 658              		.loc 1 237 1 is_stmt 1 view -0
 659              		.cfi_startproc
 660              		@ args = 0, pretend = 0, frame = 0
 661              		@ frame_needed = 0, uses_anonymous_args = 0
 662              		.loc 1 237 1 is_stmt 0 view .LVU207
 663 0000 10B5     		push	{r4, lr}
 664              	.LCFI11:
 665              		.cfi_def_cfa_offset 8
 666              		.cfi_offset 4, -8
 667              		.cfi_offset 14, -4
 668 0002 0446     		mov	r4, r0
 669              		.loc 1 239 3 is_stmt 1 view .LVU208
 670              		.loc 1 241 3 view .LVU209
 671              		.loc 1 241 15 is_stmt 0 view .LVU210
 672 0004 0223     		movs	r3, #2
 673 0006 80F83D30 		strb	r3, [r0, #61]
 674              		.loc 1 244 3 is_stmt 1 view .LVU211
 675              		.loc 1 244 3 view .LVU212
 676 000a 0368     		ldr	r3, [r0]
 677 000c 196A     		ldr	r1, [r3, #32]
 678 000e 41F21112 		movw	r2, #4369
 679 0012 1142     		tst	r1, r2
 680 0014 08D1     		bne	.L41
 681              		.loc 1 244 3 discriminator 1 view .LVU213
 682 0016 196A     		ldr	r1, [r3, #32]
 683 0018 40F24442 		movw	r2, #1092
 684 001c 1142     		tst	r1, r2
 685 001e 03D1     		bne	.L41
 686              		.loc 1 244 3 discriminator 3 view .LVU214
 687 0020 1A68     		ldr	r2, [r3]
 688 0022 22F00102 		bic	r2, r2, #1
 689 0026 1A60     		str	r2, [r3]
 690              	.L41:
 691              		.loc 1 244 3 discriminator 5 view .LVU215
 692              		.loc 1 247 3 discriminator 5 view .LVU216
 693              		.loc 1 247 11 is_stmt 0 discriminator 5 view .LVU217
 694 0028 E36F     		ldr	r3, [r4, #124]
 695              		.loc 1 247 6 discriminator 5 view .LVU218
 696 002a 93B1     		cbz	r3, .L44
 697              	.L42:
 698              		.loc 1 252 3 is_stmt 1 view .LVU219
 699              		.loc 1 252 7 is_stmt 0 view .LVU220
 700 002c E36F     		ldr	r3, [r4, #124]
ARM GAS  C:\Users\Ika\AppData\Local\Temp\ccf6m5Fc.s 			page 13


 701              		.loc 1 252 3 view .LVU221
 702 002e 2046     		mov	r0, r4
 703              	.LVL33:
 704              		.loc 1 252 3 view .LVU222
 705 0030 9847     		blx	r3
 706              	.LVL34:
 707              		.loc 1 259 3 is_stmt 1 view .LVU223
 708              		.loc 1 259 23 is_stmt 0 view .LVU224
 709 0032 0020     		movs	r0, #0
 710 0034 84F84600 		strb	r0, [r4, #70]
 711              		.loc 1 262 3 is_stmt 1 view .LVU225
 712 0038 84F83E00 		strb	r0, [r4, #62]
 713              		.loc 1 263 3 view .LVU226
 714 003c 84F83F00 		strb	r0, [r4, #63]
 715              		.loc 1 264 3 view .LVU227
 716 0040 84F84200 		strb	r0, [r4, #66]
 717              		.loc 1 265 3 view .LVU228
 718 0044 84F84300 		strb	r0, [r4, #67]
 719              		.loc 1 268 3 view .LVU229
 720              		.loc 1 268 15 is_stmt 0 view .LVU230
 721 0048 84F83D00 		strb	r0, [r4, #61]
 722              		.loc 1 271 3 is_stmt 1 view .LVU231
 723              		.loc 1 271 3 view .LVU232
 724 004c 84F83C00 		strb	r0, [r4, #60]
 725              		.loc 1 271 3 view .LVU233
 726              		.loc 1 273 3 view .LVU234
 727              		.loc 1 274 1 is_stmt 0 view .LVU235
 728 0050 10BD     		pop	{r4, pc}
 729              	.LVL35:
 730              	.L44:
 731              		.loc 1 249 5 is_stmt 1 view .LVU236
 732              		.loc 1 249 40 is_stmt 0 view .LVU237
 733 0052 014B     		ldr	r3, .L45
 734 0054 E367     		str	r3, [r4, #124]
 735 0056 E9E7     		b	.L42
 736              	.L46:
 737              		.align	2
 738              	.L45:
 739 0058 00000000 		.word	HAL_TIMEx_HallSensor_MspDeInit
 740              		.cfi_endproc
 741              	.LFE66:
 743              		.section	.text.HAL_TIMEx_HallSensor_Start,"ax",%progbits
 744              		.align	1
 745              		.global	HAL_TIMEx_HallSensor_Start
 746              		.syntax unified
 747              		.thumb
 748              		.thumb_func
 749              		.fpu softvfp
 751              	HAL_TIMEx_HallSensor_Start:
 752              	.LVL36:
 753              	.LFB69:
 754              		.loc 1 312 1 is_stmt 1 view -0
 755              		.cfi_startproc
 756              		@ args = 0, pretend = 0, frame = 0
 757              		@ frame_needed = 0, uses_anonymous_args = 0
 758              		.loc 1 312 1 is_stmt 0 view .LVU239
 759 0000 10B5     		push	{r4, lr}
ARM GAS  C:\Users\Ika\AppData\Local\Temp\ccf6m5Fc.s 			page 14


 760              	.LCFI12:
 761              		.cfi_def_cfa_offset 8
 762              		.cfi_offset 4, -8
 763              		.cfi_offset 14, -4
 764 0002 0446     		mov	r4, r0
 765              		.loc 1 313 3 is_stmt 1 view .LVU240
 766              		.loc 1 314 3 view .LVU241
 767              		.loc 1 314 31 is_stmt 0 view .LVU242
 768 0004 90F83E00 		ldrb	r0, [r0, #62]	@ zero_extendqisi2
 769              	.LVL37:
 770              		.loc 1 314 31 view .LVU243
 771 0008 C0B2     		uxtb	r0, r0
 772              	.LVL38:
 773              		.loc 1 315 3 is_stmt 1 view .LVU244
 774              		.loc 1 315 31 is_stmt 0 view .LVU245
 775 000a 94F83F30 		ldrb	r3, [r4, #63]	@ zero_extendqisi2
 776              	.LVL39:
 777              		.loc 1 316 3 is_stmt 1 view .LVU246
 778              		.loc 1 316 31 is_stmt 0 view .LVU247
 779 000e 94F84220 		ldrb	r2, [r4, #66]	@ zero_extendqisi2
 780              	.LVL40:
 781              		.loc 1 317 3 is_stmt 1 view .LVU248
 782              		.loc 1 317 31 is_stmt 0 view .LVU249
 783 0012 94F84310 		ldrb	r1, [r4, #67]	@ zero_extendqisi2
 784              	.LVL41:
 785              		.loc 1 320 3 is_stmt 1 view .LVU250
 786              		.loc 1 323 3 view .LVU251
 787              		.loc 1 323 6 is_stmt 0 view .LVU252
 788 0016 0128     		cmp	r0, #1
 789 0018 33D1     		bne	.L51
 790 001a DBB2     		uxtb	r3, r3
 791              		.loc 1 323 6 view .LVU253
 792 001c D2B2     		uxtb	r2, r2
 793              		.loc 1 323 6 view .LVU254
 794 001e C9B2     		uxtb	r1, r1
 795              		.loc 1 324 7 view .LVU255
 796 0020 012B     		cmp	r3, #1
 797 0022 2FD1     		bne	.L48
 798              		.loc 1 325 7 view .LVU256
 799 0024 012A     		cmp	r2, #1
 800 0026 2ED1     		bne	.L52
 801              		.loc 1 326 7 view .LVU257
 802 0028 0129     		cmp	r1, #1
 803 002a 01D0     		beq	.L56
 804              		.loc 1 328 12 view .LVU258
 805 002c 1046     		mov	r0, r2
 806              	.LVL42:
 807              		.loc 1 328 12 view .LVU259
 808 002e 29E0     		b	.L48
 809              	.LVL43:
 810              	.L56:
 811              		.loc 1 332 3 is_stmt 1 view .LVU260
 812 0030 0223     		movs	r3, #2
 813              	.LVL44:
 814              		.loc 1 332 3 is_stmt 0 view .LVU261
 815 0032 84F83E30 		strb	r3, [r4, #62]
 816              		.loc 1 333 3 is_stmt 1 view .LVU262
ARM GAS  C:\Users\Ika\AppData\Local\Temp\ccf6m5Fc.s 			page 15


 817 0036 84F83F30 		strb	r3, [r4, #63]
 818              		.loc 1 334 3 view .LVU263
 819 003a 84F84230 		strb	r3, [r4, #66]
 820              		.loc 1 335 3 view .LVU264
 821 003e 84F84330 		strb	r3, [r4, #67]
 822              		.loc 1 339 3 view .LVU265
 823 0042 0021     		movs	r1, #0
 824              	.LVL45:
 825              		.loc 1 339 3 is_stmt 0 view .LVU266
 826 0044 2068     		ldr	r0, [r4]
 827              	.LVL46:
 828              		.loc 1 339 3 view .LVU267
 829 0046 FFF7FEFF 		bl	TIM_CCxChannelCmd
 830              	.LVL47:
 831              		.loc 1 342 3 is_stmt 1 view .LVU268
 832              		.loc 1 342 7 is_stmt 0 view .LVU269
 833 004a 2368     		ldr	r3, [r4]
 834              		.loc 1 342 6 view .LVU270
 835 004c 104A     		ldr	r2, .L57
 836 004e 9342     		cmp	r3, r2
 837 0050 0CD0     		beq	.L49
 838              		.loc 1 342 7 discriminator 1 view .LVU271
 839 0052 B3F1804F 		cmp	r3, #1073741824
 840 0056 09D0     		beq	.L49
 841              		.loc 1 342 7 discriminator 2 view .LVU272
 842 0058 A2F59432 		sub	r2, r2, #75776
 843 005c 9342     		cmp	r3, r2
 844 005e 05D0     		beq	.L49
 845              		.loc 1 352 5 is_stmt 1 view .LVU273
 846 0060 1A68     		ldr	r2, [r3]
 847 0062 42F00102 		orr	r2, r2, #1
 848 0066 1A60     		str	r2, [r3]
 849              		.loc 1 356 10 is_stmt 0 view .LVU274
 850 0068 0020     		movs	r0, #0
 851 006a 0BE0     		b	.L48
 852              	.L49:
 853              		.loc 1 344 5 is_stmt 1 view .LVU275
 854              		.loc 1 344 29 is_stmt 0 view .LVU276
 855 006c 9A68     		ldr	r2, [r3, #8]
 856              		.loc 1 344 13 view .LVU277
 857 006e 02F00702 		and	r2, r2, #7
 858              	.LVL48:
 859              		.loc 1 345 5 is_stmt 1 view .LVU278
 860              		.loc 1 345 8 is_stmt 0 view .LVU279
 861 0072 062A     		cmp	r2, #6
 862 0074 09D0     		beq	.L54
 863              		.loc 1 347 7 is_stmt 1 view .LVU280
 864 0076 1A68     		ldr	r2, [r3]
 865              	.LVL49:
 866              		.loc 1 347 7 is_stmt 0 view .LVU281
 867 0078 42F00102 		orr	r2, r2, #1
 868 007c 1A60     		str	r2, [r3]
 869              		.loc 1 356 10 view .LVU282
 870 007e 0020     		movs	r0, #0
 871 0080 00E0     		b	.L48
 872              	.LVL50:
 873              	.L51:
ARM GAS  C:\Users\Ika\AppData\Local\Temp\ccf6m5Fc.s 			page 16


 874              		.loc 1 328 12 view .LVU283
 875 0082 0120     		movs	r0, #1
 876              	.LVL51:
 877              	.L48:
 878              		.loc 1 357 1 view .LVU284
 879 0084 10BD     		pop	{r4, pc}
 880              	.LVL52:
 881              	.L52:
 882              		.loc 1 328 12 view .LVU285
 883 0086 1846     		mov	r0, r3
 884              	.LVL53:
 885              		.loc 1 328 12 view .LVU286
 886 0088 FCE7     		b	.L48
 887              	.LVL54:
 888              	.L54:
 889              		.loc 1 356 10 view .LVU287
 890 008a 0020     		movs	r0, #0
 891 008c FAE7     		b	.L48
 892              	.L58:
 893 008e 00BF     		.align	2
 894              	.L57:
 895 0090 002C0140 		.word	1073818624
 896              		.cfi_endproc
 897              	.LFE69:
 899              		.section	.text.HAL_TIMEx_HallSensor_Stop,"ax",%progbits
 900              		.align	1
 901              		.global	HAL_TIMEx_HallSensor_Stop
 902              		.syntax unified
 903              		.thumb
 904              		.thumb_func
 905              		.fpu softvfp
 907              	HAL_TIMEx_HallSensor_Stop:
 908              	.LVL55:
 909              	.LFB70:
 910              		.loc 1 365 1 is_stmt 1 view -0
 911              		.cfi_startproc
 912              		@ args = 0, pretend = 0, frame = 0
 913              		@ frame_needed = 0, uses_anonymous_args = 0
 914              		.loc 1 365 1 is_stmt 0 view .LVU289
 915 0000 10B5     		push	{r4, lr}
 916              	.LCFI13:
 917              		.cfi_def_cfa_offset 8
 918              		.cfi_offset 4, -8
 919              		.cfi_offset 14, -4
 920 0002 0446     		mov	r4, r0
 921              		.loc 1 367 3 is_stmt 1 view .LVU290
 922              		.loc 1 371 3 view .LVU291
 923 0004 0022     		movs	r2, #0
 924 0006 1146     		mov	r1, r2
 925 0008 0068     		ldr	r0, [r0]
 926              	.LVL56:
 927              		.loc 1 371 3 is_stmt 0 view .LVU292
 928 000a FFF7FEFF 		bl	TIM_CCxChannelCmd
 929              	.LVL57:
 930              		.loc 1 374 3 is_stmt 1 view .LVU293
 931              		.loc 1 374 3 view .LVU294
 932 000e 2368     		ldr	r3, [r4]
ARM GAS  C:\Users\Ika\AppData\Local\Temp\ccf6m5Fc.s 			page 17


 933 0010 196A     		ldr	r1, [r3, #32]
 934 0012 41F21112 		movw	r2, #4369
 935 0016 1142     		tst	r1, r2
 936 0018 08D1     		bne	.L60
 937              		.loc 1 374 3 discriminator 1 view .LVU295
 938 001a 196A     		ldr	r1, [r3, #32]
 939 001c 40F24442 		movw	r2, #1092
 940 0020 1142     		tst	r1, r2
 941 0022 03D1     		bne	.L60
 942              		.loc 1 374 3 discriminator 3 view .LVU296
 943 0024 1A68     		ldr	r2, [r3]
 944 0026 22F00102 		bic	r2, r2, #1
 945 002a 1A60     		str	r2, [r3]
 946              	.L60:
 947              		.loc 1 374 3 discriminator 5 view .LVU297
 948              		.loc 1 377 3 discriminator 5 view .LVU298
 949 002c 0123     		movs	r3, #1
 950 002e 84F83E30 		strb	r3, [r4, #62]
 951              		.loc 1 378 3 discriminator 5 view .LVU299
 952 0032 84F83F30 		strb	r3, [r4, #63]
 953              		.loc 1 379 3 discriminator 5 view .LVU300
 954 0036 84F84230 		strb	r3, [r4, #66]
 955              		.loc 1 380 3 discriminator 5 view .LVU301
 956 003a 84F84330 		strb	r3, [r4, #67]
 957              		.loc 1 383 3 discriminator 5 view .LVU302
 958              		.loc 1 384 1 is_stmt 0 discriminator 5 view .LVU303
 959 003e 0020     		movs	r0, #0
 960 0040 10BD     		pop	{r4, pc}
 961              		.loc 1 384 1 discriminator 5 view .LVU304
 962              		.cfi_endproc
 963              	.LFE70:
 965              		.section	.text.HAL_TIMEx_HallSensor_Start_IT,"ax",%progbits
 966              		.align	1
 967              		.global	HAL_TIMEx_HallSensor_Start_IT
 968              		.syntax unified
 969              		.thumb
 970              		.thumb_func
 971              		.fpu softvfp
 973              	HAL_TIMEx_HallSensor_Start_IT:
 974              	.LVL58:
 975              	.LFB71:
 976              		.loc 1 392 1 is_stmt 1 view -0
 977              		.cfi_startproc
 978              		@ args = 0, pretend = 0, frame = 0
 979              		@ frame_needed = 0, uses_anonymous_args = 0
 980              		.loc 1 392 1 is_stmt 0 view .LVU306
 981 0000 10B5     		push	{r4, lr}
 982              	.LCFI14:
 983              		.cfi_def_cfa_offset 8
 984              		.cfi_offset 4, -8
 985              		.cfi_offset 14, -4
 986 0002 0446     		mov	r4, r0
 987              		.loc 1 393 3 is_stmt 1 view .LVU307
 988              		.loc 1 394 3 view .LVU308
 989              		.loc 1 394 31 is_stmt 0 view .LVU309
 990 0004 90F83E00 		ldrb	r0, [r0, #62]	@ zero_extendqisi2
 991              	.LVL59:
ARM GAS  C:\Users\Ika\AppData\Local\Temp\ccf6m5Fc.s 			page 18


 992              		.loc 1 394 31 view .LVU310
 993 0008 C0B2     		uxtb	r0, r0
 994              	.LVL60:
 995              		.loc 1 395 3 is_stmt 1 view .LVU311
 996              		.loc 1 395 31 is_stmt 0 view .LVU312
 997 000a 94F83F30 		ldrb	r3, [r4, #63]	@ zero_extendqisi2
 998              	.LVL61:
 999              		.loc 1 396 3 is_stmt 1 view .LVU313
 1000              		.loc 1 396 31 is_stmt 0 view .LVU314
 1001 000e 94F84220 		ldrb	r2, [r4, #66]	@ zero_extendqisi2
 1002              	.LVL62:
 1003              		.loc 1 397 3 is_stmt 1 view .LVU315
 1004              		.loc 1 397 31 is_stmt 0 view .LVU316
 1005 0012 94F84310 		ldrb	r1, [r4, #67]	@ zero_extendqisi2
 1006              	.LVL63:
 1007              		.loc 1 400 3 is_stmt 1 view .LVU317
 1008              		.loc 1 403 3 view .LVU318
 1009              		.loc 1 403 6 is_stmt 0 view .LVU319
 1010 0016 0128     		cmp	r0, #1
 1011 0018 39D1     		bne	.L66
 1012 001a DBB2     		uxtb	r3, r3
 1013              		.loc 1 403 6 view .LVU320
 1014 001c D2B2     		uxtb	r2, r2
 1015              		.loc 1 403 6 view .LVU321
 1016 001e C9B2     		uxtb	r1, r1
 1017              		.loc 1 404 7 view .LVU322
 1018 0020 012B     		cmp	r3, #1
 1019 0022 35D1     		bne	.L63
 1020              		.loc 1 405 7 view .LVU323
 1021 0024 012A     		cmp	r2, #1
 1022 0026 34D1     		bne	.L67
 1023              		.loc 1 406 7 view .LVU324
 1024 0028 0129     		cmp	r1, #1
 1025 002a 01D0     		beq	.L71
 1026              		.loc 1 408 12 view .LVU325
 1027 002c 1046     		mov	r0, r2
 1028              	.LVL64:
 1029              		.loc 1 408 12 view .LVU326
 1030 002e 2FE0     		b	.L63
 1031              	.LVL65:
 1032              	.L71:
 1033              		.loc 1 412 3 is_stmt 1 view .LVU327
 1034 0030 0223     		movs	r3, #2
 1035              	.LVL66:
 1036              		.loc 1 412 3 is_stmt 0 view .LVU328
 1037 0032 84F83E30 		strb	r3, [r4, #62]
 1038              		.loc 1 413 3 is_stmt 1 view .LVU329
 1039 0036 84F83F30 		strb	r3, [r4, #63]
 1040              		.loc 1 414 3 view .LVU330
 1041 003a 84F84230 		strb	r3, [r4, #66]
 1042              		.loc 1 415 3 view .LVU331
 1043 003e 84F84330 		strb	r3, [r4, #67]
 1044              		.loc 1 418 3 view .LVU332
 1045 0042 2268     		ldr	r2, [r4]
 1046              	.LVL67:
 1047              		.loc 1 418 3 is_stmt 0 view .LVU333
 1048 0044 D368     		ldr	r3, [r2, #12]
ARM GAS  C:\Users\Ika\AppData\Local\Temp\ccf6m5Fc.s 			page 19


 1049 0046 43F00203 		orr	r3, r3, #2
 1050 004a D360     		str	r3, [r2, #12]
 1051              		.loc 1 422 3 is_stmt 1 view .LVU334
 1052 004c 0122     		movs	r2, #1
 1053 004e 0021     		movs	r1, #0
 1054              	.LVL68:
 1055              		.loc 1 422 3 is_stmt 0 view .LVU335
 1056 0050 2068     		ldr	r0, [r4]
 1057              	.LVL69:
 1058              		.loc 1 422 3 view .LVU336
 1059 0052 FFF7FEFF 		bl	TIM_CCxChannelCmd
 1060              	.LVL70:
 1061              		.loc 1 425 3 is_stmt 1 view .LVU337
 1062              		.loc 1 425 7 is_stmt 0 view .LVU338
 1063 0056 2368     		ldr	r3, [r4]
 1064              		.loc 1 425 6 view .LVU339
 1065 0058 104A     		ldr	r2, .L72
 1066 005a 9342     		cmp	r3, r2
 1067 005c 0CD0     		beq	.L64
 1068              		.loc 1 425 7 discriminator 1 view .LVU340
 1069 005e B3F1804F 		cmp	r3, #1073741824
 1070 0062 09D0     		beq	.L64
 1071              		.loc 1 425 7 discriminator 2 view .LVU341
 1072 0064 A2F59432 		sub	r2, r2, #75776
 1073 0068 9342     		cmp	r3, r2
 1074 006a 05D0     		beq	.L64
 1075              		.loc 1 435 5 is_stmt 1 view .LVU342
 1076 006c 1A68     		ldr	r2, [r3]
 1077 006e 42F00102 		orr	r2, r2, #1
 1078 0072 1A60     		str	r2, [r3]
 1079              		.loc 1 439 10 is_stmt 0 view .LVU343
 1080 0074 0020     		movs	r0, #0
 1081 0076 0BE0     		b	.L63
 1082              	.L64:
 1083              		.loc 1 427 5 is_stmt 1 view .LVU344
 1084              		.loc 1 427 29 is_stmt 0 view .LVU345
 1085 0078 9A68     		ldr	r2, [r3, #8]
 1086              		.loc 1 427 13 view .LVU346
 1087 007a 02F00702 		and	r2, r2, #7
 1088              	.LVL71:
 1089              		.loc 1 428 5 is_stmt 1 view .LVU347
 1090              		.loc 1 428 8 is_stmt 0 view .LVU348
 1091 007e 062A     		cmp	r2, #6
 1092 0080 09D0     		beq	.L69
 1093              		.loc 1 430 7 is_stmt 1 view .LVU349
 1094 0082 1A68     		ldr	r2, [r3]
 1095              	.LVL72:
 1096              		.loc 1 430 7 is_stmt 0 view .LVU350
 1097 0084 42F00102 		orr	r2, r2, #1
 1098 0088 1A60     		str	r2, [r3]
 1099              		.loc 1 439 10 view .LVU351
 1100 008a 0020     		movs	r0, #0
 1101 008c 00E0     		b	.L63
 1102              	.LVL73:
 1103              	.L66:
 1104              		.loc 1 408 12 view .LVU352
 1105 008e 0120     		movs	r0, #1
ARM GAS  C:\Users\Ika\AppData\Local\Temp\ccf6m5Fc.s 			page 20


 1106              	.LVL74:
 1107              	.L63:
 1108              		.loc 1 440 1 view .LVU353
 1109 0090 10BD     		pop	{r4, pc}
 1110              	.LVL75:
 1111              	.L67:
 1112              		.loc 1 408 12 view .LVU354
 1113 0092 1846     		mov	r0, r3
 1114              	.LVL76:
 1115              		.loc 1 408 12 view .LVU355
 1116 0094 FCE7     		b	.L63
 1117              	.LVL77:
 1118              	.L69:
 1119              		.loc 1 439 10 view .LVU356
 1120 0096 0020     		movs	r0, #0
 1121 0098 FAE7     		b	.L63
 1122              	.L73:
 1123 009a 00BF     		.align	2
 1124              	.L72:
 1125 009c 002C0140 		.word	1073818624
 1126              		.cfi_endproc
 1127              	.LFE71:
 1129              		.section	.text.HAL_TIMEx_HallSensor_Stop_IT,"ax",%progbits
 1130              		.align	1
 1131              		.global	HAL_TIMEx_HallSensor_Stop_IT
 1132              		.syntax unified
 1133              		.thumb
 1134              		.thumb_func
 1135              		.fpu softvfp
 1137              	HAL_TIMEx_HallSensor_Stop_IT:
 1138              	.LVL78:
 1139              	.LFB72:
 1140              		.loc 1 448 1 is_stmt 1 view -0
 1141              		.cfi_startproc
 1142              		@ args = 0, pretend = 0, frame = 0
 1143              		@ frame_needed = 0, uses_anonymous_args = 0
 1144              		.loc 1 448 1 is_stmt 0 view .LVU358
 1145 0000 10B5     		push	{r4, lr}
 1146              	.LCFI15:
 1147              		.cfi_def_cfa_offset 8
 1148              		.cfi_offset 4, -8
 1149              		.cfi_offset 14, -4
 1150 0002 0446     		mov	r4, r0
 1151              		.loc 1 450 3 is_stmt 1 view .LVU359
 1152              		.loc 1 454 3 view .LVU360
 1153 0004 0022     		movs	r2, #0
 1154 0006 1146     		mov	r1, r2
 1155 0008 0068     		ldr	r0, [r0]
 1156              	.LVL79:
 1157              		.loc 1 454 3 is_stmt 0 view .LVU361
 1158 000a FFF7FEFF 		bl	TIM_CCxChannelCmd
 1159              	.LVL80:
 1160              		.loc 1 457 3 is_stmt 1 view .LVU362
 1161 000e 2268     		ldr	r2, [r4]
 1162 0010 D368     		ldr	r3, [r2, #12]
 1163 0012 23F00203 		bic	r3, r3, #2
 1164 0016 D360     		str	r3, [r2, #12]
ARM GAS  C:\Users\Ika\AppData\Local\Temp\ccf6m5Fc.s 			page 21


 1165              		.loc 1 460 3 view .LVU363
 1166              		.loc 1 460 3 view .LVU364
 1167 0018 2368     		ldr	r3, [r4]
 1168 001a 196A     		ldr	r1, [r3, #32]
 1169 001c 41F21112 		movw	r2, #4369
 1170 0020 1142     		tst	r1, r2
 1171 0022 08D1     		bne	.L75
 1172              		.loc 1 460 3 discriminator 1 view .LVU365
 1173 0024 196A     		ldr	r1, [r3, #32]
 1174 0026 40F24442 		movw	r2, #1092
 1175 002a 1142     		tst	r1, r2
 1176 002c 03D1     		bne	.L75
 1177              		.loc 1 460 3 discriminator 3 view .LVU366
 1178 002e 1A68     		ldr	r2, [r3]
 1179 0030 22F00102 		bic	r2, r2, #1
 1180 0034 1A60     		str	r2, [r3]
 1181              	.L75:
 1182              		.loc 1 460 3 discriminator 5 view .LVU367
 1183              		.loc 1 463 3 discriminator 5 view .LVU368
 1184 0036 0123     		movs	r3, #1
 1185 0038 84F83E30 		strb	r3, [r4, #62]
 1186              		.loc 1 464 3 discriminator 5 view .LVU369
 1187 003c 84F83F30 		strb	r3, [r4, #63]
 1188              		.loc 1 465 3 discriminator 5 view .LVU370
 1189 0040 84F84230 		strb	r3, [r4, #66]
 1190              		.loc 1 466 3 discriminator 5 view .LVU371
 1191 0044 84F84330 		strb	r3, [r4, #67]
 1192              		.loc 1 469 3 discriminator 5 view .LVU372
 1193              		.loc 1 470 1 is_stmt 0 discriminator 5 view .LVU373
 1194 0048 0020     		movs	r0, #0
 1195 004a 10BD     		pop	{r4, pc}
 1196              		.loc 1 470 1 discriminator 5 view .LVU374
 1197              		.cfi_endproc
 1198              	.LFE72:
 1200              		.section	.text.HAL_TIMEx_HallSensor_Start_DMA,"ax",%progbits
 1201              		.align	1
 1202              		.global	HAL_TIMEx_HallSensor_Start_DMA
 1203              		.syntax unified
 1204              		.thumb
 1205              		.thumb_func
 1206              		.fpu softvfp
 1208              	HAL_TIMEx_HallSensor_Start_DMA:
 1209              	.LVL81:
 1210              	.LFB73:
 1211              		.loc 1 480 1 is_stmt 1 view -0
 1212              		.cfi_startproc
 1213              		@ args = 0, pretend = 0, frame = 0
 1214              		@ frame_needed = 0, uses_anonymous_args = 0
 1215              		.loc 1 480 1 is_stmt 0 view .LVU376
 1216 0000 F8B5     		push	{r3, r4, r5, r6, r7, lr}
 1217              	.LCFI16:
 1218              		.cfi_def_cfa_offset 24
 1219              		.cfi_offset 3, -24
 1220              		.cfi_offset 4, -20
 1221              		.cfi_offset 5, -16
 1222              		.cfi_offset 6, -12
 1223              		.cfi_offset 7, -8
ARM GAS  C:\Users\Ika\AppData\Local\Temp\ccf6m5Fc.s 			page 22


 1224              		.cfi_offset 14, -4
 1225 0002 0446     		mov	r4, r0
 1226              		.loc 1 481 3 is_stmt 1 view .LVU377
 1227              		.loc 1 482 3 view .LVU378
 1228              		.loc 1 482 31 is_stmt 0 view .LVU379
 1229 0004 90F83E30 		ldrb	r3, [r0, #62]	@ zero_extendqisi2
 1230 0008 D8B2     		uxtb	r0, r3
 1231              	.LVL82:
 1232              		.loc 1 483 3 is_stmt 1 view .LVU380
 1233              		.loc 1 483 31 is_stmt 0 view .LVU381
 1234 000a 94F84230 		ldrb	r3, [r4, #66]	@ zero_extendqisi2
 1235              	.LVL83:
 1236              		.loc 1 486 3 is_stmt 1 view .LVU382
 1237              		.loc 1 489 3 view .LVU383
 1238              		.loc 1 489 6 is_stmt 0 view .LVU384
 1239 000e 0228     		cmp	r0, #2
 1240 0010 4BD0     		beq	.L78
 1241 0012 0F46     		mov	r7, r1
 1242 0014 1646     		mov	r6, r2
 1243 0016 DDB2     		uxtb	r5, r3
 1244              		.loc 1 490 7 view .LVU385
 1245 0018 022D     		cmp	r5, #2
 1246 001a 43D0     		beq	.L82
 1247              		.loc 1 494 8 is_stmt 1 view .LVU386
 1248              		.loc 1 494 11 is_stmt 0 view .LVU387
 1249 001c 0128     		cmp	r0, #1
 1250 001e 43D1     		bne	.L83
 1251              		.loc 1 495 12 view .LVU388
 1252 0020 012D     		cmp	r5, #1
 1253 0022 42D1     		bne	.L78
 1254              		.loc 1 497 5 is_stmt 1 view .LVU389
 1255              		.loc 1 497 8 is_stmt 0 view .LVU390
 1256 0024 0029     		cmp	r1, #0
 1257 0026 2FD0     		beq	.L87
 1258              	.L79:
 1259              		.loc 1 503 7 is_stmt 1 view .LVU391
 1260 0028 0223     		movs	r3, #2
 1261              	.LVL84:
 1262              		.loc 1 503 7 is_stmt 0 view .LVU392
 1263 002a 84F83E30 		strb	r3, [r4, #62]
 1264              		.loc 1 504 7 is_stmt 1 view .LVU393
 1265 002e 84F84230 		strb	r3, [r4, #66]
 1266              		.loc 1 514 3 view .LVU394
 1267 0032 0122     		movs	r2, #1
 1268              	.LVL85:
 1269              		.loc 1 514 3 is_stmt 0 view .LVU395
 1270 0034 0021     		movs	r1, #0
 1271              	.LVL86:
 1272              		.loc 1 514 3 view .LVU396
 1273 0036 2068     		ldr	r0, [r4]
 1274              	.LVL87:
 1275              		.loc 1 514 3 view .LVU397
 1276 0038 FFF7FEFF 		bl	TIM_CCxChannelCmd
 1277              	.LVL88:
 1278              		.loc 1 517 3 is_stmt 1 view .LVU398
 1279              		.loc 1 517 13 is_stmt 0 view .LVU399
 1280 003c 636A     		ldr	r3, [r4, #36]
ARM GAS  C:\Users\Ika\AppData\Local\Temp\ccf6m5Fc.s 			page 23


 1281              		.loc 1 517 48 view .LVU400
 1282 003e 1C4A     		ldr	r2, .L88
 1283 0040 9A62     		str	r2, [r3, #40]
 1284              		.loc 1 518 3 is_stmt 1 view .LVU401
 1285              		.loc 1 518 13 is_stmt 0 view .LVU402
 1286 0042 636A     		ldr	r3, [r4, #36]
 1287              		.loc 1 518 52 view .LVU403
 1288 0044 1B4A     		ldr	r2, .L88+4
 1289 0046 DA62     		str	r2, [r3, #44]
 1290              		.loc 1 520 3 is_stmt 1 view .LVU404
 1291              		.loc 1 520 13 is_stmt 0 view .LVU405
 1292 0048 636A     		ldr	r3, [r4, #36]
 1293              		.loc 1 520 49 view .LVU406
 1294 004a 1B4A     		ldr	r2, .L88+8
 1295 004c 1A63     		str	r2, [r3, #48]
 1296              		.loc 1 523 3 is_stmt 1 view .LVU407
 1297              		.loc 1 523 67 is_stmt 0 view .LVU408
 1298 004e 2168     		ldr	r1, [r4]
 1299              		.loc 1 523 7 view .LVU409
 1300 0050 3346     		mov	r3, r6
 1301 0052 3A46     		mov	r2, r7
 1302 0054 3431     		adds	r1, r1, #52
 1303 0056 606A     		ldr	r0, [r4, #36]
 1304 0058 FFF7FEFF 		bl	HAL_DMA_Start_IT
 1305              	.LVL89:
 1306              		.loc 1 523 6 view .LVU410
 1307 005c 30BB     		cbnz	r0, .L85
 1308              		.loc 1 529 3 is_stmt 1 view .LVU411
 1309 005e 2268     		ldr	r2, [r4]
 1310 0060 D368     		ldr	r3, [r2, #12]
 1311 0062 43F40073 		orr	r3, r3, #512
 1312 0066 D360     		str	r3, [r2, #12]
 1313              		.loc 1 532 3 view .LVU412
 1314              		.loc 1 532 7 is_stmt 0 view .LVU413
 1315 0068 2368     		ldr	r3, [r4]
 1316              		.loc 1 532 6 view .LVU414
 1317 006a 144A     		ldr	r2, .L88+12
 1318 006c 9342     		cmp	r3, r2
 1319 006e 0FD0     		beq	.L80
 1320              		.loc 1 532 7 discriminator 1 view .LVU415
 1321 0070 B3F1804F 		cmp	r3, #1073741824
 1322 0074 0CD0     		beq	.L80
 1323              		.loc 1 532 7 discriminator 2 view .LVU416
 1324 0076 A2F59432 		sub	r2, r2, #75776
 1325 007a 9342     		cmp	r3, r2
 1326 007c 08D0     		beq	.L80
 1327              		.loc 1 542 5 is_stmt 1 view .LVU417
 1328 007e 1A68     		ldr	r2, [r3]
 1329 0080 42F00102 		orr	r2, r2, #1
 1330 0084 1A60     		str	r2, [r3]
 1331 0086 10E0     		b	.L78
 1332              	.LVL90:
 1333              	.L87:
 1334              		.loc 1 497 25 is_stmt 0 discriminator 1 view .LVU418
 1335 0088 002A     		cmp	r2, #0
 1336 008a CDD0     		beq	.L79
 1337              		.loc 1 499 14 view .LVU419
ARM GAS  C:\Users\Ika\AppData\Local\Temp\ccf6m5Fc.s 			page 24


 1338 008c 2846     		mov	r0, r5
 1339              	.LVL91:
 1340              		.loc 1 499 14 view .LVU420
 1341 008e 0CE0     		b	.L78
 1342              	.LVL92:
 1343              	.L80:
 1344              		.loc 1 534 5 is_stmt 1 view .LVU421
 1345              		.loc 1 534 29 is_stmt 0 view .LVU422
 1346 0090 9A68     		ldr	r2, [r3, #8]
 1347              		.loc 1 534 13 view .LVU423
 1348 0092 02F00702 		and	r2, r2, #7
 1349              	.LVL93:
 1350              		.loc 1 535 5 is_stmt 1 view .LVU424
 1351              		.loc 1 535 8 is_stmt 0 view .LVU425
 1352 0096 062A     		cmp	r2, #6
 1353 0098 07D0     		beq	.L78
 1354              		.loc 1 537 7 is_stmt 1 view .LVU426
 1355 009a 1A68     		ldr	r2, [r3]
 1356              	.LVL94:
 1357              		.loc 1 537 7 is_stmt 0 view .LVU427
 1358 009c 42F00102 		orr	r2, r2, #1
 1359 00a0 1A60     		str	r2, [r3]
 1360 00a2 02E0     		b	.L78
 1361              	.LVL95:
 1362              	.L82:
 1363              		.loc 1 492 12 view .LVU428
 1364 00a4 2846     		mov	r0, r5
 1365              	.LVL96:
 1366              		.loc 1 492 12 view .LVU429
 1367 00a6 00E0     		b	.L78
 1368              	.LVL97:
 1369              	.L83:
 1370              		.loc 1 509 12 view .LVU430
 1371 00a8 0120     		movs	r0, #1
 1372              	.LVL98:
 1373              	.L78:
 1374              		.loc 1 547 1 view .LVU431
 1375 00aa F8BD     		pop	{r3, r4, r5, r6, r7, pc}
 1376              	.LVL99:
 1377              	.L85:
 1378              		.loc 1 526 12 view .LVU432
 1379 00ac 2846     		mov	r0, r5
 1380 00ae FCE7     		b	.L78
 1381              	.L89:
 1382              		.align	2
 1383              	.L88:
 1384 00b0 00000000 		.word	TIM_DMACaptureCplt
 1385 00b4 00000000 		.word	TIM_DMACaptureHalfCplt
 1386 00b8 00000000 		.word	TIM_DMAError
 1387 00bc 002C0140 		.word	1073818624
 1388              		.cfi_endproc
 1389              	.LFE73:
 1391              		.section	.text.HAL_TIMEx_HallSensor_Stop_DMA,"ax",%progbits
 1392              		.align	1
 1393              		.global	HAL_TIMEx_HallSensor_Stop_DMA
 1394              		.syntax unified
 1395              		.thumb
ARM GAS  C:\Users\Ika\AppData\Local\Temp\ccf6m5Fc.s 			page 25


 1396              		.thumb_func
 1397              		.fpu softvfp
 1399              	HAL_TIMEx_HallSensor_Stop_DMA:
 1400              	.LVL100:
 1401              	.LFB74:
 1402              		.loc 1 555 1 is_stmt 1 view -0
 1403              		.cfi_startproc
 1404              		@ args = 0, pretend = 0, frame = 0
 1405              		@ frame_needed = 0, uses_anonymous_args = 0
 1406              		.loc 1 555 1 is_stmt 0 view .LVU434
 1407 0000 10B5     		push	{r4, lr}
 1408              	.LCFI17:
 1409              		.cfi_def_cfa_offset 8
 1410              		.cfi_offset 4, -8
 1411              		.cfi_offset 14, -4
 1412 0002 0446     		mov	r4, r0
 1413              		.loc 1 557 3 is_stmt 1 view .LVU435
 1414              		.loc 1 561 3 view .LVU436
 1415 0004 0022     		movs	r2, #0
 1416 0006 1146     		mov	r1, r2
 1417 0008 0068     		ldr	r0, [r0]
 1418              	.LVL101:
 1419              		.loc 1 561 3 is_stmt 0 view .LVU437
 1420 000a FFF7FEFF 		bl	TIM_CCxChannelCmd
 1421              	.LVL102:
 1422              		.loc 1 565 3 is_stmt 1 view .LVU438
 1423 000e 2268     		ldr	r2, [r4]
 1424 0010 D368     		ldr	r3, [r2, #12]
 1425 0012 23F40073 		bic	r3, r3, #512
 1426 0016 D360     		str	r3, [r2, #12]
 1427              		.loc 1 567 3 view .LVU439
 1428              		.loc 1 567 9 is_stmt 0 view .LVU440
 1429 0018 606A     		ldr	r0, [r4, #36]
 1430 001a FFF7FEFF 		bl	HAL_DMA_Abort_IT
 1431              	.LVL103:
 1432              		.loc 1 570 3 is_stmt 1 view .LVU441
 1433              		.loc 1 570 3 view .LVU442
 1434 001e 2368     		ldr	r3, [r4]
 1435 0020 196A     		ldr	r1, [r3, #32]
 1436 0022 41F21112 		movw	r2, #4369
 1437 0026 1142     		tst	r1, r2
 1438 0028 08D1     		bne	.L91
 1439              		.loc 1 570 3 discriminator 1 view .LVU443
 1440 002a 196A     		ldr	r1, [r3, #32]
 1441 002c 40F24442 		movw	r2, #1092
 1442 0030 1142     		tst	r1, r2
 1443 0032 03D1     		bne	.L91
 1444              		.loc 1 570 3 discriminator 3 view .LVU444
 1445 0034 1A68     		ldr	r2, [r3]
 1446 0036 22F00102 		bic	r2, r2, #1
 1447 003a 1A60     		str	r2, [r3]
 1448              	.L91:
 1449              		.loc 1 570 3 discriminator 5 view .LVU445
 1450              		.loc 1 573 3 discriminator 5 view .LVU446
 1451 003c 0123     		movs	r3, #1
 1452 003e 84F83E30 		strb	r3, [r4, #62]
 1453              		.loc 1 574 3 discriminator 5 view .LVU447
ARM GAS  C:\Users\Ika\AppData\Local\Temp\ccf6m5Fc.s 			page 26


 1454 0042 84F84230 		strb	r3, [r4, #66]
 1455              		.loc 1 577 3 discriminator 5 view .LVU448
 1456              		.loc 1 578 1 is_stmt 0 discriminator 5 view .LVU449
 1457 0046 0020     		movs	r0, #0
 1458 0048 10BD     		pop	{r4, pc}
 1459              		.loc 1 578 1 discriminator 5 view .LVU450
 1460              		.cfi_endproc
 1461              	.LFE74:
 1463              		.section	.text.HAL_TIMEx_OCN_Start,"ax",%progbits
 1464              		.align	1
 1465              		.global	HAL_TIMEx_OCN_Start
 1466              		.syntax unified
 1467              		.thumb
 1468              		.thumb_func
 1469              		.fpu softvfp
 1471              	HAL_TIMEx_OCN_Start:
 1472              	.LVL104:
 1473              	.LFB75:
 1474              		.loc 1 616 1 is_stmt 1 view -0
 1475              		.cfi_startproc
 1476              		@ args = 0, pretend = 0, frame = 0
 1477              		@ frame_needed = 0, uses_anonymous_args = 0
 1478              		.loc 1 616 1 is_stmt 0 view .LVU452
 1479 0000 10B5     		push	{r4, lr}
 1480              	.LCFI18:
 1481              		.cfi_def_cfa_offset 8
 1482              		.cfi_offset 4, -8
 1483              		.cfi_offset 14, -4
 1484 0002 0446     		mov	r4, r0
 1485              		.loc 1 617 3 is_stmt 1 view .LVU453
 1486              		.loc 1 620 3 view .LVU454
 1487              		.loc 1 623 3 view .LVU455
 1488              		.loc 1 623 46 is_stmt 0 view .LVU456
 1489 0004 0846     		mov	r0, r1
 1490              	.LVL105:
 1491              		.loc 1 623 46 view .LVU457
 1492 0006 39BB     		cbnz	r1, .L94
 1493              		.loc 1 623 7 discriminator 1 view .LVU458
 1494 0008 94F84230 		ldrb	r3, [r4, #66]	@ zero_extendqisi2
 1495 000c DBB2     		uxtb	r3, r3
 1496              		.loc 1 623 46 discriminator 1 view .LVU459
 1497 000e 013B     		subs	r3, r3, #1
 1498 0010 18BF     		it	ne
 1499 0012 0123     		movne	r3, #1
 1500              	.L95:
 1501              		.loc 1 623 6 discriminator 12 view .LVU460
 1502 0014 002B     		cmp	r3, #0
 1503 0016 53D1     		bne	.L105
 1504              		.loc 1 629 3 is_stmt 1 view .LVU461
 1505 0018 0028     		cmp	r0, #0
 1506 001a 36D1     		bne	.L99
 1507              		.loc 1 629 3 is_stmt 0 discriminator 1 view .LVU462
 1508 001c 0223     		movs	r3, #2
 1509 001e 84F84230 		strb	r3, [r4, #66]
 1510              	.L100:
 1511              		.loc 1 632 3 is_stmt 1 view .LVU463
 1512 0022 0422     		movs	r2, #4
ARM GAS  C:\Users\Ika\AppData\Local\Temp\ccf6m5Fc.s 			page 27


 1513 0024 0146     		mov	r1, r0
 1514              	.LVL106:
 1515              		.loc 1 632 3 is_stmt 0 view .LVU464
 1516 0026 2068     		ldr	r0, [r4]
 1517              	.LVL107:
 1518              		.loc 1 632 3 view .LVU465
 1519 0028 FFF7FEFF 		bl	TIM_CCxNChannelCmd
 1520              	.LVL108:
 1521              		.loc 1 635 3 is_stmt 1 view .LVU466
 1522 002c 2268     		ldr	r2, [r4]
 1523 002e 536C     		ldr	r3, [r2, #68]
 1524 0030 43F40043 		orr	r3, r3, #32768
 1525 0034 5364     		str	r3, [r2, #68]
 1526              		.loc 1 638 3 view .LVU467
 1527              		.loc 1 638 7 is_stmt 0 view .LVU468
 1528 0036 2368     		ldr	r3, [r4]
 1529              		.loc 1 638 6 view .LVU469
 1530 0038 234A     		ldr	r2, .L112
 1531 003a 9342     		cmp	r3, r2
 1532 003c 35D0     		beq	.L103
 1533              		.loc 1 638 7 discriminator 1 view .LVU470
 1534 003e B3F1804F 		cmp	r3, #1073741824
 1535 0042 32D0     		beq	.L103
 1536              		.loc 1 638 7 discriminator 2 view .LVU471
 1537 0044 A2F59432 		sub	r2, r2, #75776
 1538 0048 9342     		cmp	r3, r2
 1539 004a 2ED0     		beq	.L103
 1540              		.loc 1 648 5 is_stmt 1 view .LVU472
 1541 004c 1A68     		ldr	r2, [r3]
 1542 004e 42F00102 		orr	r2, r2, #1
 1543 0052 1A60     		str	r2, [r3]
 1544              		.loc 1 652 10 is_stmt 0 view .LVU473
 1545 0054 0020     		movs	r0, #0
 1546 0056 34E0     		b	.L98
 1547              	.LVL109:
 1548              	.L94:
 1549              		.loc 1 623 46 discriminator 2 view .LVU474
 1550 0058 0429     		cmp	r1, #4
 1551 005a 08D0     		beq	.L108
 1552              		.loc 1 623 46 discriminator 5 view .LVU475
 1553 005c 0829     		cmp	r1, #8
 1554 005e 0DD0     		beq	.L109
 1555              		.loc 1 623 7 discriminator 8 view .LVU476
 1556 0060 94F84530 		ldrb	r3, [r4, #69]	@ zero_extendqisi2
 1557 0064 DBB2     		uxtb	r3, r3
 1558              		.loc 1 623 46 discriminator 8 view .LVU477
 1559 0066 013B     		subs	r3, r3, #1
 1560 0068 18BF     		it	ne
 1561 006a 0123     		movne	r3, #1
 1562 006c D2E7     		b	.L95
 1563              	.L108:
 1564              		.loc 1 623 7 discriminator 4 view .LVU478
 1565 006e 94F84330 		ldrb	r3, [r4, #67]	@ zero_extendqisi2
 1566 0072 DBB2     		uxtb	r3, r3
 1567              		.loc 1 623 46 discriminator 4 view .LVU479
 1568 0074 013B     		subs	r3, r3, #1
 1569 0076 18BF     		it	ne
ARM GAS  C:\Users\Ika\AppData\Local\Temp\ccf6m5Fc.s 			page 28


 1570 0078 0123     		movne	r3, #1
 1571 007a CBE7     		b	.L95
 1572              	.L109:
 1573              		.loc 1 623 7 discriminator 7 view .LVU480
 1574 007c 94F84430 		ldrb	r3, [r4, #68]	@ zero_extendqisi2
 1575 0080 DBB2     		uxtb	r3, r3
 1576              		.loc 1 623 46 discriminator 7 view .LVU481
 1577 0082 013B     		subs	r3, r3, #1
 1578 0084 18BF     		it	ne
 1579 0086 0123     		movne	r3, #1
 1580 0088 C4E7     		b	.L95
 1581              	.L99:
 1582              		.loc 1 629 3 discriminator 2 view .LVU482
 1583 008a 0428     		cmp	r0, #4
 1584 008c 05D0     		beq	.L110
 1585              		.loc 1 629 3 discriminator 4 view .LVU483
 1586 008e 0828     		cmp	r0, #8
 1587 0090 07D0     		beq	.L111
 1588              		.loc 1 629 3 discriminator 7 view .LVU484
 1589 0092 0223     		movs	r3, #2
 1590 0094 84F84530 		strb	r3, [r4, #69]
 1591 0098 C3E7     		b	.L100
 1592              	.L110:
 1593              		.loc 1 629 3 discriminator 3 view .LVU485
 1594 009a 0223     		movs	r3, #2
 1595 009c 84F84330 		strb	r3, [r4, #67]
 1596 00a0 BFE7     		b	.L100
 1597              	.L111:
 1598              		.loc 1 629 3 discriminator 6 view .LVU486
 1599 00a2 0223     		movs	r3, #2
 1600 00a4 84F84430 		strb	r3, [r4, #68]
 1601 00a8 BBE7     		b	.L100
 1602              	.LVL110:
 1603              	.L103:
 1604              		.loc 1 640 5 is_stmt 1 view .LVU487
 1605              		.loc 1 640 29 is_stmt 0 view .LVU488
 1606 00aa 9A68     		ldr	r2, [r3, #8]
 1607              		.loc 1 640 13 view .LVU489
 1608 00ac 02F00702 		and	r2, r2, #7
 1609              	.LVL111:
 1610              		.loc 1 641 5 is_stmt 1 view .LVU490
 1611              		.loc 1 641 8 is_stmt 0 view .LVU491
 1612 00b0 062A     		cmp	r2, #6
 1613 00b2 07D0     		beq	.L106
 1614              		.loc 1 643 7 is_stmt 1 view .LVU492
 1615 00b4 1A68     		ldr	r2, [r3]
 1616              	.LVL112:
 1617              		.loc 1 643 7 is_stmt 0 view .LVU493
 1618 00b6 42F00102 		orr	r2, r2, #1
 1619 00ba 1A60     		str	r2, [r3]
 1620              		.loc 1 652 10 view .LVU494
 1621 00bc 0020     		movs	r0, #0
 1622 00be 00E0     		b	.L98
 1623              	.LVL113:
 1624              	.L105:
 1625              		.loc 1 625 12 view .LVU495
 1626 00c0 0120     		movs	r0, #1
ARM GAS  C:\Users\Ika\AppData\Local\Temp\ccf6m5Fc.s 			page 29


 1627              	.LVL114:
 1628              	.L98:
 1629              		.loc 1 653 1 view .LVU496
 1630 00c2 10BD     		pop	{r4, pc}
 1631              	.LVL115:
 1632              	.L106:
 1633              		.loc 1 652 10 view .LVU497
 1634 00c4 0020     		movs	r0, #0
 1635 00c6 FCE7     		b	.L98
 1636              	.L113:
 1637              		.align	2
 1638              	.L112:
 1639 00c8 002C0140 		.word	1073818624
 1640              		.cfi_endproc
 1641              	.LFE75:
 1643              		.section	.text.HAL_TIMEx_OCN_Stop,"ax",%progbits
 1644              		.align	1
 1645              		.global	HAL_TIMEx_OCN_Stop
 1646              		.syntax unified
 1647              		.thumb
 1648              		.thumb_func
 1649              		.fpu softvfp
 1651              	HAL_TIMEx_OCN_Stop:
 1652              	.LVL116:
 1653              	.LFB76:
 1654              		.loc 1 667 1 is_stmt 1 view -0
 1655              		.cfi_startproc
 1656              		@ args = 0, pretend = 0, frame = 0
 1657              		@ frame_needed = 0, uses_anonymous_args = 0
 1658              		.loc 1 667 1 is_stmt 0 view .LVU499
 1659 0000 38B5     		push	{r3, r4, r5, lr}
 1660              	.LCFI19:
 1661              		.cfi_def_cfa_offset 16
 1662              		.cfi_offset 3, -16
 1663              		.cfi_offset 4, -12
 1664              		.cfi_offset 5, -8
 1665              		.cfi_offset 14, -4
 1666 0002 0446     		mov	r4, r0
 1667 0004 0D46     		mov	r5, r1
 1668              		.loc 1 669 3 is_stmt 1 view .LVU500
 1669              		.loc 1 672 3 view .LVU501
 1670 0006 0022     		movs	r2, #0
 1671 0008 0068     		ldr	r0, [r0]
 1672              	.LVL117:
 1673              		.loc 1 672 3 is_stmt 0 view .LVU502
 1674 000a FFF7FEFF 		bl	TIM_CCxNChannelCmd
 1675              	.LVL118:
 1676              		.loc 1 675 3 is_stmt 1 view .LVU503
 1677              		.loc 1 675 3 view .LVU504
 1678 000e 2368     		ldr	r3, [r4]
 1679 0010 196A     		ldr	r1, [r3, #32]
 1680 0012 41F21112 		movw	r2, #4369
 1681 0016 1142     		tst	r1, r2
 1682 0018 08D1     		bne	.L115
 1683              		.loc 1 675 3 discriminator 1 view .LVU505
 1684 001a 196A     		ldr	r1, [r3, #32]
 1685 001c 40F24442 		movw	r2, #1092
ARM GAS  C:\Users\Ika\AppData\Local\Temp\ccf6m5Fc.s 			page 30


 1686 0020 1142     		tst	r1, r2
 1687 0022 03D1     		bne	.L115
 1688              		.loc 1 675 3 discriminator 3 view .LVU506
 1689 0024 5A6C     		ldr	r2, [r3, #68]
 1690 0026 22F40042 		bic	r2, r2, #32768
 1691 002a 5A64     		str	r2, [r3, #68]
 1692              	.L115:
 1693              		.loc 1 675 3 discriminator 5 view .LVU507
 1694              		.loc 1 678 3 discriminator 5 view .LVU508
 1695              		.loc 1 678 3 discriminator 5 view .LVU509
 1696 002c 2368     		ldr	r3, [r4]
 1697 002e 196A     		ldr	r1, [r3, #32]
 1698 0030 41F21112 		movw	r2, #4369
 1699 0034 1142     		tst	r1, r2
 1700 0036 08D1     		bne	.L116
 1701              		.loc 1 678 3 discriminator 1 view .LVU510
 1702 0038 196A     		ldr	r1, [r3, #32]
 1703 003a 40F24442 		movw	r2, #1092
 1704 003e 1142     		tst	r1, r2
 1705 0040 03D1     		bne	.L116
 1706              		.loc 1 678 3 discriminator 3 view .LVU511
 1707 0042 1A68     		ldr	r2, [r3]
 1708 0044 22F00102 		bic	r2, r2, #1
 1709 0048 1A60     		str	r2, [r3]
 1710              	.L116:
 1711              		.loc 1 678 3 discriminator 5 view .LVU512
 1712              		.loc 1 681 3 discriminator 5 view .LVU513
 1713 004a 25B9     		cbnz	r5, .L117
 1714              		.loc 1 681 3 is_stmt 0 discriminator 1 view .LVU514
 1715 004c 0123     		movs	r3, #1
 1716 004e 84F84230 		strb	r3, [r4, #66]
 1717              	.L118:
 1718              		.loc 1 684 3 is_stmt 1 view .LVU515
 1719              		.loc 1 685 1 is_stmt 0 view .LVU516
 1720 0052 0020     		movs	r0, #0
 1721 0054 38BD     		pop	{r3, r4, r5, pc}
 1722              	.LVL119:
 1723              	.L117:
 1724              		.loc 1 681 3 discriminator 2 view .LVU517
 1725 0056 042D     		cmp	r5, #4
 1726 0058 05D0     		beq	.L122
 1727              		.loc 1 681 3 discriminator 4 view .LVU518
 1728 005a 082D     		cmp	r5, #8
 1729 005c 07D0     		beq	.L123
 1730              		.loc 1 681 3 discriminator 7 view .LVU519
 1731 005e 0123     		movs	r3, #1
 1732 0060 84F84530 		strb	r3, [r4, #69]
 1733 0064 F5E7     		b	.L118
 1734              	.L122:
 1735              		.loc 1 681 3 discriminator 3 view .LVU520
 1736 0066 0123     		movs	r3, #1
 1737 0068 84F84330 		strb	r3, [r4, #67]
 1738 006c F1E7     		b	.L118
 1739              	.L123:
 1740              		.loc 1 681 3 discriminator 6 view .LVU521
 1741 006e 0123     		movs	r3, #1
 1742 0070 84F84430 		strb	r3, [r4, #68]
ARM GAS  C:\Users\Ika\AppData\Local\Temp\ccf6m5Fc.s 			page 31


 1743 0074 EDE7     		b	.L118
 1744              		.cfi_endproc
 1745              	.LFE76:
 1747              		.section	.text.HAL_TIMEx_OCN_Start_IT,"ax",%progbits
 1748              		.align	1
 1749              		.global	HAL_TIMEx_OCN_Start_IT
 1750              		.syntax unified
 1751              		.thumb
 1752              		.thumb_func
 1753              		.fpu softvfp
 1755              	HAL_TIMEx_OCN_Start_IT:
 1756              	.LVL120:
 1757              	.LFB77:
 1758              		.loc 1 699 1 is_stmt 1 view -0
 1759              		.cfi_startproc
 1760              		@ args = 0, pretend = 0, frame = 0
 1761              		@ frame_needed = 0, uses_anonymous_args = 0
 1762              		.loc 1 699 1 is_stmt 0 view .LVU523
 1763 0000 10B5     		push	{r4, lr}
 1764              	.LCFI20:
 1765              		.cfi_def_cfa_offset 8
 1766              		.cfi_offset 4, -8
 1767              		.cfi_offset 14, -4
 1768 0002 0446     		mov	r4, r0
 1769              		.loc 1 700 3 is_stmt 1 view .LVU524
 1770              		.loc 1 703 3 view .LVU525
 1771              		.loc 1 706 3 view .LVU526
 1772              		.loc 1 706 46 is_stmt 0 view .LVU527
 1773 0004 0846     		mov	r0, r1
 1774              	.LVL121:
 1775              		.loc 1 706 46 view .LVU528
 1776 0006 0029     		cmp	r1, #0
 1777 0008 32D1     		bne	.L125
 1778              		.loc 1 706 7 discriminator 1 view .LVU529
 1779 000a 94F84230 		ldrb	r3, [r4, #66]	@ zero_extendqisi2
 1780 000e DBB2     		uxtb	r3, r3
 1781              		.loc 1 706 46 discriminator 1 view .LVU530
 1782 0010 013B     		subs	r3, r3, #1
 1783 0012 18BF     		it	ne
 1784 0014 0123     		movne	r3, #1
 1785              	.L126:
 1786              		.loc 1 706 6 discriminator 12 view .LVU531
 1787 0016 002B     		cmp	r3, #0
 1788 0018 70D1     		bne	.L139
 1789              		.loc 1 712 3 is_stmt 1 view .LVU532
 1790 001a 0028     		cmp	r0, #0
 1791 001c 41D1     		bne	.L130
 1792              		.loc 1 712 3 is_stmt 0 discriminator 1 view .LVU533
 1793 001e 0223     		movs	r3, #2
 1794 0020 84F84230 		strb	r3, [r4, #66]
 1795              	.L131:
 1796              		.loc 1 714 3 is_stmt 1 view .LVU534
 1797 0024 0428     		cmp	r0, #4
 1798 0026 52D0     		beq	.L134
 1799 0028 0828     		cmp	r0, #8
 1800 002a 56D0     		beq	.L135
 1801 002c 0028     		cmp	r0, #0
ARM GAS  C:\Users\Ika\AppData\Local\Temp\ccf6m5Fc.s 			page 32


 1802 002e 48D0     		beq	.L142
 1803              	.L136:
 1804              		.loc 1 743 3 view .LVU535
 1805 0030 2268     		ldr	r2, [r4]
 1806 0032 D368     		ldr	r3, [r2, #12]
 1807 0034 43F08003 		orr	r3, r3, #128
 1808 0038 D360     		str	r3, [r2, #12]
 1809              		.loc 1 746 3 view .LVU536
 1810 003a 0422     		movs	r2, #4
 1811 003c 0146     		mov	r1, r0
 1812              	.LVL122:
 1813              		.loc 1 746 3 is_stmt 0 view .LVU537
 1814 003e 2068     		ldr	r0, [r4]
 1815              	.LVL123:
 1816              		.loc 1 746 3 view .LVU538
 1817 0040 FFF7FEFF 		bl	TIM_CCxNChannelCmd
 1818              	.LVL124:
 1819              		.loc 1 749 3 is_stmt 1 view .LVU539
 1820 0044 2268     		ldr	r2, [r4]
 1821 0046 536C     		ldr	r3, [r2, #68]
 1822 0048 43F40043 		orr	r3, r3, #32768
 1823 004c 5364     		str	r3, [r2, #68]
 1824              		.loc 1 752 3 view .LVU540
 1825              		.loc 1 752 7 is_stmt 0 view .LVU541
 1826 004e 2368     		ldr	r3, [r4]
 1827              		.loc 1 752 6 view .LVU542
 1828 0050 2C4A     		ldr	r2, .L147
 1829 0052 9342     		cmp	r3, r2
 1830 0054 47D0     		beq	.L137
 1831              		.loc 1 752 7 discriminator 1 view .LVU543
 1832 0056 B3F1804F 		cmp	r3, #1073741824
 1833 005a 44D0     		beq	.L137
 1834              		.loc 1 752 7 discriminator 2 view .LVU544
 1835 005c A2F59432 		sub	r2, r2, #75776
 1836 0060 9342     		cmp	r3, r2
 1837 0062 40D0     		beq	.L137
 1838              		.loc 1 762 5 is_stmt 1 view .LVU545
 1839 0064 1A68     		ldr	r2, [r3]
 1840 0066 42F00102 		orr	r2, r2, #1
 1841 006a 1A60     		str	r2, [r3]
 1842              		.loc 1 766 10 is_stmt 0 view .LVU546
 1843 006c 0020     		movs	r0, #0
 1844 006e 46E0     		b	.L129
 1845              	.LVL125:
 1846              	.L125:
 1847              		.loc 1 706 46 discriminator 2 view .LVU547
 1848 0070 0429     		cmp	r1, #4
 1849 0072 08D0     		beq	.L143
 1850              		.loc 1 706 46 discriminator 5 view .LVU548
 1851 0074 0829     		cmp	r1, #8
 1852 0076 0DD0     		beq	.L144
 1853              		.loc 1 706 7 discriminator 8 view .LVU549
 1854 0078 94F84530 		ldrb	r3, [r4, #69]	@ zero_extendqisi2
 1855 007c DBB2     		uxtb	r3, r3
 1856              		.loc 1 706 46 discriminator 8 view .LVU550
 1857 007e 013B     		subs	r3, r3, #1
 1858 0080 18BF     		it	ne
ARM GAS  C:\Users\Ika\AppData\Local\Temp\ccf6m5Fc.s 			page 33


 1859 0082 0123     		movne	r3, #1
 1860 0084 C7E7     		b	.L126
 1861              	.L143:
 1862              		.loc 1 706 7 discriminator 4 view .LVU551
 1863 0086 94F84330 		ldrb	r3, [r4, #67]	@ zero_extendqisi2
 1864 008a DBB2     		uxtb	r3, r3
 1865              		.loc 1 706 46 discriminator 4 view .LVU552
 1866 008c 013B     		subs	r3, r3, #1
 1867 008e 18BF     		it	ne
 1868 0090 0123     		movne	r3, #1
 1869 0092 C0E7     		b	.L126
 1870              	.L144:
 1871              		.loc 1 706 7 discriminator 7 view .LVU553
 1872 0094 94F84430 		ldrb	r3, [r4, #68]	@ zero_extendqisi2
 1873 0098 DBB2     		uxtb	r3, r3
 1874              		.loc 1 706 46 discriminator 7 view .LVU554
 1875 009a 013B     		subs	r3, r3, #1
 1876 009c 18BF     		it	ne
 1877 009e 0123     		movne	r3, #1
 1878 00a0 B9E7     		b	.L126
 1879              	.L130:
 1880              		.loc 1 712 3 discriminator 2 view .LVU555
 1881 00a2 0428     		cmp	r0, #4
 1882 00a4 05D0     		beq	.L145
 1883              		.loc 1 712 3 discriminator 4 view .LVU556
 1884 00a6 0828     		cmp	r0, #8
 1885 00a8 07D0     		beq	.L146
 1886              		.loc 1 712 3 discriminator 7 view .LVU557
 1887 00aa 0223     		movs	r3, #2
 1888 00ac 84F84530 		strb	r3, [r4, #69]
 1889 00b0 B8E7     		b	.L131
 1890              	.L145:
 1891              		.loc 1 712 3 discriminator 3 view .LVU558
 1892 00b2 0223     		movs	r3, #2
 1893 00b4 84F84330 		strb	r3, [r4, #67]
 1894 00b8 B4E7     		b	.L131
 1895              	.L146:
 1896              		.loc 1 712 3 discriminator 6 view .LVU559
 1897 00ba 0223     		movs	r3, #2
 1898 00bc 84F84430 		strb	r3, [r4, #68]
 1899 00c0 B0E7     		b	.L131
 1900              	.L142:
 1901              		.loc 1 719 7 is_stmt 1 view .LVU560
 1902 00c2 2268     		ldr	r2, [r4]
 1903 00c4 D368     		ldr	r3, [r2, #12]
 1904 00c6 43F00203 		orr	r3, r3, #2
 1905 00ca D360     		str	r3, [r2, #12]
 1906              		.loc 1 720 7 view .LVU561
 1907 00cc B0E7     		b	.L136
 1908              	.L134:
 1909              		.loc 1 726 7 view .LVU562
 1910 00ce 2268     		ldr	r2, [r4]
 1911 00d0 D368     		ldr	r3, [r2, #12]
 1912 00d2 43F00403 		orr	r3, r3, #4
 1913 00d6 D360     		str	r3, [r2, #12]
 1914              		.loc 1 727 7 view .LVU563
 1915 00d8 AAE7     		b	.L136
ARM GAS  C:\Users\Ika\AppData\Local\Temp\ccf6m5Fc.s 			page 34


 1916              	.L135:
 1917              		.loc 1 733 7 view .LVU564
 1918 00da 2268     		ldr	r2, [r4]
 1919 00dc D368     		ldr	r3, [r2, #12]
 1920 00de 43F00803 		orr	r3, r3, #8
 1921 00e2 D360     		str	r3, [r2, #12]
 1922              		.loc 1 734 7 view .LVU565
 1923 00e4 A4E7     		b	.L136
 1924              	.LVL126:
 1925              	.L137:
 1926              		.loc 1 754 5 view .LVU566
 1927              		.loc 1 754 29 is_stmt 0 view .LVU567
 1928 00e6 9A68     		ldr	r2, [r3, #8]
 1929              		.loc 1 754 13 view .LVU568
 1930 00e8 02F00702 		and	r2, r2, #7
 1931              	.LVL127:
 1932              		.loc 1 755 5 is_stmt 1 view .LVU569
 1933              		.loc 1 755 8 is_stmt 0 view .LVU570
 1934 00ec 062A     		cmp	r2, #6
 1935 00ee 07D0     		beq	.L140
 1936              		.loc 1 757 7 is_stmt 1 view .LVU571
 1937 00f0 1A68     		ldr	r2, [r3]
 1938              	.LVL128:
 1939              		.loc 1 757 7 is_stmt 0 view .LVU572
 1940 00f2 42F00102 		orr	r2, r2, #1
 1941 00f6 1A60     		str	r2, [r3]
 1942              		.loc 1 766 10 view .LVU573
 1943 00f8 0020     		movs	r0, #0
 1944 00fa 00E0     		b	.L129
 1945              	.LVL129:
 1946              	.L139:
 1947              		.loc 1 708 12 view .LVU574
 1948 00fc 0120     		movs	r0, #1
 1949              	.LVL130:
 1950              	.L129:
 1951              		.loc 1 767 1 view .LVU575
 1952 00fe 10BD     		pop	{r4, pc}
 1953              	.LVL131:
 1954              	.L140:
 1955              		.loc 1 766 10 view .LVU576
 1956 0100 0020     		movs	r0, #0
 1957 0102 FCE7     		b	.L129
 1958              	.L148:
 1959              		.align	2
 1960              	.L147:
 1961 0104 002C0140 		.word	1073818624
 1962              		.cfi_endproc
 1963              	.LFE77:
 1965              		.section	.text.HAL_TIMEx_OCN_Stop_IT,"ax",%progbits
 1966              		.align	1
 1967              		.global	HAL_TIMEx_OCN_Stop_IT
 1968              		.syntax unified
 1969              		.thumb
 1970              		.thumb_func
 1971              		.fpu softvfp
 1973              	HAL_TIMEx_OCN_Stop_IT:
 1974              	.LVL132:
ARM GAS  C:\Users\Ika\AppData\Local\Temp\ccf6m5Fc.s 			page 35


 1975              	.LFB78:
 1976              		.loc 1 781 1 is_stmt 1 view -0
 1977              		.cfi_startproc
 1978              		@ args = 0, pretend = 0, frame = 0
 1979              		@ frame_needed = 0, uses_anonymous_args = 0
 1980              		.loc 1 781 1 is_stmt 0 view .LVU578
 1981 0000 38B5     		push	{r3, r4, r5, lr}
 1982              	.LCFI21:
 1983              		.cfi_def_cfa_offset 16
 1984              		.cfi_offset 3, -16
 1985              		.cfi_offset 4, -12
 1986              		.cfi_offset 5, -8
 1987              		.cfi_offset 14, -4
 1988 0002 0546     		mov	r5, r0
 1989 0004 0C46     		mov	r4, r1
 1990              		.loc 1 782 3 is_stmt 1 view .LVU579
 1991              		.loc 1 784 3 view .LVU580
 1992              		.loc 1 786 3 view .LVU581
 1993 0006 0429     		cmp	r1, #4
 1994 0008 3CD0     		beq	.L150
 1995 000a 0829     		cmp	r1, #8
 1996 000c 40D0     		beq	.L151
 1997 000e 0029     		cmp	r1, #0
 1998 0010 32D0     		beq	.L161
 1999              	.L152:
 2000              		.loc 1 814 3 view .LVU582
 2001 0012 0022     		movs	r2, #0
 2002 0014 2146     		mov	r1, r4
 2003              	.LVL133:
 2004              		.loc 1 814 3 is_stmt 0 view .LVU583
 2005 0016 2868     		ldr	r0, [r5]
 2006              	.LVL134:
 2007              		.loc 1 814 3 view .LVU584
 2008 0018 FFF7FEFF 		bl	TIM_CCxNChannelCmd
 2009              	.LVL135:
 2010              		.loc 1 817 3 is_stmt 1 view .LVU585
 2011              		.loc 1 817 17 is_stmt 0 view .LVU586
 2012 001c 2B68     		ldr	r3, [r5]
 2013              		.loc 1 817 11 view .LVU587
 2014 001e 196A     		ldr	r1, [r3, #32]
 2015              	.LVL136:
 2016              		.loc 1 818 3 is_stmt 1 view .LVU588
 2017              		.loc 1 818 6 is_stmt 0 view .LVU589
 2018 0020 40F24442 		movw	r2, #1092
 2019 0024 1142     		tst	r1, r2
 2020 0026 03D1     		bne	.L153
 2021              		.loc 1 820 5 is_stmt 1 view .LVU590
 2022 0028 DA68     		ldr	r2, [r3, #12]
 2023 002a 22F08002 		bic	r2, r2, #128
 2024 002e DA60     		str	r2, [r3, #12]
 2025              	.L153:
 2026              		.loc 1 824 3 view .LVU591
 2027              		.loc 1 824 3 view .LVU592
 2028 0030 2B68     		ldr	r3, [r5]
 2029 0032 196A     		ldr	r1, [r3, #32]
 2030              	.LVL137:
 2031              		.loc 1 824 3 is_stmt 0 view .LVU593
ARM GAS  C:\Users\Ika\AppData\Local\Temp\ccf6m5Fc.s 			page 36


 2032 0034 41F21112 		movw	r2, #4369
 2033 0038 1142     		tst	r1, r2
 2034 003a 08D1     		bne	.L154
 2035              		.loc 1 824 3 is_stmt 1 discriminator 1 view .LVU594
 2036 003c 196A     		ldr	r1, [r3, #32]
 2037 003e 40F24442 		movw	r2, #1092
 2038 0042 1142     		tst	r1, r2
 2039 0044 03D1     		bne	.L154
 2040              		.loc 1 824 3 discriminator 3 view .LVU595
 2041 0046 5A6C     		ldr	r2, [r3, #68]
 2042 0048 22F40042 		bic	r2, r2, #32768
 2043 004c 5A64     		str	r2, [r3, #68]
 2044              	.L154:
 2045              		.loc 1 824 3 discriminator 5 view .LVU596
 2046              		.loc 1 827 3 discriminator 5 view .LVU597
 2047              		.loc 1 827 3 discriminator 5 view .LVU598
 2048 004e 2B68     		ldr	r3, [r5]
 2049 0050 196A     		ldr	r1, [r3, #32]
 2050 0052 41F21112 		movw	r2, #4369
 2051 0056 1142     		tst	r1, r2
 2052 0058 08D1     		bne	.L155
 2053              		.loc 1 827 3 discriminator 1 view .LVU599
 2054 005a 196A     		ldr	r1, [r3, #32]
 2055 005c 40F24442 		movw	r2, #1092
 2056 0060 1142     		tst	r1, r2
 2057 0062 03D1     		bne	.L155
 2058              		.loc 1 827 3 discriminator 3 view .LVU600
 2059 0064 1A68     		ldr	r2, [r3]
 2060 0066 22F00102 		bic	r2, r2, #1
 2061 006a 1A60     		str	r2, [r3]
 2062              	.L155:
 2063              		.loc 1 827 3 discriminator 5 view .LVU601
 2064              		.loc 1 830 3 discriminator 5 view .LVU602
 2065 006c B4B9     		cbnz	r4, .L156
 2066              		.loc 1 830 3 is_stmt 0 discriminator 1 view .LVU603
 2067 006e 0123     		movs	r3, #1
 2068 0070 85F84230 		strb	r3, [r5, #66]
 2069              	.L157:
 2070              		.loc 1 833 3 is_stmt 1 view .LVU604
 2071              		.loc 1 834 1 is_stmt 0 view .LVU605
 2072 0074 0020     		movs	r0, #0
 2073 0076 38BD     		pop	{r3, r4, r5, pc}
 2074              	.LVL138:
 2075              	.L161:
 2076              		.loc 1 791 7 is_stmt 1 view .LVU606
 2077 0078 0268     		ldr	r2, [r0]
 2078 007a D368     		ldr	r3, [r2, #12]
 2079 007c 23F00203 		bic	r3, r3, #2
 2080 0080 D360     		str	r3, [r2, #12]
 2081              		.loc 1 792 7 view .LVU607
 2082 0082 C6E7     		b	.L152
 2083              	.L150:
 2084              		.loc 1 798 7 view .LVU608
 2085 0084 0268     		ldr	r2, [r0]
 2086 0086 D368     		ldr	r3, [r2, #12]
 2087 0088 23F00403 		bic	r3, r3, #4
 2088 008c D360     		str	r3, [r2, #12]
ARM GAS  C:\Users\Ika\AppData\Local\Temp\ccf6m5Fc.s 			page 37


 2089              		.loc 1 799 7 view .LVU609
 2090 008e C0E7     		b	.L152
 2091              	.L151:
 2092              		.loc 1 805 7 view .LVU610
 2093 0090 0268     		ldr	r2, [r0]
 2094 0092 D368     		ldr	r3, [r2, #12]
 2095 0094 23F00803 		bic	r3, r3, #8
 2096 0098 D360     		str	r3, [r2, #12]
 2097              		.loc 1 806 7 view .LVU611
 2098 009a BAE7     		b	.L152
 2099              	.LVL139:
 2100              	.L156:
 2101              		.loc 1 830 3 is_stmt 0 discriminator 2 view .LVU612
 2102 009c 042C     		cmp	r4, #4
 2103 009e 05D0     		beq	.L162
 2104              		.loc 1 830 3 discriminator 4 view .LVU613
 2105 00a0 082C     		cmp	r4, #8
 2106 00a2 07D0     		beq	.L163
 2107              		.loc 1 830 3 discriminator 7 view .LVU614
 2108 00a4 0123     		movs	r3, #1
 2109 00a6 85F84530 		strb	r3, [r5, #69]
 2110 00aa E3E7     		b	.L157
 2111              	.L162:
 2112              		.loc 1 830 3 discriminator 3 view .LVU615
 2113 00ac 0123     		movs	r3, #1
 2114 00ae 85F84330 		strb	r3, [r5, #67]
 2115 00b2 DFE7     		b	.L157
 2116              	.L163:
 2117              		.loc 1 830 3 discriminator 6 view .LVU616
 2118 00b4 0123     		movs	r3, #1
 2119 00b6 85F84430 		strb	r3, [r5, #68]
 2120 00ba DBE7     		b	.L157
 2121              		.cfi_endproc
 2122              	.LFE78:
 2124              		.section	.text.HAL_TIMEx_OCN_Start_DMA,"ax",%progbits
 2125              		.align	1
 2126              		.global	HAL_TIMEx_OCN_Start_DMA
 2127              		.syntax unified
 2128              		.thumb
 2129              		.thumb_func
 2130              		.fpu softvfp
 2132              	HAL_TIMEx_OCN_Start_DMA:
 2133              	.LVL140:
 2134              	.LFB79:
 2135              		.loc 1 850 1 is_stmt 1 view -0
 2136              		.cfi_startproc
 2137              		@ args = 0, pretend = 0, frame = 0
 2138              		@ frame_needed = 0, uses_anonymous_args = 0
 2139              		.loc 1 850 1 is_stmt 0 view .LVU618
 2140 0000 70B5     		push	{r4, r5, r6, lr}
 2141              	.LCFI22:
 2142              		.cfi_def_cfa_offset 16
 2143              		.cfi_offset 4, -16
 2144              		.cfi_offset 5, -12
 2145              		.cfi_offset 6, -8
 2146              		.cfi_offset 14, -4
 2147 0002 0446     		mov	r4, r0
ARM GAS  C:\Users\Ika\AppData\Local\Temp\ccf6m5Fc.s 			page 38


 2148 0004 1646     		mov	r6, r2
 2149              		.loc 1 851 3 is_stmt 1 view .LVU619
 2150              		.loc 1 854 3 view .LVU620
 2151              		.loc 1 857 3 view .LVU621
 2152              		.loc 1 857 46 is_stmt 0 view .LVU622
 2153 0006 0D46     		mov	r5, r1
 2154 0008 0029     		cmp	r1, #0
 2155 000a 42D1     		bne	.L165
 2156              		.loc 1 857 7 discriminator 1 view .LVU623
 2157 000c 90F84200 		ldrb	r0, [r0, #66]	@ zero_extendqisi2
 2158              	.LVL141:
 2159              		.loc 1 857 7 discriminator 1 view .LVU624
 2160 0010 C0B2     		uxtb	r0, r0
 2161              		.loc 1 857 46 discriminator 1 view .LVU625
 2162 0012 0228     		cmp	r0, #2
 2163 0014 14BF     		ite	ne
 2164 0016 0020     		movne	r0, #0
 2165 0018 0120     		moveq	r0, #1
 2166              	.L166:
 2167              		.loc 1 857 6 discriminator 12 view .LVU626
 2168 001a 0028     		cmp	r0, #0
 2169 001c 40F0D480 		bne	.L184
 2170              		.loc 1 861 8 is_stmt 1 view .LVU627
 2171              		.loc 1 861 51 is_stmt 0 view .LVU628
 2172 0020 002D     		cmp	r5, #0
 2173 0022 52D1     		bne	.L170
 2174              		.loc 1 861 12 discriminator 1 view .LVU629
 2175 0024 94F84220 		ldrb	r2, [r4, #66]	@ zero_extendqisi2
 2176              	.LVL142:
 2177              		.loc 1 861 12 discriminator 1 view .LVU630
 2178 0028 D2B2     		uxtb	r2, r2
 2179              		.loc 1 861 51 discriminator 1 view .LVU631
 2180 002a 012A     		cmp	r2, #1
 2181 002c 14BF     		ite	ne
 2182 002e 0022     		movne	r2, #0
 2183 0030 0122     		moveq	r2, #1
 2184              	.L171:
 2185              		.loc 1 861 11 discriminator 12 view .LVU632
 2186 0032 002A     		cmp	r2, #0
 2187 0034 00F0CA80 		beq	.L185
 2188              		.loc 1 863 5 is_stmt 1 view .LVU633
 2189              		.loc 1 863 8 is_stmt 0 view .LVU634
 2190 0038 002E     		cmp	r6, #0
 2191 003a 62D0     		beq	.L192
 2192              	.L174:
 2193              		.loc 1 869 7 is_stmt 1 view .LVU635
 2194 003c 002D     		cmp	r5, #0
 2195 003e 64D1     		bne	.L175
 2196              		.loc 1 869 7 is_stmt 0 discriminator 1 view .LVU636
 2197 0040 0222     		movs	r2, #2
 2198 0042 84F84220 		strb	r2, [r4, #66]
 2199              	.L176:
 2200              		.loc 1 877 3 is_stmt 1 view .LVU637
 2201 0046 042D     		cmp	r5, #4
 2202 0048 00F08680 		beq	.L179
 2203 004c 082D     		cmp	r5, #8
 2204 004e 00F09A80 		beq	.L180
ARM GAS  C:\Users\Ika\AppData\Local\Temp\ccf6m5Fc.s 			page 39


 2205 0052 002D     		cmp	r5, #0
 2206 0054 69D0     		beq	.L193
 2207              	.LVL143:
 2208              	.L181:
 2209              		.loc 1 944 3 view .LVU638
 2210 0056 0422     		movs	r2, #4
 2211 0058 2946     		mov	r1, r5
 2212 005a 2068     		ldr	r0, [r4]
 2213 005c FFF7FEFF 		bl	TIM_CCxNChannelCmd
 2214              	.LVL144:
 2215              		.loc 1 947 3 view .LVU639
 2216 0060 2268     		ldr	r2, [r4]
 2217 0062 536C     		ldr	r3, [r2, #68]
 2218 0064 43F40043 		orr	r3, r3, #32768
 2219 0068 5364     		str	r3, [r2, #68]
 2220              		.loc 1 950 3 view .LVU640
 2221              		.loc 1 950 7 is_stmt 0 view .LVU641
 2222 006a 2368     		ldr	r3, [r4]
 2223              		.loc 1 950 6 view .LVU642
 2224 006c 5C4A     		ldr	r2, .L200
 2225 006e 9342     		cmp	r3, r2
 2226 0070 00F09F80 		beq	.L182
 2227              		.loc 1 950 7 discriminator 1 view .LVU643
 2228 0074 B3F1804F 		cmp	r3, #1073741824
 2229 0078 00F09B80 		beq	.L182
 2230              		.loc 1 950 7 discriminator 2 view .LVU644
 2231 007c A2F59432 		sub	r2, r2, #75776
 2232 0080 9342     		cmp	r3, r2
 2233 0082 00F09680 		beq	.L182
 2234              		.loc 1 960 5 is_stmt 1 view .LVU645
 2235 0086 1A68     		ldr	r2, [r3]
 2236 0088 42F00102 		orr	r2, r2, #1
 2237 008c 1A60     		str	r2, [r3]
 2238              		.loc 1 964 10 is_stmt 0 view .LVU646
 2239 008e 0020     		movs	r0, #0
 2240 0090 9DE0     		b	.L169
 2241              	.LVL145:
 2242              	.L165:
 2243              		.loc 1 857 46 discriminator 2 view .LVU647
 2244 0092 0429     		cmp	r1, #4
 2245 0094 09D0     		beq	.L194
 2246              		.loc 1 857 46 discriminator 5 view .LVU648
 2247 0096 0829     		cmp	r1, #8
 2248 0098 0FD0     		beq	.L195
 2249              		.loc 1 857 7 discriminator 8 view .LVU649
 2250 009a 90F84500 		ldrb	r0, [r0, #69]	@ zero_extendqisi2
 2251              	.LVL146:
 2252              		.loc 1 857 7 discriminator 8 view .LVU650
 2253 009e C0B2     		uxtb	r0, r0
 2254              		.loc 1 857 46 discriminator 8 view .LVU651
 2255 00a0 0228     		cmp	r0, #2
 2256 00a2 14BF     		ite	ne
 2257 00a4 0020     		movne	r0, #0
 2258 00a6 0120     		moveq	r0, #1
 2259 00a8 B7E7     		b	.L166
 2260              	.LVL147:
 2261              	.L194:
ARM GAS  C:\Users\Ika\AppData\Local\Temp\ccf6m5Fc.s 			page 40


 2262              		.loc 1 857 7 discriminator 4 view .LVU652
 2263 00aa 90F84300 		ldrb	r0, [r0, #67]	@ zero_extendqisi2
 2264              	.LVL148:
 2265              		.loc 1 857 7 discriminator 4 view .LVU653
 2266 00ae C0B2     		uxtb	r0, r0
 2267              		.loc 1 857 46 discriminator 4 view .LVU654
 2268 00b0 0228     		cmp	r0, #2
 2269 00b2 14BF     		ite	ne
 2270 00b4 0020     		movne	r0, #0
 2271 00b6 0120     		moveq	r0, #1
 2272 00b8 AFE7     		b	.L166
 2273              	.LVL149:
 2274              	.L195:
 2275              		.loc 1 857 7 discriminator 7 view .LVU655
 2276 00ba 90F84400 		ldrb	r0, [r0, #68]	@ zero_extendqisi2
 2277              	.LVL150:
 2278              		.loc 1 857 7 discriminator 7 view .LVU656
 2279 00be C0B2     		uxtb	r0, r0
 2280              		.loc 1 857 46 discriminator 7 view .LVU657
 2281 00c0 0228     		cmp	r0, #2
 2282 00c2 14BF     		ite	ne
 2283 00c4 0020     		movne	r0, #0
 2284 00c6 0120     		moveq	r0, #1
 2285 00c8 A7E7     		b	.L166
 2286              	.L170:
 2287              		.loc 1 861 51 discriminator 2 view .LVU658
 2288 00ca 042D     		cmp	r5, #4
 2289 00cc 09D0     		beq	.L196
 2290              		.loc 1 861 51 discriminator 5 view .LVU659
 2291 00ce 082D     		cmp	r5, #8
 2292 00d0 0FD0     		beq	.L197
 2293              		.loc 1 861 12 discriminator 8 view .LVU660
 2294 00d2 94F84520 		ldrb	r2, [r4, #69]	@ zero_extendqisi2
 2295              	.LVL151:
 2296              		.loc 1 861 12 discriminator 8 view .LVU661
 2297 00d6 D2B2     		uxtb	r2, r2
 2298              		.loc 1 861 51 discriminator 8 view .LVU662
 2299 00d8 012A     		cmp	r2, #1
 2300 00da 14BF     		ite	ne
 2301 00dc 0022     		movne	r2, #0
 2302 00de 0122     		moveq	r2, #1
 2303 00e0 A7E7     		b	.L171
 2304              	.LVL152:
 2305              	.L196:
 2306              		.loc 1 861 12 discriminator 4 view .LVU663
 2307 00e2 94F84320 		ldrb	r2, [r4, #67]	@ zero_extendqisi2
 2308              	.LVL153:
 2309              		.loc 1 861 12 discriminator 4 view .LVU664
 2310 00e6 D2B2     		uxtb	r2, r2
 2311              		.loc 1 861 51 discriminator 4 view .LVU665
 2312 00e8 012A     		cmp	r2, #1
 2313 00ea 14BF     		ite	ne
 2314 00ec 0022     		movne	r2, #0
 2315 00ee 0122     		moveq	r2, #1
 2316 00f0 9FE7     		b	.L171
 2317              	.LVL154:
 2318              	.L197:
ARM GAS  C:\Users\Ika\AppData\Local\Temp\ccf6m5Fc.s 			page 41


 2319              		.loc 1 861 12 discriminator 7 view .LVU666
 2320 00f2 94F84420 		ldrb	r2, [r4, #68]	@ zero_extendqisi2
 2321              	.LVL155:
 2322              		.loc 1 861 12 discriminator 7 view .LVU667
 2323 00f6 D2B2     		uxtb	r2, r2
 2324              		.loc 1 861 51 discriminator 7 view .LVU668
 2325 00f8 012A     		cmp	r2, #1
 2326 00fa 14BF     		ite	ne
 2327 00fc 0022     		movne	r2, #0
 2328 00fe 0122     		moveq	r2, #1
 2329 0100 97E7     		b	.L171
 2330              	.L192:
 2331              		.loc 1 863 25 discriminator 1 view .LVU669
 2332 0102 002B     		cmp	r3, #0
 2333 0104 9AD0     		beq	.L174
 2334              		.loc 1 865 14 view .LVU670
 2335 0106 0120     		movs	r0, #1
 2336 0108 61E0     		b	.L169
 2337              	.L175:
 2338              		.loc 1 869 7 discriminator 2 view .LVU671
 2339 010a 042D     		cmp	r5, #4
 2340 010c 05D0     		beq	.L198
 2341              		.loc 1 869 7 discriminator 4 view .LVU672
 2342 010e 082D     		cmp	r5, #8
 2343 0110 07D0     		beq	.L199
 2344              		.loc 1 869 7 discriminator 7 view .LVU673
 2345 0112 0222     		movs	r2, #2
 2346 0114 84F84520 		strb	r2, [r4, #69]
 2347 0118 95E7     		b	.L176
 2348              	.L198:
 2349              		.loc 1 869 7 discriminator 3 view .LVU674
 2350 011a 0222     		movs	r2, #2
 2351 011c 84F84320 		strb	r2, [r4, #67]
 2352 0120 91E7     		b	.L176
 2353              	.L199:
 2354              		.loc 1 869 7 discriminator 6 view .LVU675
 2355 0122 0222     		movs	r2, #2
 2356 0124 84F84420 		strb	r2, [r4, #68]
 2357 0128 8DE7     		b	.L176
 2358              	.L193:
 2359              		.loc 1 882 7 is_stmt 1 view .LVU676
 2360              		.loc 1 882 17 is_stmt 0 view .LVU677
 2361 012a 626A     		ldr	r2, [r4, #36]
 2362              		.loc 1 882 52 view .LVU678
 2363 012c 2D49     		ldr	r1, .L200+4
 2364              	.LVL156:
 2365              		.loc 1 882 52 view .LVU679
 2366 012e 9162     		str	r1, [r2, #40]
 2367              		.loc 1 883 7 is_stmt 1 view .LVU680
 2368              		.loc 1 883 17 is_stmt 0 view .LVU681
 2369 0130 626A     		ldr	r2, [r4, #36]
 2370              		.loc 1 883 56 view .LVU682
 2371 0132 2D49     		ldr	r1, .L200+8
 2372 0134 D162     		str	r1, [r2, #44]
 2373              		.loc 1 886 7 is_stmt 1 view .LVU683
 2374              		.loc 1 886 17 is_stmt 0 view .LVU684
 2375 0136 626A     		ldr	r2, [r4, #36]
ARM GAS  C:\Users\Ika\AppData\Local\Temp\ccf6m5Fc.s 			page 42


 2376              		.loc 1 886 53 view .LVU685
 2377 0138 2C49     		ldr	r1, .L200+12
 2378 013a 1163     		str	r1, [r2, #48]
 2379              		.loc 1 889 7 is_stmt 1 view .LVU686
 2380              		.loc 1 889 88 is_stmt 0 view .LVU687
 2381 013c 2268     		ldr	r2, [r4]
 2382              		.loc 1 889 11 view .LVU688
 2383 013e 3432     		adds	r2, r2, #52
 2384 0140 3146     		mov	r1, r6
 2385 0142 606A     		ldr	r0, [r4, #36]
 2386 0144 FFF7FEFF 		bl	HAL_DMA_Start_IT
 2387              	.LVL157:
 2388              		.loc 1 889 10 view .LVU689
 2389 0148 0028     		cmp	r0, #0
 2390 014a 41D1     		bne	.L187
 2391              		.loc 1 895 7 is_stmt 1 view .LVU690
 2392 014c 2268     		ldr	r2, [r4]
 2393 014e D368     		ldr	r3, [r2, #12]
 2394 0150 43F40073 		orr	r3, r3, #512
 2395 0154 D360     		str	r3, [r2, #12]
 2396              		.loc 1 896 7 view .LVU691
 2397 0156 7EE7     		b	.L181
 2398              	.LVL158:
 2399              	.L179:
 2400              		.loc 1 902 7 view .LVU692
 2401              		.loc 1 902 17 is_stmt 0 view .LVU693
 2402 0158 A26A     		ldr	r2, [r4, #40]
 2403              		.loc 1 902 52 view .LVU694
 2404 015a 2249     		ldr	r1, .L200+4
 2405              	.LVL159:
 2406              		.loc 1 902 52 view .LVU695
 2407 015c 9162     		str	r1, [r2, #40]
 2408              		.loc 1 903 7 is_stmt 1 view .LVU696
 2409              		.loc 1 903 17 is_stmt 0 view .LVU697
 2410 015e A26A     		ldr	r2, [r4, #40]
 2411              		.loc 1 903 56 view .LVU698
 2412 0160 2149     		ldr	r1, .L200+8
 2413 0162 D162     		str	r1, [r2, #44]
 2414              		.loc 1 906 7 is_stmt 1 view .LVU699
 2415              		.loc 1 906 17 is_stmt 0 view .LVU700
 2416 0164 A26A     		ldr	r2, [r4, #40]
 2417              		.loc 1 906 53 view .LVU701
 2418 0166 2149     		ldr	r1, .L200+12
 2419 0168 1163     		str	r1, [r2, #48]
 2420              		.loc 1 909 7 is_stmt 1 view .LVU702
 2421              		.loc 1 909 88 is_stmt 0 view .LVU703
 2422 016a 2268     		ldr	r2, [r4]
 2423              		.loc 1 909 11 view .LVU704
 2424 016c 3832     		adds	r2, r2, #56
 2425 016e 3146     		mov	r1, r6
 2426 0170 A06A     		ldr	r0, [r4, #40]
 2427 0172 FFF7FEFF 		bl	HAL_DMA_Start_IT
 2428              	.LVL160:
 2429              		.loc 1 909 10 view .LVU705
 2430 0176 0028     		cmp	r0, #0
 2431 0178 2CD1     		bne	.L188
 2432              		.loc 1 915 7 is_stmt 1 view .LVU706
ARM GAS  C:\Users\Ika\AppData\Local\Temp\ccf6m5Fc.s 			page 43


 2433 017a 2268     		ldr	r2, [r4]
 2434 017c D368     		ldr	r3, [r2, #12]
 2435 017e 43F48063 		orr	r3, r3, #1024
 2436 0182 D360     		str	r3, [r2, #12]
 2437              		.loc 1 916 7 view .LVU707
 2438 0184 67E7     		b	.L181
 2439              	.LVL161:
 2440              	.L180:
 2441              		.loc 1 922 7 view .LVU708
 2442              		.loc 1 922 17 is_stmt 0 view .LVU709
 2443 0186 E26A     		ldr	r2, [r4, #44]
 2444              		.loc 1 922 52 view .LVU710
 2445 0188 1649     		ldr	r1, .L200+4
 2446              	.LVL162:
 2447              		.loc 1 922 52 view .LVU711
 2448 018a 9162     		str	r1, [r2, #40]
 2449              		.loc 1 923 7 is_stmt 1 view .LVU712
 2450              		.loc 1 923 17 is_stmt 0 view .LVU713
 2451 018c E26A     		ldr	r2, [r4, #44]
 2452              		.loc 1 923 56 view .LVU714
 2453 018e 1649     		ldr	r1, .L200+8
 2454 0190 D162     		str	r1, [r2, #44]
 2455              		.loc 1 926 7 is_stmt 1 view .LVU715
 2456              		.loc 1 926 17 is_stmt 0 view .LVU716
 2457 0192 E26A     		ldr	r2, [r4, #44]
 2458              		.loc 1 926 53 view .LVU717
 2459 0194 1549     		ldr	r1, .L200+12
 2460 0196 1163     		str	r1, [r2, #48]
 2461              		.loc 1 929 7 is_stmt 1 view .LVU718
 2462              		.loc 1 929 88 is_stmt 0 view .LVU719
 2463 0198 2268     		ldr	r2, [r4]
 2464              		.loc 1 929 11 view .LVU720
 2465 019a 3C32     		adds	r2, r2, #60
 2466 019c 3146     		mov	r1, r6
 2467 019e E06A     		ldr	r0, [r4, #44]
 2468 01a0 FFF7FEFF 		bl	HAL_DMA_Start_IT
 2469              	.LVL163:
 2470              		.loc 1 929 10 view .LVU721
 2471 01a4 C0B9     		cbnz	r0, .L189
 2472              		.loc 1 935 7 is_stmt 1 view .LVU722
 2473 01a6 2268     		ldr	r2, [r4]
 2474 01a8 D368     		ldr	r3, [r2, #12]
 2475 01aa 43F40063 		orr	r3, r3, #2048
 2476 01ae D360     		str	r3, [r2, #12]
 2477              		.loc 1 936 7 view .LVU723
 2478 01b0 51E7     		b	.L181
 2479              	.L182:
 2480              		.loc 1 952 5 view .LVU724
 2481              		.loc 1 952 29 is_stmt 0 view .LVU725
 2482 01b2 9A68     		ldr	r2, [r3, #8]
 2483              		.loc 1 952 13 view .LVU726
 2484 01b4 02F00702 		and	r2, r2, #7
 2485              	.LVL164:
 2486              		.loc 1 953 5 is_stmt 1 view .LVU727
 2487              		.loc 1 953 8 is_stmt 0 view .LVU728
 2488 01b8 062A     		cmp	r2, #6
 2489 01ba 0FD0     		beq	.L190
ARM GAS  C:\Users\Ika\AppData\Local\Temp\ccf6m5Fc.s 			page 44


 2490              		.loc 1 955 7 is_stmt 1 view .LVU729
 2491 01bc 1A68     		ldr	r2, [r3]
 2492              	.LVL165:
 2493              		.loc 1 955 7 is_stmt 0 view .LVU730
 2494 01be 42F00102 		orr	r2, r2, #1
 2495 01c2 1A60     		str	r2, [r3]
 2496              		.loc 1 964 10 view .LVU731
 2497 01c4 0020     		movs	r0, #0
 2498 01c6 02E0     		b	.L169
 2499              	.LVL166:
 2500              	.L184:
 2501              		.loc 1 859 12 view .LVU732
 2502 01c8 0220     		movs	r0, #2
 2503 01ca 00E0     		b	.L169
 2504              	.LVL167:
 2505              	.L185:
 2506              		.loc 1 874 12 view .LVU733
 2507 01cc 0120     		movs	r0, #1
 2508              	.LVL168:
 2509              	.L169:
 2510              		.loc 1 965 1 view .LVU734
 2511 01ce 70BD     		pop	{r4, r5, r6, pc}
 2512              	.LVL169:
 2513              	.L187:
 2514              		.loc 1 892 16 view .LVU735
 2515 01d0 0120     		movs	r0, #1
 2516 01d2 FCE7     		b	.L169
 2517              	.L188:
 2518              		.loc 1 912 16 view .LVU736
 2519 01d4 0120     		movs	r0, #1
 2520 01d6 FAE7     		b	.L169
 2521              	.L189:
 2522              		.loc 1 932 16 view .LVU737
 2523 01d8 0120     		movs	r0, #1
 2524 01da F8E7     		b	.L169
 2525              	.LVL170:
 2526              	.L190:
 2527              		.loc 1 964 10 view .LVU738
 2528 01dc 0020     		movs	r0, #0
 2529 01de F6E7     		b	.L169
 2530              	.L201:
 2531              		.align	2
 2532              	.L200:
 2533 01e0 002C0140 		.word	1073818624
 2534 01e4 00000000 		.word	TIM_DMADelayPulseNCplt
 2535 01e8 00000000 		.word	TIM_DMADelayPulseHalfCplt
 2536 01ec 00000000 		.word	TIM_DMAErrorCCxN
 2537              		.cfi_endproc
 2538              	.LFE79:
 2540              		.section	.text.HAL_TIMEx_OCN_Stop_DMA,"ax",%progbits
 2541              		.align	1
 2542              		.global	HAL_TIMEx_OCN_Stop_DMA
 2543              		.syntax unified
 2544              		.thumb
 2545              		.thumb_func
 2546              		.fpu softvfp
 2548              	HAL_TIMEx_OCN_Stop_DMA:
ARM GAS  C:\Users\Ika\AppData\Local\Temp\ccf6m5Fc.s 			page 45


 2549              	.LVL171:
 2550              	.LFB80:
 2551              		.loc 1 979 1 is_stmt 1 view -0
 2552              		.cfi_startproc
 2553              		@ args = 0, pretend = 0, frame = 0
 2554              		@ frame_needed = 0, uses_anonymous_args = 0
 2555              		.loc 1 979 1 is_stmt 0 view .LVU740
 2556 0000 38B5     		push	{r3, r4, r5, lr}
 2557              	.LCFI23:
 2558              		.cfi_def_cfa_offset 16
 2559              		.cfi_offset 3, -16
 2560              		.cfi_offset 4, -12
 2561              		.cfi_offset 5, -8
 2562              		.cfi_offset 14, -4
 2563 0002 0546     		mov	r5, r0
 2564 0004 0C46     		mov	r4, r1
 2565              		.loc 1 981 3 is_stmt 1 view .LVU741
 2566              		.loc 1 983 3 view .LVU742
 2567 0006 0429     		cmp	r1, #4
 2568 0008 34D0     		beq	.L203
 2569 000a 0829     		cmp	r1, #8
 2570 000c 3BD0     		beq	.L204
 2571 000e 41B3     		cbz	r1, .L213
 2572              	.LVL172:
 2573              	.L205:
 2574              		.loc 1 1014 3 view .LVU743
 2575 0010 0022     		movs	r2, #0
 2576 0012 2146     		mov	r1, r4
 2577 0014 2868     		ldr	r0, [r5]
 2578 0016 FFF7FEFF 		bl	TIM_CCxNChannelCmd
 2579              	.LVL173:
 2580              		.loc 1 1017 3 view .LVU744
 2581              		.loc 1 1017 3 view .LVU745
 2582 001a 2B68     		ldr	r3, [r5]
 2583 001c 196A     		ldr	r1, [r3, #32]
 2584 001e 41F21112 		movw	r2, #4369
 2585 0022 1142     		tst	r1, r2
 2586 0024 08D1     		bne	.L206
 2587              		.loc 1 1017 3 discriminator 1 view .LVU746
 2588 0026 196A     		ldr	r1, [r3, #32]
 2589 0028 40F24442 		movw	r2, #1092
 2590 002c 1142     		tst	r1, r2
 2591 002e 03D1     		bne	.L206
 2592              		.loc 1 1017 3 discriminator 3 view .LVU747
 2593 0030 5A6C     		ldr	r2, [r3, #68]
 2594 0032 22F40042 		bic	r2, r2, #32768
 2595 0036 5A64     		str	r2, [r3, #68]
 2596              	.L206:
 2597              		.loc 1 1017 3 discriminator 5 view .LVU748
 2598              		.loc 1 1020 3 discriminator 5 view .LVU749
 2599              		.loc 1 1020 3 discriminator 5 view .LVU750
 2600 0038 2B68     		ldr	r3, [r5]
 2601 003a 196A     		ldr	r1, [r3, #32]
 2602 003c 41F21112 		movw	r2, #4369
 2603 0040 1142     		tst	r1, r2
 2604 0042 08D1     		bne	.L207
 2605              		.loc 1 1020 3 discriminator 1 view .LVU751
ARM GAS  C:\Users\Ika\AppData\Local\Temp\ccf6m5Fc.s 			page 46


 2606 0044 196A     		ldr	r1, [r3, #32]
 2607 0046 40F24442 		movw	r2, #1092
 2608 004a 1142     		tst	r1, r2
 2609 004c 03D1     		bne	.L207
 2610              		.loc 1 1020 3 discriminator 3 view .LVU752
 2611 004e 1A68     		ldr	r2, [r3]
 2612 0050 22F00102 		bic	r2, r2, #1
 2613 0054 1A60     		str	r2, [r3]
 2614              	.L207:
 2615              		.loc 1 1020 3 discriminator 5 view .LVU753
 2616              		.loc 1 1023 3 discriminator 5 view .LVU754
 2617 0056 FCB9     		cbnz	r4, .L208
 2618              		.loc 1 1023 3 is_stmt 0 discriminator 1 view .LVU755
 2619 0058 0123     		movs	r3, #1
 2620 005a 85F84230 		strb	r3, [r5, #66]
 2621              	.L209:
 2622              		.loc 1 1026 3 is_stmt 1 view .LVU756
 2623              		.loc 1 1027 1 is_stmt 0 view .LVU757
 2624 005e 0020     		movs	r0, #0
 2625 0060 38BD     		pop	{r3, r4, r5, pc}
 2626              	.LVL174:
 2627              	.L213:
 2628              		.loc 1 988 7 is_stmt 1 view .LVU758
 2629 0062 0268     		ldr	r2, [r0]
 2630 0064 D368     		ldr	r3, [r2, #12]
 2631 0066 23F40073 		bic	r3, r3, #512
 2632 006a D360     		str	r3, [r2, #12]
 2633              		.loc 1 989 7 view .LVU759
 2634              		.loc 1 989 13 is_stmt 0 view .LVU760
 2635 006c 406A     		ldr	r0, [r0, #36]
 2636              	.LVL175:
 2637              		.loc 1 989 13 view .LVU761
 2638 006e FFF7FEFF 		bl	HAL_DMA_Abort_IT
 2639              	.LVL176:
 2640              		.loc 1 990 7 is_stmt 1 view .LVU762
 2641 0072 CDE7     		b	.L205
 2642              	.LVL177:
 2643              	.L203:
 2644              		.loc 1 996 7 view .LVU763
 2645 0074 0268     		ldr	r2, [r0]
 2646 0076 D368     		ldr	r3, [r2, #12]
 2647 0078 23F48063 		bic	r3, r3, #1024
 2648 007c D360     		str	r3, [r2, #12]
 2649              		.loc 1 997 7 view .LVU764
 2650              		.loc 1 997 13 is_stmt 0 view .LVU765
 2651 007e 806A     		ldr	r0, [r0, #40]
 2652              	.LVL178:
 2653              		.loc 1 997 13 view .LVU766
 2654 0080 FFF7FEFF 		bl	HAL_DMA_Abort_IT
 2655              	.LVL179:
 2656              		.loc 1 998 7 is_stmt 1 view .LVU767
 2657 0084 C4E7     		b	.L205
 2658              	.LVL180:
 2659              	.L204:
 2660              		.loc 1 1004 7 view .LVU768
 2661 0086 0268     		ldr	r2, [r0]
 2662 0088 D368     		ldr	r3, [r2, #12]
ARM GAS  C:\Users\Ika\AppData\Local\Temp\ccf6m5Fc.s 			page 47


 2663 008a 23F40063 		bic	r3, r3, #2048
 2664 008e D360     		str	r3, [r2, #12]
 2665              		.loc 1 1005 7 view .LVU769
 2666              		.loc 1 1005 13 is_stmt 0 view .LVU770
 2667 0090 C06A     		ldr	r0, [r0, #44]
 2668              	.LVL181:
 2669              		.loc 1 1005 13 view .LVU771
 2670 0092 FFF7FEFF 		bl	HAL_DMA_Abort_IT
 2671              	.LVL182:
 2672              		.loc 1 1006 7 is_stmt 1 view .LVU772
 2673 0096 BBE7     		b	.L205
 2674              	.L208:
 2675              		.loc 1 1023 3 is_stmt 0 discriminator 2 view .LVU773
 2676 0098 042C     		cmp	r4, #4
 2677 009a 05D0     		beq	.L214
 2678              		.loc 1 1023 3 discriminator 4 view .LVU774
 2679 009c 082C     		cmp	r4, #8
 2680 009e 07D0     		beq	.L215
 2681              		.loc 1 1023 3 discriminator 7 view .LVU775
 2682 00a0 0123     		movs	r3, #1
 2683 00a2 85F84530 		strb	r3, [r5, #69]
 2684 00a6 DAE7     		b	.L209
 2685              	.L214:
 2686              		.loc 1 1023 3 discriminator 3 view .LVU776
 2687 00a8 0123     		movs	r3, #1
 2688 00aa 85F84330 		strb	r3, [r5, #67]
 2689 00ae D6E7     		b	.L209
 2690              	.L215:
 2691              		.loc 1 1023 3 discriminator 6 view .LVU777
 2692 00b0 0123     		movs	r3, #1
 2693 00b2 85F84430 		strb	r3, [r5, #68]
 2694 00b6 D2E7     		b	.L209
 2695              		.cfi_endproc
 2696              	.LFE80:
 2698              		.section	.text.HAL_TIMEx_PWMN_Start,"ax",%progbits
 2699              		.align	1
 2700              		.global	HAL_TIMEx_PWMN_Start
 2701              		.syntax unified
 2702              		.thumb
 2703              		.thumb_func
 2704              		.fpu softvfp
 2706              	HAL_TIMEx_PWMN_Start:
 2707              	.LVL183:
 2708              	.LFB81:
 2709              		.loc 1 1074 1 is_stmt 1 view -0
 2710              		.cfi_startproc
 2711              		@ args = 0, pretend = 0, frame = 0
 2712              		@ frame_needed = 0, uses_anonymous_args = 0
 2713              		.loc 1 1074 1 is_stmt 0 view .LVU779
 2714 0000 10B5     		push	{r4, lr}
 2715              	.LCFI24:
 2716              		.cfi_def_cfa_offset 8
 2717              		.cfi_offset 4, -8
 2718              		.cfi_offset 14, -4
 2719 0002 0446     		mov	r4, r0
 2720              		.loc 1 1075 3 is_stmt 1 view .LVU780
 2721              		.loc 1 1078 3 view .LVU781
ARM GAS  C:\Users\Ika\AppData\Local\Temp\ccf6m5Fc.s 			page 48


 2722              		.loc 1 1081 3 view .LVU782
 2723              		.loc 1 1081 46 is_stmt 0 view .LVU783
 2724 0004 0846     		mov	r0, r1
 2725              	.LVL184:
 2726              		.loc 1 1081 46 view .LVU784
 2727 0006 39BB     		cbnz	r1, .L217
 2728              		.loc 1 1081 7 discriminator 1 view .LVU785
 2729 0008 94F84230 		ldrb	r3, [r4, #66]	@ zero_extendqisi2
 2730 000c DBB2     		uxtb	r3, r3
 2731              		.loc 1 1081 46 discriminator 1 view .LVU786
 2732 000e 013B     		subs	r3, r3, #1
 2733 0010 18BF     		it	ne
 2734 0012 0123     		movne	r3, #1
 2735              	.L218:
 2736              		.loc 1 1081 6 discriminator 12 view .LVU787
 2737 0014 002B     		cmp	r3, #0
 2738 0016 53D1     		bne	.L228
 2739              		.loc 1 1087 3 is_stmt 1 view .LVU788
 2740 0018 0028     		cmp	r0, #0
 2741 001a 36D1     		bne	.L222
 2742              		.loc 1 1087 3 is_stmt 0 discriminator 1 view .LVU789
 2743 001c 0223     		movs	r3, #2
 2744 001e 84F84230 		strb	r3, [r4, #66]
 2745              	.L223:
 2746              		.loc 1 1090 3 is_stmt 1 view .LVU790
 2747 0022 0422     		movs	r2, #4
 2748 0024 0146     		mov	r1, r0
 2749              	.LVL185:
 2750              		.loc 1 1090 3 is_stmt 0 view .LVU791
 2751 0026 2068     		ldr	r0, [r4]
 2752              	.LVL186:
 2753              		.loc 1 1090 3 view .LVU792
 2754 0028 FFF7FEFF 		bl	TIM_CCxNChannelCmd
 2755              	.LVL187:
 2756              		.loc 1 1093 3 is_stmt 1 view .LVU793
 2757 002c 2268     		ldr	r2, [r4]
 2758 002e 536C     		ldr	r3, [r2, #68]
 2759 0030 43F40043 		orr	r3, r3, #32768
 2760 0034 5364     		str	r3, [r2, #68]
 2761              		.loc 1 1096 3 view .LVU794
 2762              		.loc 1 1096 7 is_stmt 0 view .LVU795
 2763 0036 2368     		ldr	r3, [r4]
 2764              		.loc 1 1096 6 view .LVU796
 2765 0038 234A     		ldr	r2, .L235
 2766 003a 9342     		cmp	r3, r2
 2767 003c 35D0     		beq	.L226
 2768              		.loc 1 1096 7 discriminator 1 view .LVU797
 2769 003e B3F1804F 		cmp	r3, #1073741824
 2770 0042 32D0     		beq	.L226
 2771              		.loc 1 1096 7 discriminator 2 view .LVU798
 2772 0044 A2F59432 		sub	r2, r2, #75776
 2773 0048 9342     		cmp	r3, r2
 2774 004a 2ED0     		beq	.L226
 2775              		.loc 1 1106 5 is_stmt 1 view .LVU799
 2776 004c 1A68     		ldr	r2, [r3]
 2777 004e 42F00102 		orr	r2, r2, #1
 2778 0052 1A60     		str	r2, [r3]
ARM GAS  C:\Users\Ika\AppData\Local\Temp\ccf6m5Fc.s 			page 49


 2779              		.loc 1 1110 10 is_stmt 0 view .LVU800
 2780 0054 0020     		movs	r0, #0
 2781 0056 34E0     		b	.L221
 2782              	.LVL188:
 2783              	.L217:
 2784              		.loc 1 1081 46 discriminator 2 view .LVU801
 2785 0058 0429     		cmp	r1, #4
 2786 005a 08D0     		beq	.L231
 2787              		.loc 1 1081 46 discriminator 5 view .LVU802
 2788 005c 0829     		cmp	r1, #8
 2789 005e 0DD0     		beq	.L232
 2790              		.loc 1 1081 7 discriminator 8 view .LVU803
 2791 0060 94F84530 		ldrb	r3, [r4, #69]	@ zero_extendqisi2
 2792 0064 DBB2     		uxtb	r3, r3
 2793              		.loc 1 1081 46 discriminator 8 view .LVU804
 2794 0066 013B     		subs	r3, r3, #1
 2795 0068 18BF     		it	ne
 2796 006a 0123     		movne	r3, #1
 2797 006c D2E7     		b	.L218
 2798              	.L231:
 2799              		.loc 1 1081 7 discriminator 4 view .LVU805
 2800 006e 94F84330 		ldrb	r3, [r4, #67]	@ zero_extendqisi2
 2801 0072 DBB2     		uxtb	r3, r3
 2802              		.loc 1 1081 46 discriminator 4 view .LVU806
 2803 0074 013B     		subs	r3, r3, #1
 2804 0076 18BF     		it	ne
 2805 0078 0123     		movne	r3, #1
 2806 007a CBE7     		b	.L218
 2807              	.L232:
 2808              		.loc 1 1081 7 discriminator 7 view .LVU807
 2809 007c 94F84430 		ldrb	r3, [r4, #68]	@ zero_extendqisi2
 2810 0080 DBB2     		uxtb	r3, r3
 2811              		.loc 1 1081 46 discriminator 7 view .LVU808
 2812 0082 013B     		subs	r3, r3, #1
 2813 0084 18BF     		it	ne
 2814 0086 0123     		movne	r3, #1
 2815 0088 C4E7     		b	.L218
 2816              	.L222:
 2817              		.loc 1 1087 3 discriminator 2 view .LVU809
 2818 008a 0428     		cmp	r0, #4
 2819 008c 05D0     		beq	.L233
 2820              		.loc 1 1087 3 discriminator 4 view .LVU810
 2821 008e 0828     		cmp	r0, #8
 2822 0090 07D0     		beq	.L234
 2823              		.loc 1 1087 3 discriminator 7 view .LVU811
 2824 0092 0223     		movs	r3, #2
 2825 0094 84F84530 		strb	r3, [r4, #69]
 2826 0098 C3E7     		b	.L223
 2827              	.L233:
 2828              		.loc 1 1087 3 discriminator 3 view .LVU812
 2829 009a 0223     		movs	r3, #2
 2830 009c 84F84330 		strb	r3, [r4, #67]
 2831 00a0 BFE7     		b	.L223
 2832              	.L234:
 2833              		.loc 1 1087 3 discriminator 6 view .LVU813
 2834 00a2 0223     		movs	r3, #2
 2835 00a4 84F84430 		strb	r3, [r4, #68]
ARM GAS  C:\Users\Ika\AppData\Local\Temp\ccf6m5Fc.s 			page 50


 2836 00a8 BBE7     		b	.L223
 2837              	.LVL189:
 2838              	.L226:
 2839              		.loc 1 1098 5 is_stmt 1 view .LVU814
 2840              		.loc 1 1098 29 is_stmt 0 view .LVU815
 2841 00aa 9A68     		ldr	r2, [r3, #8]
 2842              		.loc 1 1098 13 view .LVU816
 2843 00ac 02F00702 		and	r2, r2, #7
 2844              	.LVL190:
 2845              		.loc 1 1099 5 is_stmt 1 view .LVU817
 2846              		.loc 1 1099 8 is_stmt 0 view .LVU818
 2847 00b0 062A     		cmp	r2, #6
 2848 00b2 07D0     		beq	.L229
 2849              		.loc 1 1101 7 is_stmt 1 view .LVU819
 2850 00b4 1A68     		ldr	r2, [r3]
 2851              	.LVL191:
 2852              		.loc 1 1101 7 is_stmt 0 view .LVU820
 2853 00b6 42F00102 		orr	r2, r2, #1
 2854 00ba 1A60     		str	r2, [r3]
 2855              		.loc 1 1110 10 view .LVU821
 2856 00bc 0020     		movs	r0, #0
 2857 00be 00E0     		b	.L221
 2858              	.LVL192:
 2859              	.L228:
 2860              		.loc 1 1083 12 view .LVU822
 2861 00c0 0120     		movs	r0, #1
 2862              	.LVL193:
 2863              	.L221:
 2864              		.loc 1 1111 1 view .LVU823
 2865 00c2 10BD     		pop	{r4, pc}
 2866              	.LVL194:
 2867              	.L229:
 2868              		.loc 1 1110 10 view .LVU824
 2869 00c4 0020     		movs	r0, #0
 2870 00c6 FCE7     		b	.L221
 2871              	.L236:
 2872              		.align	2
 2873              	.L235:
 2874 00c8 002C0140 		.word	1073818624
 2875              		.cfi_endproc
 2876              	.LFE81:
 2878              		.section	.text.HAL_TIMEx_PWMN_Stop,"ax",%progbits
 2879              		.align	1
 2880              		.global	HAL_TIMEx_PWMN_Stop
 2881              		.syntax unified
 2882              		.thumb
 2883              		.thumb_func
 2884              		.fpu softvfp
 2886              	HAL_TIMEx_PWMN_Stop:
 2887              	.LVL195:
 2888              	.LFB82:
 2889              		.loc 1 1124 1 is_stmt 1 view -0
 2890              		.cfi_startproc
 2891              		@ args = 0, pretend = 0, frame = 0
 2892              		@ frame_needed = 0, uses_anonymous_args = 0
 2893              		.loc 1 1124 1 is_stmt 0 view .LVU826
 2894 0000 38B5     		push	{r3, r4, r5, lr}
ARM GAS  C:\Users\Ika\AppData\Local\Temp\ccf6m5Fc.s 			page 51


 2895              	.LCFI25:
 2896              		.cfi_def_cfa_offset 16
 2897              		.cfi_offset 3, -16
 2898              		.cfi_offset 4, -12
 2899              		.cfi_offset 5, -8
 2900              		.cfi_offset 14, -4
 2901 0002 0446     		mov	r4, r0
 2902 0004 0D46     		mov	r5, r1
 2903              		.loc 1 1126 3 is_stmt 1 view .LVU827
 2904              		.loc 1 1129 3 view .LVU828
 2905 0006 0022     		movs	r2, #0
 2906 0008 0068     		ldr	r0, [r0]
 2907              	.LVL196:
 2908              		.loc 1 1129 3 is_stmt 0 view .LVU829
 2909 000a FFF7FEFF 		bl	TIM_CCxNChannelCmd
 2910              	.LVL197:
 2911              		.loc 1 1132 3 is_stmt 1 view .LVU830
 2912              		.loc 1 1132 3 view .LVU831
 2913 000e 2368     		ldr	r3, [r4]
 2914 0010 196A     		ldr	r1, [r3, #32]
 2915 0012 41F21112 		movw	r2, #4369
 2916 0016 1142     		tst	r1, r2
 2917 0018 08D1     		bne	.L238
 2918              		.loc 1 1132 3 discriminator 1 view .LVU832
 2919 001a 196A     		ldr	r1, [r3, #32]
 2920 001c 40F24442 		movw	r2, #1092
 2921 0020 1142     		tst	r1, r2
 2922 0022 03D1     		bne	.L238
 2923              		.loc 1 1132 3 discriminator 3 view .LVU833
 2924 0024 5A6C     		ldr	r2, [r3, #68]
 2925 0026 22F40042 		bic	r2, r2, #32768
 2926 002a 5A64     		str	r2, [r3, #68]
 2927              	.L238:
 2928              		.loc 1 1132 3 discriminator 5 view .LVU834
 2929              		.loc 1 1135 3 discriminator 5 view .LVU835
 2930              		.loc 1 1135 3 discriminator 5 view .LVU836
 2931 002c 2368     		ldr	r3, [r4]
 2932 002e 196A     		ldr	r1, [r3, #32]
 2933 0030 41F21112 		movw	r2, #4369
 2934 0034 1142     		tst	r1, r2
 2935 0036 08D1     		bne	.L239
 2936              		.loc 1 1135 3 discriminator 1 view .LVU837
 2937 0038 196A     		ldr	r1, [r3, #32]
 2938 003a 40F24442 		movw	r2, #1092
 2939 003e 1142     		tst	r1, r2
 2940 0040 03D1     		bne	.L239
 2941              		.loc 1 1135 3 discriminator 3 view .LVU838
 2942 0042 1A68     		ldr	r2, [r3]
 2943 0044 22F00102 		bic	r2, r2, #1
 2944 0048 1A60     		str	r2, [r3]
 2945              	.L239:
 2946              		.loc 1 1135 3 discriminator 5 view .LVU839
 2947              		.loc 1 1138 3 discriminator 5 view .LVU840
 2948 004a 25B9     		cbnz	r5, .L240
 2949              		.loc 1 1138 3 is_stmt 0 discriminator 1 view .LVU841
 2950 004c 0123     		movs	r3, #1
 2951 004e 84F84230 		strb	r3, [r4, #66]
ARM GAS  C:\Users\Ika\AppData\Local\Temp\ccf6m5Fc.s 			page 52


 2952              	.L241:
 2953              		.loc 1 1141 3 is_stmt 1 view .LVU842
 2954              		.loc 1 1142 1 is_stmt 0 view .LVU843
 2955 0052 0020     		movs	r0, #0
 2956 0054 38BD     		pop	{r3, r4, r5, pc}
 2957              	.LVL198:
 2958              	.L240:
 2959              		.loc 1 1138 3 discriminator 2 view .LVU844
 2960 0056 042D     		cmp	r5, #4
 2961 0058 05D0     		beq	.L245
 2962              		.loc 1 1138 3 discriminator 4 view .LVU845
 2963 005a 082D     		cmp	r5, #8
 2964 005c 07D0     		beq	.L246
 2965              		.loc 1 1138 3 discriminator 7 view .LVU846
 2966 005e 0123     		movs	r3, #1
 2967 0060 84F84530 		strb	r3, [r4, #69]
 2968 0064 F5E7     		b	.L241
 2969              	.L245:
 2970              		.loc 1 1138 3 discriminator 3 view .LVU847
 2971 0066 0123     		movs	r3, #1
 2972 0068 84F84330 		strb	r3, [r4, #67]
 2973 006c F1E7     		b	.L241
 2974              	.L246:
 2975              		.loc 1 1138 3 discriminator 6 view .LVU848
 2976 006e 0123     		movs	r3, #1
 2977 0070 84F84430 		strb	r3, [r4, #68]
 2978 0074 EDE7     		b	.L241
 2979              		.cfi_endproc
 2980              	.LFE82:
 2982              		.section	.text.HAL_TIMEx_PWMN_Start_IT,"ax",%progbits
 2983              		.align	1
 2984              		.global	HAL_TIMEx_PWMN_Start_IT
 2985              		.syntax unified
 2986              		.thumb
 2987              		.thumb_func
 2988              		.fpu softvfp
 2990              	HAL_TIMEx_PWMN_Start_IT:
 2991              	.LVL199:
 2992              	.LFB83:
 2993              		.loc 1 1156 1 is_stmt 1 view -0
 2994              		.cfi_startproc
 2995              		@ args = 0, pretend = 0, frame = 0
 2996              		@ frame_needed = 0, uses_anonymous_args = 0
 2997              		.loc 1 1156 1 is_stmt 0 view .LVU850
 2998 0000 10B5     		push	{r4, lr}
 2999              	.LCFI26:
 3000              		.cfi_def_cfa_offset 8
 3001              		.cfi_offset 4, -8
 3002              		.cfi_offset 14, -4
 3003 0002 0446     		mov	r4, r0
 3004              		.loc 1 1157 3 is_stmt 1 view .LVU851
 3005              		.loc 1 1160 3 view .LVU852
 3006              		.loc 1 1163 3 view .LVU853
 3007              		.loc 1 1163 46 is_stmt 0 view .LVU854
 3008 0004 0846     		mov	r0, r1
 3009              	.LVL200:
 3010              		.loc 1 1163 46 view .LVU855
ARM GAS  C:\Users\Ika\AppData\Local\Temp\ccf6m5Fc.s 			page 53


 3011 0006 0029     		cmp	r1, #0
 3012 0008 32D1     		bne	.L248
 3013              		.loc 1 1163 7 discriminator 1 view .LVU856
 3014 000a 94F84230 		ldrb	r3, [r4, #66]	@ zero_extendqisi2
 3015 000e DBB2     		uxtb	r3, r3
 3016              		.loc 1 1163 46 discriminator 1 view .LVU857
 3017 0010 013B     		subs	r3, r3, #1
 3018 0012 18BF     		it	ne
 3019 0014 0123     		movne	r3, #1
 3020              	.L249:
 3021              		.loc 1 1163 6 discriminator 12 view .LVU858
 3022 0016 002B     		cmp	r3, #0
 3023 0018 70D1     		bne	.L262
 3024              		.loc 1 1169 3 is_stmt 1 view .LVU859
 3025 001a 0028     		cmp	r0, #0
 3026 001c 41D1     		bne	.L253
 3027              		.loc 1 1169 3 is_stmt 0 discriminator 1 view .LVU860
 3028 001e 0223     		movs	r3, #2
 3029 0020 84F84230 		strb	r3, [r4, #66]
 3030              	.L254:
 3031              		.loc 1 1171 3 is_stmt 1 view .LVU861
 3032 0024 0428     		cmp	r0, #4
 3033 0026 52D0     		beq	.L257
 3034 0028 0828     		cmp	r0, #8
 3035 002a 56D0     		beq	.L258
 3036 002c 0028     		cmp	r0, #0
 3037 002e 48D0     		beq	.L265
 3038              	.L259:
 3039              		.loc 1 1199 3 view .LVU862
 3040 0030 2268     		ldr	r2, [r4]
 3041 0032 D368     		ldr	r3, [r2, #12]
 3042 0034 43F08003 		orr	r3, r3, #128
 3043 0038 D360     		str	r3, [r2, #12]
 3044              		.loc 1 1202 3 view .LVU863
 3045 003a 0422     		movs	r2, #4
 3046 003c 0146     		mov	r1, r0
 3047              	.LVL201:
 3048              		.loc 1 1202 3 is_stmt 0 view .LVU864
 3049 003e 2068     		ldr	r0, [r4]
 3050              	.LVL202:
 3051              		.loc 1 1202 3 view .LVU865
 3052 0040 FFF7FEFF 		bl	TIM_CCxNChannelCmd
 3053              	.LVL203:
 3054              		.loc 1 1205 3 is_stmt 1 view .LVU866
 3055 0044 2268     		ldr	r2, [r4]
 3056 0046 536C     		ldr	r3, [r2, #68]
 3057 0048 43F40043 		orr	r3, r3, #32768
 3058 004c 5364     		str	r3, [r2, #68]
 3059              		.loc 1 1208 3 view .LVU867
 3060              		.loc 1 1208 7 is_stmt 0 view .LVU868
 3061 004e 2368     		ldr	r3, [r4]
 3062              		.loc 1 1208 6 view .LVU869
 3063 0050 2C4A     		ldr	r2, .L270
 3064 0052 9342     		cmp	r3, r2
 3065 0054 47D0     		beq	.L260
 3066              		.loc 1 1208 7 discriminator 1 view .LVU870
 3067 0056 B3F1804F 		cmp	r3, #1073741824
ARM GAS  C:\Users\Ika\AppData\Local\Temp\ccf6m5Fc.s 			page 54


 3068 005a 44D0     		beq	.L260
 3069              		.loc 1 1208 7 discriminator 2 view .LVU871
 3070 005c A2F59432 		sub	r2, r2, #75776
 3071 0060 9342     		cmp	r3, r2
 3072 0062 40D0     		beq	.L260
 3073              		.loc 1 1218 5 is_stmt 1 view .LVU872
 3074 0064 1A68     		ldr	r2, [r3]
 3075 0066 42F00102 		orr	r2, r2, #1
 3076 006a 1A60     		str	r2, [r3]
 3077              		.loc 1 1222 10 is_stmt 0 view .LVU873
 3078 006c 0020     		movs	r0, #0
 3079 006e 46E0     		b	.L252
 3080              	.LVL204:
 3081              	.L248:
 3082              		.loc 1 1163 46 discriminator 2 view .LVU874
 3083 0070 0429     		cmp	r1, #4
 3084 0072 08D0     		beq	.L266
 3085              		.loc 1 1163 46 discriminator 5 view .LVU875
 3086 0074 0829     		cmp	r1, #8
 3087 0076 0DD0     		beq	.L267
 3088              		.loc 1 1163 7 discriminator 8 view .LVU876
 3089 0078 94F84530 		ldrb	r3, [r4, #69]	@ zero_extendqisi2
 3090 007c DBB2     		uxtb	r3, r3
 3091              		.loc 1 1163 46 discriminator 8 view .LVU877
 3092 007e 013B     		subs	r3, r3, #1
 3093 0080 18BF     		it	ne
 3094 0082 0123     		movne	r3, #1
 3095 0084 C7E7     		b	.L249
 3096              	.L266:
 3097              		.loc 1 1163 7 discriminator 4 view .LVU878
 3098 0086 94F84330 		ldrb	r3, [r4, #67]	@ zero_extendqisi2
 3099 008a DBB2     		uxtb	r3, r3
 3100              		.loc 1 1163 46 discriminator 4 view .LVU879
 3101 008c 013B     		subs	r3, r3, #1
 3102 008e 18BF     		it	ne
 3103 0090 0123     		movne	r3, #1
 3104 0092 C0E7     		b	.L249
 3105              	.L267:
 3106              		.loc 1 1163 7 discriminator 7 view .LVU880
 3107 0094 94F84430 		ldrb	r3, [r4, #68]	@ zero_extendqisi2
 3108 0098 DBB2     		uxtb	r3, r3
 3109              		.loc 1 1163 46 discriminator 7 view .LVU881
 3110 009a 013B     		subs	r3, r3, #1
 3111 009c 18BF     		it	ne
 3112 009e 0123     		movne	r3, #1
 3113 00a0 B9E7     		b	.L249
 3114              	.L253:
 3115              		.loc 1 1169 3 discriminator 2 view .LVU882
 3116 00a2 0428     		cmp	r0, #4
 3117 00a4 05D0     		beq	.L268
 3118              		.loc 1 1169 3 discriminator 4 view .LVU883
 3119 00a6 0828     		cmp	r0, #8
 3120 00a8 07D0     		beq	.L269
 3121              		.loc 1 1169 3 discriminator 7 view .LVU884
 3122 00aa 0223     		movs	r3, #2
 3123 00ac 84F84530 		strb	r3, [r4, #69]
 3124 00b0 B8E7     		b	.L254
ARM GAS  C:\Users\Ika\AppData\Local\Temp\ccf6m5Fc.s 			page 55


 3125              	.L268:
 3126              		.loc 1 1169 3 discriminator 3 view .LVU885
 3127 00b2 0223     		movs	r3, #2
 3128 00b4 84F84330 		strb	r3, [r4, #67]
 3129 00b8 B4E7     		b	.L254
 3130              	.L269:
 3131              		.loc 1 1169 3 discriminator 6 view .LVU886
 3132 00ba 0223     		movs	r3, #2
 3133 00bc 84F84430 		strb	r3, [r4, #68]
 3134 00c0 B0E7     		b	.L254
 3135              	.L265:
 3136              		.loc 1 1176 7 is_stmt 1 view .LVU887
 3137 00c2 2268     		ldr	r2, [r4]
 3138 00c4 D368     		ldr	r3, [r2, #12]
 3139 00c6 43F00203 		orr	r3, r3, #2
 3140 00ca D360     		str	r3, [r2, #12]
 3141              		.loc 1 1177 7 view .LVU888
 3142 00cc B0E7     		b	.L259
 3143              	.L257:
 3144              		.loc 1 1183 7 view .LVU889
 3145 00ce 2268     		ldr	r2, [r4]
 3146 00d0 D368     		ldr	r3, [r2, #12]
 3147 00d2 43F00403 		orr	r3, r3, #4
 3148 00d6 D360     		str	r3, [r2, #12]
 3149              		.loc 1 1184 7 view .LVU890
 3150 00d8 AAE7     		b	.L259
 3151              	.L258:
 3152              		.loc 1 1190 7 view .LVU891
 3153 00da 2268     		ldr	r2, [r4]
 3154 00dc D368     		ldr	r3, [r2, #12]
 3155 00de 43F00803 		orr	r3, r3, #8
 3156 00e2 D360     		str	r3, [r2, #12]
 3157              		.loc 1 1191 7 view .LVU892
 3158 00e4 A4E7     		b	.L259
 3159              	.LVL205:
 3160              	.L260:
 3161              		.loc 1 1210 5 view .LVU893
 3162              		.loc 1 1210 29 is_stmt 0 view .LVU894
 3163 00e6 9A68     		ldr	r2, [r3, #8]
 3164              		.loc 1 1210 13 view .LVU895
 3165 00e8 02F00702 		and	r2, r2, #7
 3166              	.LVL206:
 3167              		.loc 1 1211 5 is_stmt 1 view .LVU896
 3168              		.loc 1 1211 8 is_stmt 0 view .LVU897
 3169 00ec 062A     		cmp	r2, #6
 3170 00ee 07D0     		beq	.L263
 3171              		.loc 1 1213 7 is_stmt 1 view .LVU898
 3172 00f0 1A68     		ldr	r2, [r3]
 3173              	.LVL207:
 3174              		.loc 1 1213 7 is_stmt 0 view .LVU899
 3175 00f2 42F00102 		orr	r2, r2, #1
 3176 00f6 1A60     		str	r2, [r3]
 3177              		.loc 1 1222 10 view .LVU900
 3178 00f8 0020     		movs	r0, #0
 3179 00fa 00E0     		b	.L252
 3180              	.LVL208:
 3181              	.L262:
ARM GAS  C:\Users\Ika\AppData\Local\Temp\ccf6m5Fc.s 			page 56


 3182              		.loc 1 1165 12 view .LVU901
 3183 00fc 0120     		movs	r0, #1
 3184              	.LVL209:
 3185              	.L252:
 3186              		.loc 1 1223 1 view .LVU902
 3187 00fe 10BD     		pop	{r4, pc}
 3188              	.LVL210:
 3189              	.L263:
 3190              		.loc 1 1222 10 view .LVU903
 3191 0100 0020     		movs	r0, #0
 3192 0102 FCE7     		b	.L252
 3193              	.L271:
 3194              		.align	2
 3195              	.L270:
 3196 0104 002C0140 		.word	1073818624
 3197              		.cfi_endproc
 3198              	.LFE83:
 3200              		.section	.text.HAL_TIMEx_PWMN_Stop_IT,"ax",%progbits
 3201              		.align	1
 3202              		.global	HAL_TIMEx_PWMN_Stop_IT
 3203              		.syntax unified
 3204              		.thumb
 3205              		.thumb_func
 3206              		.fpu softvfp
 3208              	HAL_TIMEx_PWMN_Stop_IT:
 3209              	.LVL211:
 3210              	.LFB84:
 3211              		.loc 1 1237 1 is_stmt 1 view -0
 3212              		.cfi_startproc
 3213              		@ args = 0, pretend = 0, frame = 0
 3214              		@ frame_needed = 0, uses_anonymous_args = 0
 3215              		.loc 1 1237 1 is_stmt 0 view .LVU905
 3216 0000 38B5     		push	{r3, r4, r5, lr}
 3217              	.LCFI27:
 3218              		.cfi_def_cfa_offset 16
 3219              		.cfi_offset 3, -16
 3220              		.cfi_offset 4, -12
 3221              		.cfi_offset 5, -8
 3222              		.cfi_offset 14, -4
 3223 0002 0546     		mov	r5, r0
 3224 0004 0C46     		mov	r4, r1
 3225              		.loc 1 1238 3 is_stmt 1 view .LVU906
 3226              		.loc 1 1241 3 view .LVU907
 3227              		.loc 1 1243 3 view .LVU908
 3228 0006 0429     		cmp	r1, #4
 3229 0008 3CD0     		beq	.L273
 3230 000a 0829     		cmp	r1, #8
 3231 000c 40D0     		beq	.L274
 3232 000e 0029     		cmp	r1, #0
 3233 0010 32D0     		beq	.L284
 3234              	.L275:
 3235              		.loc 1 1271 3 view .LVU909
 3236 0012 0022     		movs	r2, #0
 3237 0014 2146     		mov	r1, r4
 3238              	.LVL212:
 3239              		.loc 1 1271 3 is_stmt 0 view .LVU910
 3240 0016 2868     		ldr	r0, [r5]
ARM GAS  C:\Users\Ika\AppData\Local\Temp\ccf6m5Fc.s 			page 57


 3241              	.LVL213:
 3242              		.loc 1 1271 3 view .LVU911
 3243 0018 FFF7FEFF 		bl	TIM_CCxNChannelCmd
 3244              	.LVL214:
 3245              		.loc 1 1274 3 is_stmt 1 view .LVU912
 3246              		.loc 1 1274 17 is_stmt 0 view .LVU913
 3247 001c 2B68     		ldr	r3, [r5]
 3248              		.loc 1 1274 11 view .LVU914
 3249 001e 196A     		ldr	r1, [r3, #32]
 3250              	.LVL215:
 3251              		.loc 1 1275 3 is_stmt 1 view .LVU915
 3252              		.loc 1 1275 6 is_stmt 0 view .LVU916
 3253 0020 40F24442 		movw	r2, #1092
 3254 0024 1142     		tst	r1, r2
 3255 0026 03D1     		bne	.L276
 3256              		.loc 1 1277 5 is_stmt 1 view .LVU917
 3257 0028 DA68     		ldr	r2, [r3, #12]
 3258 002a 22F08002 		bic	r2, r2, #128
 3259 002e DA60     		str	r2, [r3, #12]
 3260              	.L276:
 3261              		.loc 1 1281 3 view .LVU918
 3262              		.loc 1 1281 3 view .LVU919
 3263 0030 2B68     		ldr	r3, [r5]
 3264 0032 196A     		ldr	r1, [r3, #32]
 3265              	.LVL216:
 3266              		.loc 1 1281 3 is_stmt 0 view .LVU920
 3267 0034 41F21112 		movw	r2, #4369
 3268 0038 1142     		tst	r1, r2
 3269 003a 08D1     		bne	.L277
 3270              		.loc 1 1281 3 is_stmt 1 discriminator 1 view .LVU921
 3271 003c 196A     		ldr	r1, [r3, #32]
 3272 003e 40F24442 		movw	r2, #1092
 3273 0042 1142     		tst	r1, r2
 3274 0044 03D1     		bne	.L277
 3275              		.loc 1 1281 3 discriminator 3 view .LVU922
 3276 0046 5A6C     		ldr	r2, [r3, #68]
 3277 0048 22F40042 		bic	r2, r2, #32768
 3278 004c 5A64     		str	r2, [r3, #68]
 3279              	.L277:
 3280              		.loc 1 1281 3 discriminator 5 view .LVU923
 3281              		.loc 1 1284 3 discriminator 5 view .LVU924
 3282              		.loc 1 1284 3 discriminator 5 view .LVU925
 3283 004e 2B68     		ldr	r3, [r5]
 3284 0050 196A     		ldr	r1, [r3, #32]
 3285 0052 41F21112 		movw	r2, #4369
 3286 0056 1142     		tst	r1, r2
 3287 0058 08D1     		bne	.L278
 3288              		.loc 1 1284 3 discriminator 1 view .LVU926
 3289 005a 196A     		ldr	r1, [r3, #32]
 3290 005c 40F24442 		movw	r2, #1092
 3291 0060 1142     		tst	r1, r2
 3292 0062 03D1     		bne	.L278
 3293              		.loc 1 1284 3 discriminator 3 view .LVU927
 3294 0064 1A68     		ldr	r2, [r3]
 3295 0066 22F00102 		bic	r2, r2, #1
 3296 006a 1A60     		str	r2, [r3]
 3297              	.L278:
ARM GAS  C:\Users\Ika\AppData\Local\Temp\ccf6m5Fc.s 			page 58


 3298              		.loc 1 1284 3 discriminator 5 view .LVU928
 3299              		.loc 1 1287 3 discriminator 5 view .LVU929
 3300 006c B4B9     		cbnz	r4, .L279
 3301              		.loc 1 1287 3 is_stmt 0 discriminator 1 view .LVU930
 3302 006e 0123     		movs	r3, #1
 3303 0070 85F84230 		strb	r3, [r5, #66]
 3304              	.L280:
 3305              		.loc 1 1290 3 is_stmt 1 view .LVU931
 3306              		.loc 1 1291 1 is_stmt 0 view .LVU932
 3307 0074 0020     		movs	r0, #0
 3308 0076 38BD     		pop	{r3, r4, r5, pc}
 3309              	.LVL217:
 3310              	.L284:
 3311              		.loc 1 1248 7 is_stmt 1 view .LVU933
 3312 0078 0268     		ldr	r2, [r0]
 3313 007a D368     		ldr	r3, [r2, #12]
 3314 007c 23F00203 		bic	r3, r3, #2
 3315 0080 D360     		str	r3, [r2, #12]
 3316              		.loc 1 1249 7 view .LVU934
 3317 0082 C6E7     		b	.L275
 3318              	.L273:
 3319              		.loc 1 1255 7 view .LVU935
 3320 0084 0268     		ldr	r2, [r0]
 3321 0086 D368     		ldr	r3, [r2, #12]
 3322 0088 23F00403 		bic	r3, r3, #4
 3323 008c D360     		str	r3, [r2, #12]
 3324              		.loc 1 1256 7 view .LVU936
 3325 008e C0E7     		b	.L275
 3326              	.L274:
 3327              		.loc 1 1262 7 view .LVU937
 3328 0090 0268     		ldr	r2, [r0]
 3329 0092 D368     		ldr	r3, [r2, #12]
 3330 0094 23F00803 		bic	r3, r3, #8
 3331 0098 D360     		str	r3, [r2, #12]
 3332              		.loc 1 1263 7 view .LVU938
 3333 009a BAE7     		b	.L275
 3334              	.LVL218:
 3335              	.L279:
 3336              		.loc 1 1287 3 is_stmt 0 discriminator 2 view .LVU939
 3337 009c 042C     		cmp	r4, #4
 3338 009e 05D0     		beq	.L285
 3339              		.loc 1 1287 3 discriminator 4 view .LVU940
 3340 00a0 082C     		cmp	r4, #8
 3341 00a2 07D0     		beq	.L286
 3342              		.loc 1 1287 3 discriminator 7 view .LVU941
 3343 00a4 0123     		movs	r3, #1
 3344 00a6 85F84530 		strb	r3, [r5, #69]
 3345 00aa E3E7     		b	.L280
 3346              	.L285:
 3347              		.loc 1 1287 3 discriminator 3 view .LVU942
 3348 00ac 0123     		movs	r3, #1
 3349 00ae 85F84330 		strb	r3, [r5, #67]
 3350 00b2 DFE7     		b	.L280
 3351              	.L286:
 3352              		.loc 1 1287 3 discriminator 6 view .LVU943
 3353 00b4 0123     		movs	r3, #1
 3354 00b6 85F84430 		strb	r3, [r5, #68]
ARM GAS  C:\Users\Ika\AppData\Local\Temp\ccf6m5Fc.s 			page 59


 3355 00ba DBE7     		b	.L280
 3356              		.cfi_endproc
 3357              	.LFE84:
 3359              		.section	.text.HAL_TIMEx_PWMN_Start_DMA,"ax",%progbits
 3360              		.align	1
 3361              		.global	HAL_TIMEx_PWMN_Start_DMA
 3362              		.syntax unified
 3363              		.thumb
 3364              		.thumb_func
 3365              		.fpu softvfp
 3367              	HAL_TIMEx_PWMN_Start_DMA:
 3368              	.LVL219:
 3369              	.LFB85:
 3370              		.loc 1 1307 1 is_stmt 1 view -0
 3371              		.cfi_startproc
 3372              		@ args = 0, pretend = 0, frame = 0
 3373              		@ frame_needed = 0, uses_anonymous_args = 0
 3374              		.loc 1 1307 1 is_stmt 0 view .LVU945
 3375 0000 70B5     		push	{r4, r5, r6, lr}
 3376              	.LCFI28:
 3377              		.cfi_def_cfa_offset 16
 3378              		.cfi_offset 4, -16
 3379              		.cfi_offset 5, -12
 3380              		.cfi_offset 6, -8
 3381              		.cfi_offset 14, -4
 3382 0002 0446     		mov	r4, r0
 3383 0004 1646     		mov	r6, r2
 3384              		.loc 1 1308 3 is_stmt 1 view .LVU946
 3385              		.loc 1 1311 3 view .LVU947
 3386              		.loc 1 1314 3 view .LVU948
 3387              		.loc 1 1314 46 is_stmt 0 view .LVU949
 3388 0006 0D46     		mov	r5, r1
 3389 0008 0029     		cmp	r1, #0
 3390 000a 42D1     		bne	.L288
 3391              		.loc 1 1314 7 discriminator 1 view .LVU950
 3392 000c 90F84200 		ldrb	r0, [r0, #66]	@ zero_extendqisi2
 3393              	.LVL220:
 3394              		.loc 1 1314 7 discriminator 1 view .LVU951
 3395 0010 C0B2     		uxtb	r0, r0
 3396              		.loc 1 1314 46 discriminator 1 view .LVU952
 3397 0012 0228     		cmp	r0, #2
 3398 0014 14BF     		ite	ne
 3399 0016 0020     		movne	r0, #0
 3400 0018 0120     		moveq	r0, #1
 3401              	.L289:
 3402              		.loc 1 1314 6 discriminator 12 view .LVU953
 3403 001a 0028     		cmp	r0, #0
 3404 001c 40F0D480 		bne	.L307
 3405              		.loc 1 1318 8 is_stmt 1 view .LVU954
 3406              		.loc 1 1318 51 is_stmt 0 view .LVU955
 3407 0020 002D     		cmp	r5, #0
 3408 0022 52D1     		bne	.L293
 3409              		.loc 1 1318 12 discriminator 1 view .LVU956
 3410 0024 94F84220 		ldrb	r2, [r4, #66]	@ zero_extendqisi2
 3411              	.LVL221:
 3412              		.loc 1 1318 12 discriminator 1 view .LVU957
 3413 0028 D2B2     		uxtb	r2, r2
ARM GAS  C:\Users\Ika\AppData\Local\Temp\ccf6m5Fc.s 			page 60


 3414              		.loc 1 1318 51 discriminator 1 view .LVU958
 3415 002a 012A     		cmp	r2, #1
 3416 002c 14BF     		ite	ne
 3417 002e 0022     		movne	r2, #0
 3418 0030 0122     		moveq	r2, #1
 3419              	.L294:
 3420              		.loc 1 1318 11 discriminator 12 view .LVU959
 3421 0032 002A     		cmp	r2, #0
 3422 0034 00F0CA80 		beq	.L308
 3423              		.loc 1 1320 5 is_stmt 1 view .LVU960
 3424              		.loc 1 1320 8 is_stmt 0 view .LVU961
 3425 0038 002E     		cmp	r6, #0
 3426 003a 62D0     		beq	.L315
 3427              	.L297:
 3428              		.loc 1 1326 7 is_stmt 1 view .LVU962
 3429 003c 002D     		cmp	r5, #0
 3430 003e 64D1     		bne	.L298
 3431              		.loc 1 1326 7 is_stmt 0 discriminator 1 view .LVU963
 3432 0040 0222     		movs	r2, #2
 3433 0042 84F84220 		strb	r2, [r4, #66]
 3434              	.L299:
 3435              		.loc 1 1334 3 is_stmt 1 view .LVU964
 3436 0046 042D     		cmp	r5, #4
 3437 0048 00F08680 		beq	.L302
 3438 004c 082D     		cmp	r5, #8
 3439 004e 00F09A80 		beq	.L303
 3440 0052 002D     		cmp	r5, #0
 3441 0054 69D0     		beq	.L316
 3442              	.LVL222:
 3443              	.L304:
 3444              		.loc 1 1401 3 view .LVU965
 3445 0056 0422     		movs	r2, #4
 3446 0058 2946     		mov	r1, r5
 3447 005a 2068     		ldr	r0, [r4]
 3448 005c FFF7FEFF 		bl	TIM_CCxNChannelCmd
 3449              	.LVL223:
 3450              		.loc 1 1404 3 view .LVU966
 3451 0060 2268     		ldr	r2, [r4]
 3452 0062 536C     		ldr	r3, [r2, #68]
 3453 0064 43F40043 		orr	r3, r3, #32768
 3454 0068 5364     		str	r3, [r2, #68]
 3455              		.loc 1 1407 3 view .LVU967
 3456              		.loc 1 1407 7 is_stmt 0 view .LVU968
 3457 006a 2368     		ldr	r3, [r4]
 3458              		.loc 1 1407 6 view .LVU969
 3459 006c 5C4A     		ldr	r2, .L323
 3460 006e 9342     		cmp	r3, r2
 3461 0070 00F09F80 		beq	.L305
 3462              		.loc 1 1407 7 discriminator 1 view .LVU970
 3463 0074 B3F1804F 		cmp	r3, #1073741824
 3464 0078 00F09B80 		beq	.L305
 3465              		.loc 1 1407 7 discriminator 2 view .LVU971
 3466 007c A2F59432 		sub	r2, r2, #75776
 3467 0080 9342     		cmp	r3, r2
 3468 0082 00F09680 		beq	.L305
 3469              		.loc 1 1417 5 is_stmt 1 view .LVU972
 3470 0086 1A68     		ldr	r2, [r3]
ARM GAS  C:\Users\Ika\AppData\Local\Temp\ccf6m5Fc.s 			page 61


 3471 0088 42F00102 		orr	r2, r2, #1
 3472 008c 1A60     		str	r2, [r3]
 3473              		.loc 1 1421 10 is_stmt 0 view .LVU973
 3474 008e 0020     		movs	r0, #0
 3475 0090 9DE0     		b	.L292
 3476              	.LVL224:
 3477              	.L288:
 3478              		.loc 1 1314 46 discriminator 2 view .LVU974
 3479 0092 0429     		cmp	r1, #4
 3480 0094 09D0     		beq	.L317
 3481              		.loc 1 1314 46 discriminator 5 view .LVU975
 3482 0096 0829     		cmp	r1, #8
 3483 0098 0FD0     		beq	.L318
 3484              		.loc 1 1314 7 discriminator 8 view .LVU976
 3485 009a 90F84500 		ldrb	r0, [r0, #69]	@ zero_extendqisi2
 3486              	.LVL225:
 3487              		.loc 1 1314 7 discriminator 8 view .LVU977
 3488 009e C0B2     		uxtb	r0, r0
 3489              		.loc 1 1314 46 discriminator 8 view .LVU978
 3490 00a0 0228     		cmp	r0, #2
 3491 00a2 14BF     		ite	ne
 3492 00a4 0020     		movne	r0, #0
 3493 00a6 0120     		moveq	r0, #1
 3494 00a8 B7E7     		b	.L289
 3495              	.LVL226:
 3496              	.L317:
 3497              		.loc 1 1314 7 discriminator 4 view .LVU979
 3498 00aa 90F84300 		ldrb	r0, [r0, #67]	@ zero_extendqisi2
 3499              	.LVL227:
 3500              		.loc 1 1314 7 discriminator 4 view .LVU980
 3501 00ae C0B2     		uxtb	r0, r0
 3502              		.loc 1 1314 46 discriminator 4 view .LVU981
 3503 00b0 0228     		cmp	r0, #2
 3504 00b2 14BF     		ite	ne
 3505 00b4 0020     		movne	r0, #0
 3506 00b6 0120     		moveq	r0, #1
 3507 00b8 AFE7     		b	.L289
 3508              	.LVL228:
 3509              	.L318:
 3510              		.loc 1 1314 7 discriminator 7 view .LVU982
 3511 00ba 90F84400 		ldrb	r0, [r0, #68]	@ zero_extendqisi2
 3512              	.LVL229:
 3513              		.loc 1 1314 7 discriminator 7 view .LVU983
 3514 00be C0B2     		uxtb	r0, r0
 3515              		.loc 1 1314 46 discriminator 7 view .LVU984
 3516 00c0 0228     		cmp	r0, #2
 3517 00c2 14BF     		ite	ne
 3518 00c4 0020     		movne	r0, #0
 3519 00c6 0120     		moveq	r0, #1
 3520 00c8 A7E7     		b	.L289
 3521              	.L293:
 3522              		.loc 1 1318 51 discriminator 2 view .LVU985
 3523 00ca 042D     		cmp	r5, #4
 3524 00cc 09D0     		beq	.L319
 3525              		.loc 1 1318 51 discriminator 5 view .LVU986
 3526 00ce 082D     		cmp	r5, #8
 3527 00d0 0FD0     		beq	.L320
ARM GAS  C:\Users\Ika\AppData\Local\Temp\ccf6m5Fc.s 			page 62


 3528              		.loc 1 1318 12 discriminator 8 view .LVU987
 3529 00d2 94F84520 		ldrb	r2, [r4, #69]	@ zero_extendqisi2
 3530              	.LVL230:
 3531              		.loc 1 1318 12 discriminator 8 view .LVU988
 3532 00d6 D2B2     		uxtb	r2, r2
 3533              		.loc 1 1318 51 discriminator 8 view .LVU989
 3534 00d8 012A     		cmp	r2, #1
 3535 00da 14BF     		ite	ne
 3536 00dc 0022     		movne	r2, #0
 3537 00de 0122     		moveq	r2, #1
 3538 00e0 A7E7     		b	.L294
 3539              	.LVL231:
 3540              	.L319:
 3541              		.loc 1 1318 12 discriminator 4 view .LVU990
 3542 00e2 94F84320 		ldrb	r2, [r4, #67]	@ zero_extendqisi2
 3543              	.LVL232:
 3544              		.loc 1 1318 12 discriminator 4 view .LVU991
 3545 00e6 D2B2     		uxtb	r2, r2
 3546              		.loc 1 1318 51 discriminator 4 view .LVU992
 3547 00e8 012A     		cmp	r2, #1
 3548 00ea 14BF     		ite	ne
 3549 00ec 0022     		movne	r2, #0
 3550 00ee 0122     		moveq	r2, #1
 3551 00f0 9FE7     		b	.L294
 3552              	.LVL233:
 3553              	.L320:
 3554              		.loc 1 1318 12 discriminator 7 view .LVU993
 3555 00f2 94F84420 		ldrb	r2, [r4, #68]	@ zero_extendqisi2
 3556              	.LVL234:
 3557              		.loc 1 1318 12 discriminator 7 view .LVU994
 3558 00f6 D2B2     		uxtb	r2, r2
 3559              		.loc 1 1318 51 discriminator 7 view .LVU995
 3560 00f8 012A     		cmp	r2, #1
 3561 00fa 14BF     		ite	ne
 3562 00fc 0022     		movne	r2, #0
 3563 00fe 0122     		moveq	r2, #1
 3564 0100 97E7     		b	.L294
 3565              	.L315:
 3566              		.loc 1 1320 25 discriminator 1 view .LVU996
 3567 0102 002B     		cmp	r3, #0
 3568 0104 9AD0     		beq	.L297
 3569              		.loc 1 1322 14 view .LVU997
 3570 0106 0120     		movs	r0, #1
 3571 0108 61E0     		b	.L292
 3572              	.L298:
 3573              		.loc 1 1326 7 discriminator 2 view .LVU998
 3574 010a 042D     		cmp	r5, #4
 3575 010c 05D0     		beq	.L321
 3576              		.loc 1 1326 7 discriminator 4 view .LVU999
 3577 010e 082D     		cmp	r5, #8
 3578 0110 07D0     		beq	.L322
 3579              		.loc 1 1326 7 discriminator 7 view .LVU1000
 3580 0112 0222     		movs	r2, #2
 3581 0114 84F84520 		strb	r2, [r4, #69]
 3582 0118 95E7     		b	.L299
 3583              	.L321:
 3584              		.loc 1 1326 7 discriminator 3 view .LVU1001
ARM GAS  C:\Users\Ika\AppData\Local\Temp\ccf6m5Fc.s 			page 63


 3585 011a 0222     		movs	r2, #2
 3586 011c 84F84320 		strb	r2, [r4, #67]
 3587 0120 91E7     		b	.L299
 3588              	.L322:
 3589              		.loc 1 1326 7 discriminator 6 view .LVU1002
 3590 0122 0222     		movs	r2, #2
 3591 0124 84F84420 		strb	r2, [r4, #68]
 3592 0128 8DE7     		b	.L299
 3593              	.L316:
 3594              		.loc 1 1339 7 is_stmt 1 view .LVU1003
 3595              		.loc 1 1339 17 is_stmt 0 view .LVU1004
 3596 012a 626A     		ldr	r2, [r4, #36]
 3597              		.loc 1 1339 52 view .LVU1005
 3598 012c 2D49     		ldr	r1, .L323+4
 3599              	.LVL235:
 3600              		.loc 1 1339 52 view .LVU1006
 3601 012e 9162     		str	r1, [r2, #40]
 3602              		.loc 1 1340 7 is_stmt 1 view .LVU1007
 3603              		.loc 1 1340 17 is_stmt 0 view .LVU1008
 3604 0130 626A     		ldr	r2, [r4, #36]
 3605              		.loc 1 1340 56 view .LVU1009
 3606 0132 2D49     		ldr	r1, .L323+8
 3607 0134 D162     		str	r1, [r2, #44]
 3608              		.loc 1 1343 7 is_stmt 1 view .LVU1010
 3609              		.loc 1 1343 17 is_stmt 0 view .LVU1011
 3610 0136 626A     		ldr	r2, [r4, #36]
 3611              		.loc 1 1343 53 view .LVU1012
 3612 0138 2C49     		ldr	r1, .L323+12
 3613 013a 1163     		str	r1, [r2, #48]
 3614              		.loc 1 1346 7 is_stmt 1 view .LVU1013
 3615              		.loc 1 1346 88 is_stmt 0 view .LVU1014
 3616 013c 2268     		ldr	r2, [r4]
 3617              		.loc 1 1346 11 view .LVU1015
 3618 013e 3432     		adds	r2, r2, #52
 3619 0140 3146     		mov	r1, r6
 3620 0142 606A     		ldr	r0, [r4, #36]
 3621 0144 FFF7FEFF 		bl	HAL_DMA_Start_IT
 3622              	.LVL236:
 3623              		.loc 1 1346 10 view .LVU1016
 3624 0148 0028     		cmp	r0, #0
 3625 014a 41D1     		bne	.L310
 3626              		.loc 1 1352 7 is_stmt 1 view .LVU1017
 3627 014c 2268     		ldr	r2, [r4]
 3628 014e D368     		ldr	r3, [r2, #12]
 3629 0150 43F40073 		orr	r3, r3, #512
 3630 0154 D360     		str	r3, [r2, #12]
 3631              		.loc 1 1353 7 view .LVU1018
 3632 0156 7EE7     		b	.L304
 3633              	.LVL237:
 3634              	.L302:
 3635              		.loc 1 1359 7 view .LVU1019
 3636              		.loc 1 1359 17 is_stmt 0 view .LVU1020
 3637 0158 A26A     		ldr	r2, [r4, #40]
 3638              		.loc 1 1359 52 view .LVU1021
 3639 015a 2249     		ldr	r1, .L323+4
 3640              	.LVL238:
 3641              		.loc 1 1359 52 view .LVU1022
ARM GAS  C:\Users\Ika\AppData\Local\Temp\ccf6m5Fc.s 			page 64


 3642 015c 9162     		str	r1, [r2, #40]
 3643              		.loc 1 1360 7 is_stmt 1 view .LVU1023
 3644              		.loc 1 1360 17 is_stmt 0 view .LVU1024
 3645 015e A26A     		ldr	r2, [r4, #40]
 3646              		.loc 1 1360 56 view .LVU1025
 3647 0160 2149     		ldr	r1, .L323+8
 3648 0162 D162     		str	r1, [r2, #44]
 3649              		.loc 1 1363 7 is_stmt 1 view .LVU1026
 3650              		.loc 1 1363 17 is_stmt 0 view .LVU1027
 3651 0164 A26A     		ldr	r2, [r4, #40]
 3652              		.loc 1 1363 53 view .LVU1028
 3653 0166 2149     		ldr	r1, .L323+12
 3654 0168 1163     		str	r1, [r2, #48]
 3655              		.loc 1 1366 7 is_stmt 1 view .LVU1029
 3656              		.loc 1 1366 88 is_stmt 0 view .LVU1030
 3657 016a 2268     		ldr	r2, [r4]
 3658              		.loc 1 1366 11 view .LVU1031
 3659 016c 3832     		adds	r2, r2, #56
 3660 016e 3146     		mov	r1, r6
 3661 0170 A06A     		ldr	r0, [r4, #40]
 3662 0172 FFF7FEFF 		bl	HAL_DMA_Start_IT
 3663              	.LVL239:
 3664              		.loc 1 1366 10 view .LVU1032
 3665 0176 0028     		cmp	r0, #0
 3666 0178 2CD1     		bne	.L311
 3667              		.loc 1 1372 7 is_stmt 1 view .LVU1033
 3668 017a 2268     		ldr	r2, [r4]
 3669 017c D368     		ldr	r3, [r2, #12]
 3670 017e 43F48063 		orr	r3, r3, #1024
 3671 0182 D360     		str	r3, [r2, #12]
 3672              		.loc 1 1373 7 view .LVU1034
 3673 0184 67E7     		b	.L304
 3674              	.LVL240:
 3675              	.L303:
 3676              		.loc 1 1379 7 view .LVU1035
 3677              		.loc 1 1379 17 is_stmt 0 view .LVU1036
 3678 0186 E26A     		ldr	r2, [r4, #44]
 3679              		.loc 1 1379 52 view .LVU1037
 3680 0188 1649     		ldr	r1, .L323+4
 3681              	.LVL241:
 3682              		.loc 1 1379 52 view .LVU1038
 3683 018a 9162     		str	r1, [r2, #40]
 3684              		.loc 1 1380 7 is_stmt 1 view .LVU1039
 3685              		.loc 1 1380 17 is_stmt 0 view .LVU1040
 3686 018c E26A     		ldr	r2, [r4, #44]
 3687              		.loc 1 1380 56 view .LVU1041
 3688 018e 1649     		ldr	r1, .L323+8
 3689 0190 D162     		str	r1, [r2, #44]
 3690              		.loc 1 1383 7 is_stmt 1 view .LVU1042
 3691              		.loc 1 1383 17 is_stmt 0 view .LVU1043
 3692 0192 E26A     		ldr	r2, [r4, #44]
 3693              		.loc 1 1383 53 view .LVU1044
 3694 0194 1549     		ldr	r1, .L323+12
 3695 0196 1163     		str	r1, [r2, #48]
 3696              		.loc 1 1386 7 is_stmt 1 view .LVU1045
 3697              		.loc 1 1386 88 is_stmt 0 view .LVU1046
 3698 0198 2268     		ldr	r2, [r4]
ARM GAS  C:\Users\Ika\AppData\Local\Temp\ccf6m5Fc.s 			page 65


 3699              		.loc 1 1386 11 view .LVU1047
 3700 019a 3C32     		adds	r2, r2, #60
 3701 019c 3146     		mov	r1, r6
 3702 019e E06A     		ldr	r0, [r4, #44]
 3703 01a0 FFF7FEFF 		bl	HAL_DMA_Start_IT
 3704              	.LVL242:
 3705              		.loc 1 1386 10 view .LVU1048
 3706 01a4 C0B9     		cbnz	r0, .L312
 3707              		.loc 1 1392 7 is_stmt 1 view .LVU1049
 3708 01a6 2268     		ldr	r2, [r4]
 3709 01a8 D368     		ldr	r3, [r2, #12]
 3710 01aa 43F40063 		orr	r3, r3, #2048
 3711 01ae D360     		str	r3, [r2, #12]
 3712              		.loc 1 1393 7 view .LVU1050
 3713 01b0 51E7     		b	.L304
 3714              	.L305:
 3715              		.loc 1 1409 5 view .LVU1051
 3716              		.loc 1 1409 29 is_stmt 0 view .LVU1052
 3717 01b2 9A68     		ldr	r2, [r3, #8]
 3718              		.loc 1 1409 13 view .LVU1053
 3719 01b4 02F00702 		and	r2, r2, #7
 3720              	.LVL243:
 3721              		.loc 1 1410 5 is_stmt 1 view .LVU1054
 3722              		.loc 1 1410 8 is_stmt 0 view .LVU1055
 3723 01b8 062A     		cmp	r2, #6
 3724 01ba 0FD0     		beq	.L313
 3725              		.loc 1 1412 7 is_stmt 1 view .LVU1056
 3726 01bc 1A68     		ldr	r2, [r3]
 3727              	.LVL244:
 3728              		.loc 1 1412 7 is_stmt 0 view .LVU1057
 3729 01be 42F00102 		orr	r2, r2, #1
 3730 01c2 1A60     		str	r2, [r3]
 3731              		.loc 1 1421 10 view .LVU1058
 3732 01c4 0020     		movs	r0, #0
 3733 01c6 02E0     		b	.L292
 3734              	.LVL245:
 3735              	.L307:
 3736              		.loc 1 1316 12 view .LVU1059
 3737 01c8 0220     		movs	r0, #2
 3738 01ca 00E0     		b	.L292
 3739              	.LVL246:
 3740              	.L308:
 3741              		.loc 1 1331 12 view .LVU1060
 3742 01cc 0120     		movs	r0, #1
 3743              	.LVL247:
 3744              	.L292:
 3745              		.loc 1 1422 1 view .LVU1061
 3746 01ce 70BD     		pop	{r4, r5, r6, pc}
 3747              	.LVL248:
 3748              	.L310:
 3749              		.loc 1 1349 16 view .LVU1062
 3750 01d0 0120     		movs	r0, #1
 3751 01d2 FCE7     		b	.L292
 3752              	.L311:
 3753              		.loc 1 1369 16 view .LVU1063
 3754 01d4 0120     		movs	r0, #1
 3755 01d6 FAE7     		b	.L292
ARM GAS  C:\Users\Ika\AppData\Local\Temp\ccf6m5Fc.s 			page 66


 3756              	.L312:
 3757              		.loc 1 1389 16 view .LVU1064
 3758 01d8 0120     		movs	r0, #1
 3759 01da F8E7     		b	.L292
 3760              	.LVL249:
 3761              	.L313:
 3762              		.loc 1 1421 10 view .LVU1065
 3763 01dc 0020     		movs	r0, #0
 3764 01de F6E7     		b	.L292
 3765              	.L324:
 3766              		.align	2
 3767              	.L323:
 3768 01e0 002C0140 		.word	1073818624
 3769 01e4 00000000 		.word	TIM_DMADelayPulseNCplt
 3770 01e8 00000000 		.word	TIM_DMADelayPulseHalfCplt
 3771 01ec 00000000 		.word	TIM_DMAErrorCCxN
 3772              		.cfi_endproc
 3773              	.LFE85:
 3775              		.section	.text.HAL_TIMEx_PWMN_Stop_DMA,"ax",%progbits
 3776              		.align	1
 3777              		.global	HAL_TIMEx_PWMN_Stop_DMA
 3778              		.syntax unified
 3779              		.thumb
 3780              		.thumb_func
 3781              		.fpu softvfp
 3783              	HAL_TIMEx_PWMN_Stop_DMA:
 3784              	.LVL250:
 3785              	.LFB86:
 3786              		.loc 1 1436 1 is_stmt 1 view -0
 3787              		.cfi_startproc
 3788              		@ args = 0, pretend = 0, frame = 0
 3789              		@ frame_needed = 0, uses_anonymous_args = 0
 3790              		.loc 1 1436 1 is_stmt 0 view .LVU1067
 3791 0000 38B5     		push	{r3, r4, r5, lr}
 3792              	.LCFI29:
 3793              		.cfi_def_cfa_offset 16
 3794              		.cfi_offset 3, -16
 3795              		.cfi_offset 4, -12
 3796              		.cfi_offset 5, -8
 3797              		.cfi_offset 14, -4
 3798 0002 0546     		mov	r5, r0
 3799 0004 0C46     		mov	r4, r1
 3800              		.loc 1 1438 3 is_stmt 1 view .LVU1068
 3801              		.loc 1 1440 3 view .LVU1069
 3802 0006 0429     		cmp	r1, #4
 3803 0008 34D0     		beq	.L326
 3804 000a 0829     		cmp	r1, #8
 3805 000c 3BD0     		beq	.L327
 3806 000e 41B3     		cbz	r1, .L336
 3807              	.LVL251:
 3808              	.L328:
 3809              		.loc 1 1471 3 view .LVU1070
 3810 0010 0022     		movs	r2, #0
 3811 0012 2146     		mov	r1, r4
 3812 0014 2868     		ldr	r0, [r5]
 3813 0016 FFF7FEFF 		bl	TIM_CCxNChannelCmd
 3814              	.LVL252:
ARM GAS  C:\Users\Ika\AppData\Local\Temp\ccf6m5Fc.s 			page 67


 3815              		.loc 1 1474 3 view .LVU1071
 3816              		.loc 1 1474 3 view .LVU1072
 3817 001a 2B68     		ldr	r3, [r5]
 3818 001c 196A     		ldr	r1, [r3, #32]
 3819 001e 41F21112 		movw	r2, #4369
 3820 0022 1142     		tst	r1, r2
 3821 0024 08D1     		bne	.L329
 3822              		.loc 1 1474 3 discriminator 1 view .LVU1073
 3823 0026 196A     		ldr	r1, [r3, #32]
 3824 0028 40F24442 		movw	r2, #1092
 3825 002c 1142     		tst	r1, r2
 3826 002e 03D1     		bne	.L329
 3827              		.loc 1 1474 3 discriminator 3 view .LVU1074
 3828 0030 5A6C     		ldr	r2, [r3, #68]
 3829 0032 22F40042 		bic	r2, r2, #32768
 3830 0036 5A64     		str	r2, [r3, #68]
 3831              	.L329:
 3832              		.loc 1 1474 3 discriminator 5 view .LVU1075
 3833              		.loc 1 1477 3 discriminator 5 view .LVU1076
 3834              		.loc 1 1477 3 discriminator 5 view .LVU1077
 3835 0038 2B68     		ldr	r3, [r5]
 3836 003a 196A     		ldr	r1, [r3, #32]
 3837 003c 41F21112 		movw	r2, #4369
 3838 0040 1142     		tst	r1, r2
 3839 0042 08D1     		bne	.L330
 3840              		.loc 1 1477 3 discriminator 1 view .LVU1078
 3841 0044 196A     		ldr	r1, [r3, #32]
 3842 0046 40F24442 		movw	r2, #1092
 3843 004a 1142     		tst	r1, r2
 3844 004c 03D1     		bne	.L330
 3845              		.loc 1 1477 3 discriminator 3 view .LVU1079
 3846 004e 1A68     		ldr	r2, [r3]
 3847 0050 22F00102 		bic	r2, r2, #1
 3848 0054 1A60     		str	r2, [r3]
 3849              	.L330:
 3850              		.loc 1 1477 3 discriminator 5 view .LVU1080
 3851              		.loc 1 1480 3 discriminator 5 view .LVU1081
 3852 0056 FCB9     		cbnz	r4, .L331
 3853              		.loc 1 1480 3 is_stmt 0 discriminator 1 view .LVU1082
 3854 0058 0123     		movs	r3, #1
 3855 005a 85F84230 		strb	r3, [r5, #66]
 3856              	.L332:
 3857              		.loc 1 1483 3 is_stmt 1 view .LVU1083
 3858              		.loc 1 1484 1 is_stmt 0 view .LVU1084
 3859 005e 0020     		movs	r0, #0
 3860 0060 38BD     		pop	{r3, r4, r5, pc}
 3861              	.LVL253:
 3862              	.L336:
 3863              		.loc 1 1445 7 is_stmt 1 view .LVU1085
 3864 0062 0268     		ldr	r2, [r0]
 3865 0064 D368     		ldr	r3, [r2, #12]
 3866 0066 23F40073 		bic	r3, r3, #512
 3867 006a D360     		str	r3, [r2, #12]
 3868              		.loc 1 1446 7 view .LVU1086
 3869              		.loc 1 1446 13 is_stmt 0 view .LVU1087
 3870 006c 406A     		ldr	r0, [r0, #36]
 3871              	.LVL254:
ARM GAS  C:\Users\Ika\AppData\Local\Temp\ccf6m5Fc.s 			page 68


 3872              		.loc 1 1446 13 view .LVU1088
 3873 006e FFF7FEFF 		bl	HAL_DMA_Abort_IT
 3874              	.LVL255:
 3875              		.loc 1 1447 7 is_stmt 1 view .LVU1089
 3876 0072 CDE7     		b	.L328
 3877              	.LVL256:
 3878              	.L326:
 3879              		.loc 1 1453 7 view .LVU1090
 3880 0074 0268     		ldr	r2, [r0]
 3881 0076 D368     		ldr	r3, [r2, #12]
 3882 0078 23F48063 		bic	r3, r3, #1024
 3883 007c D360     		str	r3, [r2, #12]
 3884              		.loc 1 1454 7 view .LVU1091
 3885              		.loc 1 1454 13 is_stmt 0 view .LVU1092
 3886 007e 806A     		ldr	r0, [r0, #40]
 3887              	.LVL257:
 3888              		.loc 1 1454 13 view .LVU1093
 3889 0080 FFF7FEFF 		bl	HAL_DMA_Abort_IT
 3890              	.LVL258:
 3891              		.loc 1 1455 7 is_stmt 1 view .LVU1094
 3892 0084 C4E7     		b	.L328
 3893              	.LVL259:
 3894              	.L327:
 3895              		.loc 1 1461 7 view .LVU1095
 3896 0086 0268     		ldr	r2, [r0]
 3897 0088 D368     		ldr	r3, [r2, #12]
 3898 008a 23F40063 		bic	r3, r3, #2048
 3899 008e D360     		str	r3, [r2, #12]
 3900              		.loc 1 1462 7 view .LVU1096
 3901              		.loc 1 1462 13 is_stmt 0 view .LVU1097
 3902 0090 C06A     		ldr	r0, [r0, #44]
 3903              	.LVL260:
 3904              		.loc 1 1462 13 view .LVU1098
 3905 0092 FFF7FEFF 		bl	HAL_DMA_Abort_IT
 3906              	.LVL261:
 3907              		.loc 1 1463 7 is_stmt 1 view .LVU1099
 3908 0096 BBE7     		b	.L328
 3909              	.L331:
 3910              		.loc 1 1480 3 is_stmt 0 discriminator 2 view .LVU1100
 3911 0098 042C     		cmp	r4, #4
 3912 009a 05D0     		beq	.L337
 3913              		.loc 1 1480 3 discriminator 4 view .LVU1101
 3914 009c 082C     		cmp	r4, #8
 3915 009e 07D0     		beq	.L338
 3916              		.loc 1 1480 3 discriminator 7 view .LVU1102
 3917 00a0 0123     		movs	r3, #1
 3918 00a2 85F84530 		strb	r3, [r5, #69]
 3919 00a6 DAE7     		b	.L332
 3920              	.L337:
 3921              		.loc 1 1480 3 discriminator 3 view .LVU1103
 3922 00a8 0123     		movs	r3, #1
 3923 00aa 85F84330 		strb	r3, [r5, #67]
 3924 00ae D6E7     		b	.L332
 3925              	.L338:
 3926              		.loc 1 1480 3 discriminator 6 view .LVU1104
 3927 00b0 0123     		movs	r3, #1
 3928 00b2 85F84430 		strb	r3, [r5, #68]
ARM GAS  C:\Users\Ika\AppData\Local\Temp\ccf6m5Fc.s 			page 69


 3929 00b6 D2E7     		b	.L332
 3930              		.cfi_endproc
 3931              	.LFE86:
 3933              		.section	.text.HAL_TIMEx_OnePulseN_Start,"ax",%progbits
 3934              		.align	1
 3935              		.global	HAL_TIMEx_OnePulseN_Start
 3936              		.syntax unified
 3937              		.thumb
 3938              		.thumb_func
 3939              		.fpu softvfp
 3941              	HAL_TIMEx_OnePulseN_Start:
 3942              	.LVL262:
 3943              	.LFB87:
 3944              		.loc 1 1519 1 is_stmt 1 view -0
 3945              		.cfi_startproc
 3946              		@ args = 0, pretend = 0, frame = 0
 3947              		@ frame_needed = 0, uses_anonymous_args = 0
 3948              		.loc 1 1519 1 is_stmt 0 view .LVU1106
 3949 0000 38B5     		push	{r3, r4, r5, lr}
 3950              	.LCFI30:
 3951              		.cfi_def_cfa_offset 16
 3952              		.cfi_offset 3, -16
 3953              		.cfi_offset 4, -12
 3954              		.cfi_offset 5, -8
 3955              		.cfi_offset 14, -4
 3956 0002 0446     		mov	r4, r0
 3957              		.loc 1 1520 3 is_stmt 1 view .LVU1107
 3958              		.loc 1 1520 77 is_stmt 0 view .LVU1108
 3959 0004 0B46     		mov	r3, r1
 3960 0006 29B3     		cbz	r1, .L340
 3961              	.LVL263:
 3962              		.loc 1 1521 3 is_stmt 1 view .LVU1109
 3963              		.loc 1 1521 53 is_stmt 0 view .LVU1110
 3964 0008 90F83E20 		ldrb	r2, [r0, #62]	@ zero_extendqisi2
 3965 000c D2B2     		uxtb	r2, r2
 3966              		.loc 1 1520 77 view .LVU1111
 3967 000e 0025     		movs	r5, #0
 3968              	.LVL264:
 3969              	.L341:
 3970              		.loc 1 1522 3 is_stmt 1 discriminator 12 view .LVU1112
 3971              		.loc 1 1522 54 is_stmt 0 discriminator 12 view .LVU1113
 3972 0010 2BBB     		cbnz	r3, .L342
 3973              		.loc 1 1522 54 discriminator 1 view .LVU1114
 3974 0012 94F84200 		ldrb	r0, [r4, #66]	@ zero_extendqisi2
 3975              	.LVL265:
 3976              		.loc 1 1522 54 discriminator 1 view .LVU1115
 3977 0016 C0B2     		uxtb	r0, r0
 3978              	.L343:
 3979              	.LVL266:
 3980              		.loc 1 1525 3 is_stmt 1 discriminator 12 view .LVU1116
 3981              		.loc 1 1528 3 discriminator 12 view .LVU1117
 3982              		.loc 1 1528 6 is_stmt 0 discriminator 12 view .LVU1118
 3983 0018 0128     		cmp	r0, #1
 3984 001a 49D1     		bne	.L354
 3985              		.loc 1 1529 7 view .LVU1119
 3986 001c 012A     		cmp	r2, #1
 3987 001e 48D1     		bne	.L346
ARM GAS  C:\Users\Ika\AppData\Local\Temp\ccf6m5Fc.s 			page 70


 3988              		.loc 1 1535 3 is_stmt 1 view .LVU1120
 3989 0020 6BBB     		cbnz	r3, .L347
 3990              		.loc 1 1535 3 is_stmt 0 discriminator 1 view .LVU1121
 3991 0022 0222     		movs	r2, #2
 3992              	.LVL267:
 3993              		.loc 1 1535 3 discriminator 1 view .LVU1122
 3994 0024 84F84220 		strb	r2, [r4, #66]
 3995              	.L348:
 3996              		.loc 1 1536 3 is_stmt 1 view .LVU1123
 3997 0028 002D     		cmp	r5, #0
 3998 002a 38D1     		bne	.L351
 3999              		.loc 1 1536 3 is_stmt 0 discriminator 1 view .LVU1124
 4000 002c 0222     		movs	r2, #2
 4001 002e 84F83E20 		strb	r2, [r4, #62]
 4002              	.L352:
 4003              		.loc 1 1539 3 is_stmt 1 view .LVU1125
 4004 0032 0422     		movs	r2, #4
 4005 0034 1946     		mov	r1, r3
 4006              	.LVL268:
 4007              		.loc 1 1539 3 is_stmt 0 view .LVU1126
 4008 0036 2068     		ldr	r0, [r4]
 4009              	.LVL269:
 4010              		.loc 1 1539 3 view .LVU1127
 4011 0038 FFF7FEFF 		bl	TIM_CCxNChannelCmd
 4012              	.LVL270:
 4013              		.loc 1 1540 3 is_stmt 1 view .LVU1128
 4014 003c 0122     		movs	r2, #1
 4015 003e 2946     		mov	r1, r5
 4016 0040 2068     		ldr	r0, [r4]
 4017 0042 FFF7FEFF 		bl	TIM_CCxChannelCmd
 4018              	.LVL271:
 4019              		.loc 1 1543 3 view .LVU1129
 4020 0046 2268     		ldr	r2, [r4]
 4021 0048 536C     		ldr	r3, [r2, #68]
 4022 004a 43F40043 		orr	r3, r3, #32768
 4023 004e 5364     		str	r3, [r2, #68]
 4024              		.loc 1 1546 3 view .LVU1130
 4025              		.loc 1 1546 10 is_stmt 0 view .LVU1131
 4026 0050 0020     		movs	r0, #0
 4027 0052 2EE0     		b	.L346
 4028              	.LVL272:
 4029              	.L340:
 4030              		.loc 1 1521 3 is_stmt 1 discriminator 4 view .LVU1132
 4031              		.loc 1 1521 53 is_stmt 0 discriminator 4 view .LVU1133
 4032 0054 90F83F20 		ldrb	r2, [r0, #63]	@ zero_extendqisi2
 4033 0058 D2B2     		uxtb	r2, r2
 4034              		.loc 1 1520 77 discriminator 4 view .LVU1134
 4035 005a 0425     		movs	r5, #4
 4036 005c D8E7     		b	.L341
 4037              	.LVL273:
 4038              	.L342:
 4039              		.loc 1 1522 54 discriminator 2 view .LVU1135
 4040 005e 042B     		cmp	r3, #4
 4041 0060 05D0     		beq	.L356
 4042              		.loc 1 1522 54 discriminator 5 view .LVU1136
 4043 0062 082B     		cmp	r3, #8
 4044 0064 07D0     		beq	.L357
ARM GAS  C:\Users\Ika\AppData\Local\Temp\ccf6m5Fc.s 			page 71


 4045              		.loc 1 1522 54 discriminator 8 view .LVU1137
 4046 0066 94F84500 		ldrb	r0, [r4, #69]	@ zero_extendqisi2
 4047              	.LVL274:
 4048              		.loc 1 1522 54 discriminator 8 view .LVU1138
 4049 006a C0B2     		uxtb	r0, r0
 4050 006c D4E7     		b	.L343
 4051              	.LVL275:
 4052              	.L356:
 4053              		.loc 1 1522 54 discriminator 4 view .LVU1139
 4054 006e 94F84300 		ldrb	r0, [r4, #67]	@ zero_extendqisi2
 4055              	.LVL276:
 4056              		.loc 1 1522 54 discriminator 4 view .LVU1140
 4057 0072 C0B2     		uxtb	r0, r0
 4058 0074 D0E7     		b	.L343
 4059              	.LVL277:
 4060              	.L357:
 4061              		.loc 1 1522 54 discriminator 7 view .LVU1141
 4062 0076 94F84400 		ldrb	r0, [r4, #68]	@ zero_extendqisi2
 4063              	.LVL278:
 4064              		.loc 1 1522 54 discriminator 7 view .LVU1142
 4065 007a C0B2     		uxtb	r0, r0
 4066 007c CCE7     		b	.L343
 4067              	.LVL279:
 4068              	.L347:
 4069              		.loc 1 1535 3 discriminator 2 view .LVU1143
 4070 007e 042B     		cmp	r3, #4
 4071 0080 05D0     		beq	.L358
 4072              		.loc 1 1535 3 discriminator 4 view .LVU1144
 4073 0082 082B     		cmp	r3, #8
 4074 0084 07D0     		beq	.L359
 4075              		.loc 1 1535 3 discriminator 7 view .LVU1145
 4076 0086 0222     		movs	r2, #2
 4077              	.LVL280:
 4078              		.loc 1 1535 3 discriminator 7 view .LVU1146
 4079 0088 84F84520 		strb	r2, [r4, #69]
 4080 008c CCE7     		b	.L348
 4081              	.LVL281:
 4082              	.L358:
 4083              		.loc 1 1535 3 discriminator 3 view .LVU1147
 4084 008e 0222     		movs	r2, #2
 4085              	.LVL282:
 4086              		.loc 1 1535 3 discriminator 3 view .LVU1148
 4087 0090 84F84320 		strb	r2, [r4, #67]
 4088 0094 C8E7     		b	.L348
 4089              	.LVL283:
 4090              	.L359:
 4091              		.loc 1 1535 3 discriminator 6 view .LVU1149
 4092 0096 0222     		movs	r2, #2
 4093              	.LVL284:
 4094              		.loc 1 1535 3 discriminator 6 view .LVU1150
 4095 0098 84F84420 		strb	r2, [r4, #68]
 4096 009c C4E7     		b	.L348
 4097              	.L351:
 4098              		.loc 1 1536 3 discriminator 2 view .LVU1151
 4099 009e 1DB9     		cbnz	r5, .L360
 4100              		.loc 1 1536 3 discriminator 7 view .LVU1152
 4101 00a0 0222     		movs	r2, #2
ARM GAS  C:\Users\Ika\AppData\Local\Temp\ccf6m5Fc.s 			page 72


 4102 00a2 84F84120 		strb	r2, [r4, #65]
 4103 00a6 C4E7     		b	.L352
 4104              	.L360:
 4105              		.loc 1 1536 3 discriminator 3 view .LVU1153
 4106 00a8 0222     		movs	r2, #2
 4107 00aa 84F83F20 		strb	r2, [r4, #63]
 4108 00ae C0E7     		b	.L352
 4109              	.LVL285:
 4110              	.L354:
 4111              		.loc 1 1531 12 view .LVU1154
 4112 00b0 0120     		movs	r0, #1
 4113              	.LVL286:
 4114              	.L346:
 4115              		.loc 1 1547 1 view .LVU1155
 4116 00b2 38BD     		pop	{r3, r4, r5, pc}
 4117              		.loc 1 1547 1 view .LVU1156
 4118              		.cfi_endproc
 4119              	.LFE87:
 4121              		.section	.text.HAL_TIMEx_OnePulseN_Stop,"ax",%progbits
 4122              		.align	1
 4123              		.global	HAL_TIMEx_OnePulseN_Stop
 4124              		.syntax unified
 4125              		.thumb
 4126              		.thumb_func
 4127              		.fpu softvfp
 4129              	HAL_TIMEx_OnePulseN_Stop:
 4130              	.LVL287:
 4131              	.LFB88:
 4132              		.loc 1 1560 1 is_stmt 1 view -0
 4133              		.cfi_startproc
 4134              		@ args = 0, pretend = 0, frame = 0
 4135              		@ frame_needed = 0, uses_anonymous_args = 0
 4136              		.loc 1 1560 1 is_stmt 0 view .LVU1158
 4137 0000 70B5     		push	{r4, r5, r6, lr}
 4138              	.LCFI31:
 4139              		.cfi_def_cfa_offset 16
 4140              		.cfi_offset 4, -16
 4141              		.cfi_offset 5, -12
 4142              		.cfi_offset 6, -8
 4143              		.cfi_offset 14, -4
 4144 0002 0446     		mov	r4, r0
 4145              		.loc 1 1561 3 is_stmt 1 view .LVU1159
 4146              		.loc 1 1561 77 is_stmt 0 view .LVU1160
 4147 0004 0D46     		mov	r5, r1
 4148 0006 0029     		cmp	r1, #0
 4149 0008 32D1     		bne	.L372
 4150 000a 0426     		movs	r6, #4
 4151              	.L362:
 4152              	.LVL288:
 4153              		.loc 1 1564 3 is_stmt 1 discriminator 4 view .LVU1161
 4154              		.loc 1 1567 3 discriminator 4 view .LVU1162
 4155 000c 0022     		movs	r2, #0
 4156 000e 2946     		mov	r1, r5
 4157              	.LVL289:
 4158              		.loc 1 1567 3 is_stmt 0 discriminator 4 view .LVU1163
 4159 0010 2068     		ldr	r0, [r4]
 4160              	.LVL290:
ARM GAS  C:\Users\Ika\AppData\Local\Temp\ccf6m5Fc.s 			page 73


 4161              		.loc 1 1567 3 discriminator 4 view .LVU1164
 4162 0012 FFF7FEFF 		bl	TIM_CCxNChannelCmd
 4163              	.LVL291:
 4164              		.loc 1 1568 3 is_stmt 1 discriminator 4 view .LVU1165
 4165 0016 0022     		movs	r2, #0
 4166 0018 3146     		mov	r1, r6
 4167 001a 2068     		ldr	r0, [r4]
 4168 001c FFF7FEFF 		bl	TIM_CCxChannelCmd
 4169              	.LVL292:
 4170              		.loc 1 1571 3 discriminator 4 view .LVU1166
 4171              		.loc 1 1571 3 discriminator 4 view .LVU1167
 4172 0020 2368     		ldr	r3, [r4]
 4173 0022 196A     		ldr	r1, [r3, #32]
 4174 0024 41F21112 		movw	r2, #4369
 4175 0028 1142     		tst	r1, r2
 4176 002a 08D1     		bne	.L363
 4177              		.loc 1 1571 3 discriminator 1 view .LVU1168
 4178 002c 196A     		ldr	r1, [r3, #32]
 4179 002e 40F24442 		movw	r2, #1092
 4180 0032 1142     		tst	r1, r2
 4181 0034 03D1     		bne	.L363
 4182              		.loc 1 1571 3 discriminator 3 view .LVU1169
 4183 0036 5A6C     		ldr	r2, [r3, #68]
 4184 0038 22F40042 		bic	r2, r2, #32768
 4185 003c 5A64     		str	r2, [r3, #68]
 4186              	.L363:
 4187              		.loc 1 1571 3 discriminator 5 view .LVU1170
 4188              		.loc 1 1574 3 discriminator 5 view .LVU1171
 4189              		.loc 1 1574 3 discriminator 5 view .LVU1172
 4190 003e 2368     		ldr	r3, [r4]
 4191 0040 196A     		ldr	r1, [r3, #32]
 4192 0042 41F21112 		movw	r2, #4369
 4193 0046 1142     		tst	r1, r2
 4194 0048 08D1     		bne	.L364
 4195              		.loc 1 1574 3 discriminator 1 view .LVU1173
 4196 004a 196A     		ldr	r1, [r3, #32]
 4197 004c 40F24442 		movw	r2, #1092
 4198 0050 1142     		tst	r1, r2
 4199 0052 03D1     		bne	.L364
 4200              		.loc 1 1574 3 discriminator 3 view .LVU1174
 4201 0054 1A68     		ldr	r2, [r3]
 4202 0056 22F00102 		bic	r2, r2, #1
 4203 005a 1A60     		str	r2, [r3]
 4204              	.L364:
 4205              		.loc 1 1574 3 discriminator 5 view .LVU1175
 4206              		.loc 1 1577 3 discriminator 5 view .LVU1176
 4207 005c 55B9     		cbnz	r5, .L365
 4208              		.loc 1 1577 3 is_stmt 0 discriminator 1 view .LVU1177
 4209 005e 0123     		movs	r3, #1
 4210 0060 84F84230 		strb	r3, [r4, #66]
 4211              	.L366:
 4212              		.loc 1 1578 3 is_stmt 1 view .LVU1178
 4213 0064 B6B9     		cbnz	r6, .L369
 4214              		.loc 1 1578 3 is_stmt 0 discriminator 1 view .LVU1179
 4215 0066 0123     		movs	r3, #1
 4216 0068 84F83E30 		strb	r3, [r4, #62]
 4217              	.L370:
ARM GAS  C:\Users\Ika\AppData\Local\Temp\ccf6m5Fc.s 			page 74


 4218              		.loc 1 1581 3 is_stmt 1 view .LVU1180
 4219              		.loc 1 1582 1 is_stmt 0 view .LVU1181
 4220 006c 0020     		movs	r0, #0
 4221 006e 70BD     		pop	{r4, r5, r6, pc}
 4222              	.LVL293:
 4223              	.L372:
 4224              		.loc 1 1561 77 view .LVU1182
 4225 0070 0026     		movs	r6, #0
 4226 0072 CBE7     		b	.L362
 4227              	.LVL294:
 4228              	.L365:
 4229              		.loc 1 1577 3 discriminator 2 view .LVU1183
 4230 0074 042D     		cmp	r5, #4
 4231 0076 05D0     		beq	.L374
 4232              		.loc 1 1577 3 discriminator 4 view .LVU1184
 4233 0078 082D     		cmp	r5, #8
 4234 007a 07D0     		beq	.L375
 4235              		.loc 1 1577 3 discriminator 7 view .LVU1185
 4236 007c 0123     		movs	r3, #1
 4237 007e 84F84530 		strb	r3, [r4, #69]
 4238 0082 EFE7     		b	.L366
 4239              	.L374:
 4240              		.loc 1 1577 3 discriminator 3 view .LVU1186
 4241 0084 0123     		movs	r3, #1
 4242 0086 84F84330 		strb	r3, [r4, #67]
 4243 008a EBE7     		b	.L366
 4244              	.L375:
 4245              		.loc 1 1577 3 discriminator 6 view .LVU1187
 4246 008c 0123     		movs	r3, #1
 4247 008e 84F84430 		strb	r3, [r4, #68]
 4248 0092 E7E7     		b	.L366
 4249              	.L369:
 4250              		.loc 1 1578 3 discriminator 2 view .LVU1188
 4251 0094 1EB9     		cbnz	r6, .L376
 4252              		.loc 1 1578 3 discriminator 7 view .LVU1189
 4253 0096 0123     		movs	r3, #1
 4254 0098 84F84130 		strb	r3, [r4, #65]
 4255 009c E6E7     		b	.L370
 4256              	.L376:
 4257              		.loc 1 1578 3 discriminator 3 view .LVU1190
 4258 009e 0123     		movs	r3, #1
 4259 00a0 84F83F30 		strb	r3, [r4, #63]
 4260 00a4 E2E7     		b	.L370
 4261              		.cfi_endproc
 4262              	.LFE88:
 4264              		.section	.text.HAL_TIMEx_OnePulseN_Start_IT,"ax",%progbits
 4265              		.align	1
 4266              		.global	HAL_TIMEx_OnePulseN_Start_IT
 4267              		.syntax unified
 4268              		.thumb
 4269              		.thumb_func
 4270              		.fpu softvfp
 4272              	HAL_TIMEx_OnePulseN_Start_IT:
 4273              	.LVL295:
 4274              	.LFB89:
 4275              		.loc 1 1595 1 is_stmt 1 view -0
 4276              		.cfi_startproc
ARM GAS  C:\Users\Ika\AppData\Local\Temp\ccf6m5Fc.s 			page 75


 4277              		@ args = 0, pretend = 0, frame = 0
 4278              		@ frame_needed = 0, uses_anonymous_args = 0
 4279              		.loc 1 1595 1 is_stmt 0 view .LVU1192
 4280 0000 38B5     		push	{r3, r4, r5, lr}
 4281              	.LCFI32:
 4282              		.cfi_def_cfa_offset 16
 4283              		.cfi_offset 3, -16
 4284              		.cfi_offset 4, -12
 4285              		.cfi_offset 5, -8
 4286              		.cfi_offset 14, -4
 4287 0002 0446     		mov	r4, r0
 4288              		.loc 1 1596 3 is_stmt 1 view .LVU1193
 4289              		.loc 1 1596 77 is_stmt 0 view .LVU1194
 4290 0004 0B46     		mov	r3, r1
 4291 0006 0029     		cmp	r1, #0
 4292 0008 31D0     		beq	.L378
 4293              	.LVL296:
 4294              		.loc 1 1597 3 is_stmt 1 view .LVU1195
 4295              		.loc 1 1597 53 is_stmt 0 view .LVU1196
 4296 000a 90F83E20 		ldrb	r2, [r0, #62]	@ zero_extendqisi2
 4297 000e D2B2     		uxtb	r2, r2
 4298              		.loc 1 1596 77 view .LVU1197
 4299 0010 0025     		movs	r5, #0
 4300              	.LVL297:
 4301              	.L379:
 4302              		.loc 1 1598 3 is_stmt 1 discriminator 12 view .LVU1198
 4303              		.loc 1 1598 54 is_stmt 0 discriminator 12 view .LVU1199
 4304 0012 002B     		cmp	r3, #0
 4305 0014 30D1     		bne	.L380
 4306              		.loc 1 1598 54 discriminator 1 view .LVU1200
 4307 0016 94F84200 		ldrb	r0, [r4, #66]	@ zero_extendqisi2
 4308              	.LVL298:
 4309              		.loc 1 1598 54 discriminator 1 view .LVU1201
 4310 001a C0B2     		uxtb	r0, r0
 4311              	.L381:
 4312              	.LVL299:
 4313              		.loc 1 1601 3 is_stmt 1 discriminator 12 view .LVU1202
 4314              		.loc 1 1604 3 discriminator 12 view .LVU1203
 4315              		.loc 1 1604 6 is_stmt 0 discriminator 12 view .LVU1204
 4316 001c 0128     		cmp	r0, #1
 4317 001e 54D1     		bne	.L392
 4318              		.loc 1 1605 7 view .LVU1205
 4319 0020 012A     		cmp	r2, #1
 4320 0022 53D1     		bne	.L384
 4321              		.loc 1 1611 3 is_stmt 1 view .LVU1206
 4322 0024 002B     		cmp	r3, #0
 4323 0026 37D1     		bne	.L385
 4324              		.loc 1 1611 3 is_stmt 0 discriminator 1 view .LVU1207
 4325 0028 0222     		movs	r2, #2
 4326              	.LVL300:
 4327              		.loc 1 1611 3 discriminator 1 view .LVU1208
 4328 002a 84F84220 		strb	r2, [r4, #66]
 4329              	.L386:
 4330              		.loc 1 1612 3 is_stmt 1 view .LVU1209
 4331 002e 002D     		cmp	r5, #0
 4332 0030 42D1     		bne	.L389
 4333              		.loc 1 1612 3 is_stmt 0 discriminator 1 view .LVU1210
ARM GAS  C:\Users\Ika\AppData\Local\Temp\ccf6m5Fc.s 			page 76


 4334 0032 0222     		movs	r2, #2
 4335 0034 84F83E20 		strb	r2, [r4, #62]
 4336              	.L390:
 4337              		.loc 1 1615 3 is_stmt 1 view .LVU1211
 4338 0038 2168     		ldr	r1, [r4]
 4339              	.LVL301:
 4340              		.loc 1 1615 3 is_stmt 0 view .LVU1212
 4341 003a CA68     		ldr	r2, [r1, #12]
 4342 003c 42F00202 		orr	r2, r2, #2
 4343 0040 CA60     		str	r2, [r1, #12]
 4344              		.loc 1 1618 3 is_stmt 1 view .LVU1213
 4345 0042 2168     		ldr	r1, [r4]
 4346 0044 CA68     		ldr	r2, [r1, #12]
 4347 0046 42F00402 		orr	r2, r2, #4
 4348 004a CA60     		str	r2, [r1, #12]
 4349              		.loc 1 1621 3 view .LVU1214
 4350 004c 0422     		movs	r2, #4
 4351 004e 1946     		mov	r1, r3
 4352 0050 2068     		ldr	r0, [r4]
 4353              	.LVL302:
 4354              		.loc 1 1621 3 is_stmt 0 view .LVU1215
 4355 0052 FFF7FEFF 		bl	TIM_CCxNChannelCmd
 4356              	.LVL303:
 4357              		.loc 1 1622 3 is_stmt 1 view .LVU1216
 4358 0056 0122     		movs	r2, #1
 4359 0058 2946     		mov	r1, r5
 4360 005a 2068     		ldr	r0, [r4]
 4361 005c FFF7FEFF 		bl	TIM_CCxChannelCmd
 4362              	.LVL304:
 4363              		.loc 1 1625 3 view .LVU1217
 4364 0060 2268     		ldr	r2, [r4]
 4365 0062 536C     		ldr	r3, [r2, #68]
 4366 0064 43F40043 		orr	r3, r3, #32768
 4367 0068 5364     		str	r3, [r2, #68]
 4368              		.loc 1 1628 3 view .LVU1218
 4369              		.loc 1 1628 10 is_stmt 0 view .LVU1219
 4370 006a 0020     		movs	r0, #0
 4371 006c 2EE0     		b	.L384
 4372              	.LVL305:
 4373              	.L378:
 4374              		.loc 1 1597 3 is_stmt 1 discriminator 4 view .LVU1220
 4375              		.loc 1 1597 53 is_stmt 0 discriminator 4 view .LVU1221
 4376 006e 90F83F20 		ldrb	r2, [r0, #63]	@ zero_extendqisi2
 4377 0072 D2B2     		uxtb	r2, r2
 4378              		.loc 1 1596 77 discriminator 4 view .LVU1222
 4379 0074 0425     		movs	r5, #4
 4380 0076 CCE7     		b	.L379
 4381              	.LVL306:
 4382              	.L380:
 4383              		.loc 1 1598 54 discriminator 2 view .LVU1223
 4384 0078 042B     		cmp	r3, #4
 4385 007a 05D0     		beq	.L394
 4386              		.loc 1 1598 54 discriminator 5 view .LVU1224
 4387 007c 082B     		cmp	r3, #8
 4388 007e 07D0     		beq	.L395
 4389              		.loc 1 1598 54 discriminator 8 view .LVU1225
 4390 0080 94F84500 		ldrb	r0, [r4, #69]	@ zero_extendqisi2
ARM GAS  C:\Users\Ika\AppData\Local\Temp\ccf6m5Fc.s 			page 77


 4391              	.LVL307:
 4392              		.loc 1 1598 54 discriminator 8 view .LVU1226
 4393 0084 C0B2     		uxtb	r0, r0
 4394 0086 C9E7     		b	.L381
 4395              	.LVL308:
 4396              	.L394:
 4397              		.loc 1 1598 54 discriminator 4 view .LVU1227
 4398 0088 94F84300 		ldrb	r0, [r4, #67]	@ zero_extendqisi2
 4399              	.LVL309:
 4400              		.loc 1 1598 54 discriminator 4 view .LVU1228
 4401 008c C0B2     		uxtb	r0, r0
 4402 008e C5E7     		b	.L381
 4403              	.LVL310:
 4404              	.L395:
 4405              		.loc 1 1598 54 discriminator 7 view .LVU1229
 4406 0090 94F84400 		ldrb	r0, [r4, #68]	@ zero_extendqisi2
 4407              	.LVL311:
 4408              		.loc 1 1598 54 discriminator 7 view .LVU1230
 4409 0094 C0B2     		uxtb	r0, r0
 4410 0096 C1E7     		b	.L381
 4411              	.LVL312:
 4412              	.L385:
 4413              		.loc 1 1611 3 discriminator 2 view .LVU1231
 4414 0098 042B     		cmp	r3, #4
 4415 009a 05D0     		beq	.L396
 4416              		.loc 1 1611 3 discriminator 4 view .LVU1232
 4417 009c 082B     		cmp	r3, #8
 4418 009e 07D0     		beq	.L397
 4419              		.loc 1 1611 3 discriminator 7 view .LVU1233
 4420 00a0 0222     		movs	r2, #2
 4421              	.LVL313:
 4422              		.loc 1 1611 3 discriminator 7 view .LVU1234
 4423 00a2 84F84520 		strb	r2, [r4, #69]
 4424 00a6 C2E7     		b	.L386
 4425              	.LVL314:
 4426              	.L396:
 4427              		.loc 1 1611 3 discriminator 3 view .LVU1235
 4428 00a8 0222     		movs	r2, #2
 4429              	.LVL315:
 4430              		.loc 1 1611 3 discriminator 3 view .LVU1236
 4431 00aa 84F84320 		strb	r2, [r4, #67]
 4432 00ae BEE7     		b	.L386
 4433              	.LVL316:
 4434              	.L397:
 4435              		.loc 1 1611 3 discriminator 6 view .LVU1237
 4436 00b0 0222     		movs	r2, #2
 4437              	.LVL317:
 4438              		.loc 1 1611 3 discriminator 6 view .LVU1238
 4439 00b2 84F84420 		strb	r2, [r4, #68]
 4440 00b6 BAE7     		b	.L386
 4441              	.L389:
 4442              		.loc 1 1612 3 discriminator 2 view .LVU1239
 4443 00b8 1DB9     		cbnz	r5, .L398
 4444              		.loc 1 1612 3 discriminator 7 view .LVU1240
 4445 00ba 0222     		movs	r2, #2
 4446 00bc 84F84120 		strb	r2, [r4, #65]
 4447 00c0 BAE7     		b	.L390
ARM GAS  C:\Users\Ika\AppData\Local\Temp\ccf6m5Fc.s 			page 78


 4448              	.L398:
 4449              		.loc 1 1612 3 discriminator 3 view .LVU1241
 4450 00c2 0222     		movs	r2, #2
 4451 00c4 84F83F20 		strb	r2, [r4, #63]
 4452 00c8 B6E7     		b	.L390
 4453              	.LVL318:
 4454              	.L392:
 4455              		.loc 1 1607 12 view .LVU1242
 4456 00ca 0120     		movs	r0, #1
 4457              	.LVL319:
 4458              	.L384:
 4459              		.loc 1 1629 1 view .LVU1243
 4460 00cc 38BD     		pop	{r3, r4, r5, pc}
 4461              		.loc 1 1629 1 view .LVU1244
 4462              		.cfi_endproc
 4463              	.LFE89:
 4465              		.section	.text.HAL_TIMEx_OnePulseN_Stop_IT,"ax",%progbits
 4466              		.align	1
 4467              		.global	HAL_TIMEx_OnePulseN_Stop_IT
 4468              		.syntax unified
 4469              		.thumb
 4470              		.thumb_func
 4471              		.fpu softvfp
 4473              	HAL_TIMEx_OnePulseN_Stop_IT:
 4474              	.LVL320:
 4475              	.LFB90:
 4476              		.loc 1 1642 1 is_stmt 1 view -0
 4477              		.cfi_startproc
 4478              		@ args = 0, pretend = 0, frame = 0
 4479              		@ frame_needed = 0, uses_anonymous_args = 0
 4480              		.loc 1 1642 1 is_stmt 0 view .LVU1246
 4481 0000 70B5     		push	{r4, r5, r6, lr}
 4482              	.LCFI33:
 4483              		.cfi_def_cfa_offset 16
 4484              		.cfi_offset 4, -16
 4485              		.cfi_offset 5, -12
 4486              		.cfi_offset 6, -8
 4487              		.cfi_offset 14, -4
 4488 0002 0446     		mov	r4, r0
 4489              		.loc 1 1643 3 is_stmt 1 view .LVU1247
 4490              		.loc 1 1643 77 is_stmt 0 view .LVU1248
 4491 0004 0D46     		mov	r5, r1
 4492 0006 0029     		cmp	r1, #0
 4493 0008 3CD1     		bne	.L410
 4494 000a 0426     		movs	r6, #4
 4495              	.L400:
 4496              	.LVL321:
 4497              		.loc 1 1646 3 is_stmt 1 discriminator 4 view .LVU1249
 4498              		.loc 1 1649 3 discriminator 4 view .LVU1250
 4499 000c 2268     		ldr	r2, [r4]
 4500 000e D368     		ldr	r3, [r2, #12]
 4501 0010 23F00203 		bic	r3, r3, #2
 4502 0014 D360     		str	r3, [r2, #12]
 4503              		.loc 1 1652 3 discriminator 4 view .LVU1251
 4504 0016 2268     		ldr	r2, [r4]
 4505 0018 D368     		ldr	r3, [r2, #12]
 4506 001a 23F00403 		bic	r3, r3, #4
ARM GAS  C:\Users\Ika\AppData\Local\Temp\ccf6m5Fc.s 			page 79


 4507 001e D360     		str	r3, [r2, #12]
 4508              		.loc 1 1655 3 discriminator 4 view .LVU1252
 4509 0020 0022     		movs	r2, #0
 4510 0022 2946     		mov	r1, r5
 4511              	.LVL322:
 4512              		.loc 1 1655 3 is_stmt 0 discriminator 4 view .LVU1253
 4513 0024 2068     		ldr	r0, [r4]
 4514              	.LVL323:
 4515              		.loc 1 1655 3 discriminator 4 view .LVU1254
 4516 0026 FFF7FEFF 		bl	TIM_CCxNChannelCmd
 4517              	.LVL324:
 4518              		.loc 1 1656 3 is_stmt 1 discriminator 4 view .LVU1255
 4519 002a 0022     		movs	r2, #0
 4520 002c 3146     		mov	r1, r6
 4521 002e 2068     		ldr	r0, [r4]
 4522 0030 FFF7FEFF 		bl	TIM_CCxChannelCmd
 4523              	.LVL325:
 4524              		.loc 1 1659 3 discriminator 4 view .LVU1256
 4525              		.loc 1 1659 3 discriminator 4 view .LVU1257
 4526 0034 2368     		ldr	r3, [r4]
 4527 0036 196A     		ldr	r1, [r3, #32]
 4528 0038 41F21112 		movw	r2, #4369
 4529 003c 1142     		tst	r1, r2
 4530 003e 08D1     		bne	.L401
 4531              		.loc 1 1659 3 discriminator 1 view .LVU1258
 4532 0040 196A     		ldr	r1, [r3, #32]
 4533 0042 40F24442 		movw	r2, #1092
 4534 0046 1142     		tst	r1, r2
 4535 0048 03D1     		bne	.L401
 4536              		.loc 1 1659 3 discriminator 3 view .LVU1259
 4537 004a 5A6C     		ldr	r2, [r3, #68]
 4538 004c 22F40042 		bic	r2, r2, #32768
 4539 0050 5A64     		str	r2, [r3, #68]
 4540              	.L401:
 4541              		.loc 1 1659 3 discriminator 5 view .LVU1260
 4542              		.loc 1 1662 3 discriminator 5 view .LVU1261
 4543              		.loc 1 1662 3 discriminator 5 view .LVU1262
 4544 0052 2368     		ldr	r3, [r4]
 4545 0054 196A     		ldr	r1, [r3, #32]
 4546 0056 41F21112 		movw	r2, #4369
 4547 005a 1142     		tst	r1, r2
 4548 005c 08D1     		bne	.L402
 4549              		.loc 1 1662 3 discriminator 1 view .LVU1263
 4550 005e 196A     		ldr	r1, [r3, #32]
 4551 0060 40F24442 		movw	r2, #1092
 4552 0064 1142     		tst	r1, r2
 4553 0066 03D1     		bne	.L402
 4554              		.loc 1 1662 3 discriminator 3 view .LVU1264
 4555 0068 1A68     		ldr	r2, [r3]
 4556 006a 22F00102 		bic	r2, r2, #1
 4557 006e 1A60     		str	r2, [r3]
 4558              	.L402:
 4559              		.loc 1 1662 3 discriminator 5 view .LVU1265
 4560              		.loc 1 1665 3 discriminator 5 view .LVU1266
 4561 0070 55B9     		cbnz	r5, .L403
 4562              		.loc 1 1665 3 is_stmt 0 discriminator 1 view .LVU1267
 4563 0072 0123     		movs	r3, #1
ARM GAS  C:\Users\Ika\AppData\Local\Temp\ccf6m5Fc.s 			page 80


 4564 0074 84F84230 		strb	r3, [r4, #66]
 4565              	.L404:
 4566              		.loc 1 1666 3 is_stmt 1 view .LVU1268
 4567 0078 B6B9     		cbnz	r6, .L407
 4568              		.loc 1 1666 3 is_stmt 0 discriminator 1 view .LVU1269
 4569 007a 0123     		movs	r3, #1
 4570 007c 84F83E30 		strb	r3, [r4, #62]
 4571              	.L408:
 4572              		.loc 1 1669 3 is_stmt 1 view .LVU1270
 4573              		.loc 1 1670 1 is_stmt 0 view .LVU1271
 4574 0080 0020     		movs	r0, #0
 4575 0082 70BD     		pop	{r4, r5, r6, pc}
 4576              	.LVL326:
 4577              	.L410:
 4578              		.loc 1 1643 77 view .LVU1272
 4579 0084 0026     		movs	r6, #0
 4580 0086 C1E7     		b	.L400
 4581              	.LVL327:
 4582              	.L403:
 4583              		.loc 1 1665 3 discriminator 2 view .LVU1273
 4584 0088 042D     		cmp	r5, #4
 4585 008a 05D0     		beq	.L412
 4586              		.loc 1 1665 3 discriminator 4 view .LVU1274
 4587 008c 082D     		cmp	r5, #8
 4588 008e 07D0     		beq	.L413
 4589              		.loc 1 1665 3 discriminator 7 view .LVU1275
 4590 0090 0123     		movs	r3, #1
 4591 0092 84F84530 		strb	r3, [r4, #69]
 4592 0096 EFE7     		b	.L404
 4593              	.L412:
 4594              		.loc 1 1665 3 discriminator 3 view .LVU1276
 4595 0098 0123     		movs	r3, #1
 4596 009a 84F84330 		strb	r3, [r4, #67]
 4597 009e EBE7     		b	.L404
 4598              	.L413:
 4599              		.loc 1 1665 3 discriminator 6 view .LVU1277
 4600 00a0 0123     		movs	r3, #1
 4601 00a2 84F84430 		strb	r3, [r4, #68]
 4602 00a6 E7E7     		b	.L404
 4603              	.L407:
 4604              		.loc 1 1666 3 discriminator 2 view .LVU1278
 4605 00a8 1EB9     		cbnz	r6, .L414
 4606              		.loc 1 1666 3 discriminator 7 view .LVU1279
 4607 00aa 0123     		movs	r3, #1
 4608 00ac 84F84130 		strb	r3, [r4, #65]
 4609 00b0 E6E7     		b	.L408
 4610              	.L414:
 4611              		.loc 1 1666 3 discriminator 3 view .LVU1280
 4612 00b2 0123     		movs	r3, #1
 4613 00b4 84F83F30 		strb	r3, [r4, #63]
 4614 00b8 E2E7     		b	.L408
 4615              		.cfi_endproc
 4616              	.LFE90:
 4618              		.section	.text.HAL_TIMEx_ConfigCommutEvent,"ax",%progbits
 4619              		.align	1
 4620              		.global	HAL_TIMEx_ConfigCommutEvent
 4621              		.syntax unified
ARM GAS  C:\Users\Ika\AppData\Local\Temp\ccf6m5Fc.s 			page 81


 4622              		.thumb
 4623              		.thumb_func
 4624              		.fpu softvfp
 4626              	HAL_TIMEx_ConfigCommutEvent:
 4627              	.LVL328:
 4628              	.LFB91:
 4629              		.loc 1 1720 1 is_stmt 1 view -0
 4630              		.cfi_startproc
 4631              		@ args = 0, pretend = 0, frame = 0
 4632              		@ frame_needed = 0, uses_anonymous_args = 0
 4633              		@ link register save eliminated.
 4634              		.loc 1 1722 3 view .LVU1282
 4635              		.loc 1 1723 3 view .LVU1283
 4636              		.loc 1 1725 3 view .LVU1284
 4637              		.loc 1 1725 3 view .LVU1285
 4638 0000 90F83C30 		ldrb	r3, [r0, #60]	@ zero_extendqisi2
 4639 0004 012B     		cmp	r3, #1
 4640 0006 31D0     		beq	.L419
 4641              		.loc 1 1720 1 is_stmt 0 discriminator 2 view .LVU1286
 4642 0008 10B4     		push	{r4}
 4643              	.LCFI34:
 4644              		.cfi_def_cfa_offset 4
 4645              		.cfi_offset 4, -4
 4646              		.loc 1 1725 3 is_stmt 1 discriminator 2 view .LVU1287
 4647 000a 0123     		movs	r3, #1
 4648 000c 80F83C30 		strb	r3, [r0, #60]
 4649              		.loc 1 1725 3 discriminator 2 view .LVU1288
 4650              		.loc 1 1727 3 discriminator 2 view .LVU1289
 4651              		.loc 1 1727 6 is_stmt 0 discriminator 2 view .LVU1290
 4652 0010 29B1     		cbz	r1, .L417
 4653              		.loc 1 1727 37 discriminator 1 view .LVU1291
 4654 0012 1029     		cmp	r1, #16
 4655 0014 03D0     		beq	.L417
 4656              		.loc 1 1727 70 discriminator 2 view .LVU1292
 4657 0016 2029     		cmp	r1, #32
 4658 0018 01D0     		beq	.L417
 4659              		.loc 1 1728 37 view .LVU1293
 4660 001a 3029     		cmp	r1, #48
 4661 001c 08D1     		bne	.L418
 4662              	.L417:
 4663              		.loc 1 1731 5 is_stmt 1 view .LVU1294
 4664              		.loc 1 1731 9 is_stmt 0 view .LVU1295
 4665 001e 0468     		ldr	r4, [r0]
 4666              		.loc 1 1731 26 view .LVU1296
 4667 0020 A368     		ldr	r3, [r4, #8]
 4668 0022 23F07003 		bic	r3, r3, #112
 4669 0026 A360     		str	r3, [r4, #8]
 4670              		.loc 1 1732 5 is_stmt 1 view .LVU1297
 4671              		.loc 1 1732 9 is_stmt 0 view .LVU1298
 4672 0028 0468     		ldr	r4, [r0]
 4673              		.loc 1 1732 26 view .LVU1299
 4674 002a A368     		ldr	r3, [r4, #8]
 4675 002c 1943     		orrs	r1, r1, r3
 4676              	.LVL329:
 4677              		.loc 1 1732 26 view .LVU1300
 4678 002e A160     		str	r1, [r4, #8]
 4679              	.L418:
ARM GAS  C:\Users\Ika\AppData\Local\Temp\ccf6m5Fc.s 			page 82


 4680              		.loc 1 1736 3 is_stmt 1 view .LVU1301
 4681              		.loc 1 1736 7 is_stmt 0 view .LVU1302
 4682 0030 0168     		ldr	r1, [r0]
 4683              		.loc 1 1736 23 view .LVU1303
 4684 0032 4B68     		ldr	r3, [r1, #4]
 4685 0034 43F00103 		orr	r3, r3, #1
 4686 0038 4B60     		str	r3, [r1, #4]
 4687              		.loc 1 1738 3 is_stmt 1 view .LVU1304
 4688              		.loc 1 1738 7 is_stmt 0 view .LVU1305
 4689 003a 0168     		ldr	r1, [r0]
 4690              		.loc 1 1738 23 view .LVU1306
 4691 003c 4B68     		ldr	r3, [r1, #4]
 4692 003e 23F00403 		bic	r3, r3, #4
 4693 0042 4B60     		str	r3, [r1, #4]
 4694              		.loc 1 1739 3 is_stmt 1 view .LVU1307
 4695              		.loc 1 1739 7 is_stmt 0 view .LVU1308
 4696 0044 0168     		ldr	r1, [r0]
 4697              		.loc 1 1739 23 view .LVU1309
 4698 0046 4B68     		ldr	r3, [r1, #4]
 4699 0048 1A43     		orrs	r2, r2, r3
 4700              	.LVL330:
 4701              		.loc 1 1739 23 view .LVU1310
 4702 004a 4A60     		str	r2, [r1, #4]
 4703              		.loc 1 1742 3 is_stmt 1 view .LVU1311
 4704 004c 0268     		ldr	r2, [r0]
 4705 004e D368     		ldr	r3, [r2, #12]
 4706 0050 23F02003 		bic	r3, r3, #32
 4707 0054 D360     		str	r3, [r2, #12]
 4708              		.loc 1 1745 3 view .LVU1312
 4709 0056 0268     		ldr	r2, [r0]
 4710 0058 D368     		ldr	r3, [r2, #12]
 4711 005a 23F40053 		bic	r3, r3, #8192
 4712 005e D360     		str	r3, [r2, #12]
 4713              		.loc 1 1747 3 view .LVU1313
 4714              		.loc 1 1747 3 view .LVU1314
 4715 0060 0023     		movs	r3, #0
 4716 0062 80F83C30 		strb	r3, [r0, #60]
 4717              		.loc 1 1747 3 view .LVU1315
 4718              		.loc 1 1749 3 view .LVU1316
 4719              		.loc 1 1749 10 is_stmt 0 view .LVU1317
 4720 0066 1846     		mov	r0, r3
 4721              	.LVL331:
 4722              		.loc 1 1750 1 view .LVU1318
 4723 0068 10BC     		pop	{r4}
 4724              	.LCFI35:
 4725              		.cfi_restore 4
 4726              		.cfi_def_cfa_offset 0
 4727 006a 7047     		bx	lr
 4728              	.LVL332:
 4729              	.L419:
 4730              		.loc 1 1725 3 view .LVU1319
 4731 006c 0220     		movs	r0, #2
 4732              	.LVL333:
 4733              		.loc 1 1750 1 view .LVU1320
 4734 006e 7047     		bx	lr
 4735              		.cfi_endproc
 4736              	.LFE91:
ARM GAS  C:\Users\Ika\AppData\Local\Temp\ccf6m5Fc.s 			page 83


 4738              		.section	.text.HAL_TIMEx_ConfigCommutEvent_IT,"ax",%progbits
 4739              		.align	1
 4740              		.global	HAL_TIMEx_ConfigCommutEvent_IT
 4741              		.syntax unified
 4742              		.thumb
 4743              		.thumb_func
 4744              		.fpu softvfp
 4746              	HAL_TIMEx_ConfigCommutEvent_IT:
 4747              	.LVL334:
 4748              	.LFB92:
 4749              		.loc 1 1776 1 is_stmt 1 view -0
 4750              		.cfi_startproc
 4751              		@ args = 0, pretend = 0, frame = 0
 4752              		@ frame_needed = 0, uses_anonymous_args = 0
 4753              		@ link register save eliminated.
 4754              		.loc 1 1778 3 view .LVU1322
 4755              		.loc 1 1779 3 view .LVU1323
 4756              		.loc 1 1781 3 view .LVU1324
 4757              		.loc 1 1781 3 view .LVU1325
 4758 0000 90F83C30 		ldrb	r3, [r0, #60]	@ zero_extendqisi2
 4759 0004 012B     		cmp	r3, #1
 4760 0006 31D0     		beq	.L428
 4761              		.loc 1 1776 1 is_stmt 0 discriminator 2 view .LVU1326
 4762 0008 10B4     		push	{r4}
 4763              	.LCFI36:
 4764              		.cfi_def_cfa_offset 4
 4765              		.cfi_offset 4, -4
 4766              		.loc 1 1781 3 is_stmt 1 discriminator 2 view .LVU1327
 4767 000a 0123     		movs	r3, #1
 4768 000c 80F83C30 		strb	r3, [r0, #60]
 4769              		.loc 1 1781 3 discriminator 2 view .LVU1328
 4770              		.loc 1 1783 3 discriminator 2 view .LVU1329
 4771              		.loc 1 1783 6 is_stmt 0 discriminator 2 view .LVU1330
 4772 0010 29B1     		cbz	r1, .L426
 4773              		.loc 1 1783 37 discriminator 1 view .LVU1331
 4774 0012 1029     		cmp	r1, #16
 4775 0014 03D0     		beq	.L426
 4776              		.loc 1 1783 70 discriminator 2 view .LVU1332
 4777 0016 2029     		cmp	r1, #32
 4778 0018 01D0     		beq	.L426
 4779              		.loc 1 1784 37 view .LVU1333
 4780 001a 3029     		cmp	r1, #48
 4781 001c 08D1     		bne	.L427
 4782              	.L426:
 4783              		.loc 1 1787 5 is_stmt 1 view .LVU1334
 4784              		.loc 1 1787 9 is_stmt 0 view .LVU1335
 4785 001e 0468     		ldr	r4, [r0]
 4786              		.loc 1 1787 26 view .LVU1336
 4787 0020 A368     		ldr	r3, [r4, #8]
 4788 0022 23F07003 		bic	r3, r3, #112
 4789 0026 A360     		str	r3, [r4, #8]
 4790              		.loc 1 1788 5 is_stmt 1 view .LVU1337
 4791              		.loc 1 1788 9 is_stmt 0 view .LVU1338
 4792 0028 0468     		ldr	r4, [r0]
 4793              		.loc 1 1788 26 view .LVU1339
 4794 002a A368     		ldr	r3, [r4, #8]
 4795 002c 1943     		orrs	r1, r1, r3
ARM GAS  C:\Users\Ika\AppData\Local\Temp\ccf6m5Fc.s 			page 84


 4796              	.LVL335:
 4797              		.loc 1 1788 26 view .LVU1340
 4798 002e A160     		str	r1, [r4, #8]
 4799              	.L427:
 4800              		.loc 1 1792 3 is_stmt 1 view .LVU1341
 4801              		.loc 1 1792 7 is_stmt 0 view .LVU1342
 4802 0030 0168     		ldr	r1, [r0]
 4803              		.loc 1 1792 23 view .LVU1343
 4804 0032 4B68     		ldr	r3, [r1, #4]
 4805 0034 43F00103 		orr	r3, r3, #1
 4806 0038 4B60     		str	r3, [r1, #4]
 4807              		.loc 1 1794 3 is_stmt 1 view .LVU1344
 4808              		.loc 1 1794 7 is_stmt 0 view .LVU1345
 4809 003a 0168     		ldr	r1, [r0]
 4810              		.loc 1 1794 23 view .LVU1346
 4811 003c 4B68     		ldr	r3, [r1, #4]
 4812 003e 23F00403 		bic	r3, r3, #4
 4813 0042 4B60     		str	r3, [r1, #4]
 4814              		.loc 1 1795 3 is_stmt 1 view .LVU1347
 4815              		.loc 1 1795 7 is_stmt 0 view .LVU1348
 4816 0044 0168     		ldr	r1, [r0]
 4817              		.loc 1 1795 23 view .LVU1349
 4818 0046 4B68     		ldr	r3, [r1, #4]
 4819 0048 1A43     		orrs	r2, r2, r3
 4820              	.LVL336:
 4821              		.loc 1 1795 23 view .LVU1350
 4822 004a 4A60     		str	r2, [r1, #4]
 4823              		.loc 1 1798 3 is_stmt 1 view .LVU1351
 4824 004c 0268     		ldr	r2, [r0]
 4825 004e D368     		ldr	r3, [r2, #12]
 4826 0050 23F40053 		bic	r3, r3, #8192
 4827 0054 D360     		str	r3, [r2, #12]
 4828              		.loc 1 1801 3 view .LVU1352
 4829 0056 0268     		ldr	r2, [r0]
 4830 0058 D368     		ldr	r3, [r2, #12]
 4831 005a 43F02003 		orr	r3, r3, #32
 4832 005e D360     		str	r3, [r2, #12]
 4833              		.loc 1 1803 3 view .LVU1353
 4834              		.loc 1 1803 3 view .LVU1354
 4835 0060 0023     		movs	r3, #0
 4836 0062 80F83C30 		strb	r3, [r0, #60]
 4837              		.loc 1 1803 3 view .LVU1355
 4838              		.loc 1 1805 3 view .LVU1356
 4839              		.loc 1 1805 10 is_stmt 0 view .LVU1357
 4840 0066 1846     		mov	r0, r3
 4841              	.LVL337:
 4842              		.loc 1 1806 1 view .LVU1358
 4843 0068 10BC     		pop	{r4}
 4844              	.LCFI37:
 4845              		.cfi_restore 4
 4846              		.cfi_def_cfa_offset 0
 4847 006a 7047     		bx	lr
 4848              	.LVL338:
 4849              	.L428:
 4850              		.loc 1 1781 3 view .LVU1359
 4851 006c 0220     		movs	r0, #2
 4852              	.LVL339:
ARM GAS  C:\Users\Ika\AppData\Local\Temp\ccf6m5Fc.s 			page 85


 4853              		.loc 1 1806 1 view .LVU1360
 4854 006e 7047     		bx	lr
 4855              		.cfi_endproc
 4856              	.LFE92:
 4858              		.section	.text.HAL_TIMEx_ConfigCommutEvent_DMA,"ax",%progbits
 4859              		.align	1
 4860              		.global	HAL_TIMEx_ConfigCommutEvent_DMA
 4861              		.syntax unified
 4862              		.thumb
 4863              		.thumb_func
 4864              		.fpu softvfp
 4866              	HAL_TIMEx_ConfigCommutEvent_DMA:
 4867              	.LVL340:
 4868              	.LFB93:
 4869              		.loc 1 1833 1 is_stmt 1 view -0
 4870              		.cfi_startproc
 4871              		@ args = 0, pretend = 0, frame = 0
 4872              		@ frame_needed = 0, uses_anonymous_args = 0
 4873              		@ link register save eliminated.
 4874              		.loc 1 1835 3 view .LVU1362
 4875              		.loc 1 1836 3 view .LVU1363
 4876              		.loc 1 1838 3 view .LVU1364
 4877              		.loc 1 1838 3 view .LVU1365
 4878 0000 90F83C30 		ldrb	r3, [r0, #60]	@ zero_extendqisi2
 4879 0004 012B     		cmp	r3, #1
 4880 0006 3AD0     		beq	.L437
 4881              		.loc 1 1833 1 is_stmt 0 discriminator 2 view .LVU1366
 4882 0008 10B4     		push	{r4}
 4883              	.LCFI38:
 4884              		.cfi_def_cfa_offset 4
 4885              		.cfi_offset 4, -4
 4886              		.loc 1 1838 3 is_stmt 1 discriminator 2 view .LVU1367
 4887 000a 0123     		movs	r3, #1
 4888 000c 80F83C30 		strb	r3, [r0, #60]
 4889              		.loc 1 1838 3 discriminator 2 view .LVU1368
 4890              		.loc 1 1840 3 discriminator 2 view .LVU1369
 4891              		.loc 1 1840 6 is_stmt 0 discriminator 2 view .LVU1370
 4892 0010 29B1     		cbz	r1, .L435
 4893              		.loc 1 1840 37 discriminator 1 view .LVU1371
 4894 0012 1029     		cmp	r1, #16
 4895 0014 03D0     		beq	.L435
 4896              		.loc 1 1840 70 discriminator 2 view .LVU1372
 4897 0016 2029     		cmp	r1, #32
 4898 0018 01D0     		beq	.L435
 4899              		.loc 1 1841 37 view .LVU1373
 4900 001a 3029     		cmp	r1, #48
 4901 001c 08D1     		bne	.L436
 4902              	.L435:
 4903              		.loc 1 1844 5 is_stmt 1 view .LVU1374
 4904              		.loc 1 1844 9 is_stmt 0 view .LVU1375
 4905 001e 0468     		ldr	r4, [r0]
 4906              		.loc 1 1844 26 view .LVU1376
 4907 0020 A368     		ldr	r3, [r4, #8]
 4908 0022 23F07003 		bic	r3, r3, #112
 4909 0026 A360     		str	r3, [r4, #8]
 4910              		.loc 1 1845 5 is_stmt 1 view .LVU1377
 4911              		.loc 1 1845 9 is_stmt 0 view .LVU1378
ARM GAS  C:\Users\Ika\AppData\Local\Temp\ccf6m5Fc.s 			page 86


 4912 0028 0468     		ldr	r4, [r0]
 4913              		.loc 1 1845 26 view .LVU1379
 4914 002a A368     		ldr	r3, [r4, #8]
 4915 002c 1943     		orrs	r1, r1, r3
 4916              	.LVL341:
 4917              		.loc 1 1845 26 view .LVU1380
 4918 002e A160     		str	r1, [r4, #8]
 4919              	.L436:
 4920              		.loc 1 1849 3 is_stmt 1 view .LVU1381
 4921              		.loc 1 1849 7 is_stmt 0 view .LVU1382
 4922 0030 0168     		ldr	r1, [r0]
 4923              		.loc 1 1849 23 view .LVU1383
 4924 0032 4B68     		ldr	r3, [r1, #4]
 4925 0034 43F00103 		orr	r3, r3, #1
 4926 0038 4B60     		str	r3, [r1, #4]
 4927              		.loc 1 1851 3 is_stmt 1 view .LVU1384
 4928              		.loc 1 1851 7 is_stmt 0 view .LVU1385
 4929 003a 0168     		ldr	r1, [r0]
 4930              		.loc 1 1851 23 view .LVU1386
 4931 003c 4B68     		ldr	r3, [r1, #4]
 4932 003e 23F00403 		bic	r3, r3, #4
 4933 0042 4B60     		str	r3, [r1, #4]
 4934              		.loc 1 1852 3 is_stmt 1 view .LVU1387
 4935              		.loc 1 1852 7 is_stmt 0 view .LVU1388
 4936 0044 0168     		ldr	r1, [r0]
 4937              		.loc 1 1852 23 view .LVU1389
 4938 0046 4B68     		ldr	r3, [r1, #4]
 4939 0048 1A43     		orrs	r2, r2, r3
 4940              	.LVL342:
 4941              		.loc 1 1852 23 view .LVU1390
 4942 004a 4A60     		str	r2, [r1, #4]
 4943              		.loc 1 1856 3 is_stmt 1 view .LVU1391
 4944              		.loc 1 1856 13 is_stmt 0 view .LVU1392
 4945 004c 436B     		ldr	r3, [r0, #52]
 4946              		.loc 1 1856 56 view .LVU1393
 4947 004e 0D4A     		ldr	r2, .L442
 4948 0050 9A62     		str	r2, [r3, #40]
 4949              		.loc 1 1857 3 is_stmt 1 view .LVU1394
 4950              		.loc 1 1857 13 is_stmt 0 view .LVU1395
 4951 0052 436B     		ldr	r3, [r0, #52]
 4952              		.loc 1 1857 60 view .LVU1396
 4953 0054 0C4A     		ldr	r2, .L442+4
 4954 0056 DA62     		str	r2, [r3, #44]
 4955              		.loc 1 1859 3 is_stmt 1 view .LVU1397
 4956              		.loc 1 1859 13 is_stmt 0 view .LVU1398
 4957 0058 436B     		ldr	r3, [r0, #52]
 4958              		.loc 1 1859 57 view .LVU1399
 4959 005a 0C4A     		ldr	r2, .L442+8
 4960 005c 1A63     		str	r2, [r3, #48]
 4961              		.loc 1 1862 3 is_stmt 1 view .LVU1400
 4962 005e 0268     		ldr	r2, [r0]
 4963 0060 D368     		ldr	r3, [r2, #12]
 4964 0062 23F02003 		bic	r3, r3, #32
 4965 0066 D360     		str	r3, [r2, #12]
 4966              		.loc 1 1865 3 view .LVU1401
 4967 0068 0268     		ldr	r2, [r0]
 4968 006a D368     		ldr	r3, [r2, #12]
ARM GAS  C:\Users\Ika\AppData\Local\Temp\ccf6m5Fc.s 			page 87


 4969 006c 43F40053 		orr	r3, r3, #8192
 4970 0070 D360     		str	r3, [r2, #12]
 4971              		.loc 1 1867 3 view .LVU1402
 4972              		.loc 1 1867 3 view .LVU1403
 4973 0072 0023     		movs	r3, #0
 4974 0074 80F83C30 		strb	r3, [r0, #60]
 4975              		.loc 1 1867 3 view .LVU1404
 4976              		.loc 1 1869 3 view .LVU1405
 4977              		.loc 1 1869 10 is_stmt 0 view .LVU1406
 4978 0078 1846     		mov	r0, r3
 4979              	.LVL343:
 4980              		.loc 1 1870 1 view .LVU1407
 4981 007a 10BC     		pop	{r4}
 4982              	.LCFI39:
 4983              		.cfi_restore 4
 4984              		.cfi_def_cfa_offset 0
 4985 007c 7047     		bx	lr
 4986              	.LVL344:
 4987              	.L437:
 4988              		.loc 1 1838 3 view .LVU1408
 4989 007e 0220     		movs	r0, #2
 4990              	.LVL345:
 4991              		.loc 1 1870 1 view .LVU1409
 4992 0080 7047     		bx	lr
 4993              	.L443:
 4994 0082 00BF     		.align	2
 4995              	.L442:
 4996 0084 00000000 		.word	TIMEx_DMACommutationCplt
 4997 0088 00000000 		.word	TIMEx_DMACommutationHalfCplt
 4998 008c 00000000 		.word	TIM_DMAError
 4999              		.cfi_endproc
 5000              	.LFE93:
 5002              		.section	.text.HAL_TIMEx_MasterConfigSynchronization,"ax",%progbits
 5003              		.align	1
 5004              		.global	HAL_TIMEx_MasterConfigSynchronization
 5005              		.syntax unified
 5006              		.thumb
 5007              		.thumb_func
 5008              		.fpu softvfp
 5010              	HAL_TIMEx_MasterConfigSynchronization:
 5011              	.LVL346:
 5012              	.LFB94:
 5013              		.loc 1 1882 1 is_stmt 1 view -0
 5014              		.cfi_startproc
 5015              		@ args = 0, pretend = 0, frame = 0
 5016              		@ frame_needed = 0, uses_anonymous_args = 0
 5017              		@ link register save eliminated.
 5018              		.loc 1 1883 3 view .LVU1411
 5019              		.loc 1 1884 3 view .LVU1412
 5020              		.loc 1 1887 3 view .LVU1413
 5021              		.loc 1 1888 3 view .LVU1414
 5022              		.loc 1 1889 3 view .LVU1415
 5023              		.loc 1 1892 3 view .LVU1416
 5024              		.loc 1 1892 3 view .LVU1417
 5025 0000 90F83C30 		ldrb	r3, [r0, #60]	@ zero_extendqisi2
 5026 0004 012B     		cmp	r3, #1
 5027 0006 27D0     		beq	.L448
ARM GAS  C:\Users\Ika\AppData\Local\Temp\ccf6m5Fc.s 			page 88


 5028              		.loc 1 1882 1 is_stmt 0 discriminator 2 view .LVU1418
 5029 0008 30B4     		push	{r4, r5}
 5030              	.LCFI40:
 5031              		.cfi_def_cfa_offset 8
 5032              		.cfi_offset 4, -8
 5033              		.cfi_offset 5, -4
 5034              		.loc 1 1892 3 is_stmt 1 discriminator 2 view .LVU1419
 5035 000a 0123     		movs	r3, #1
 5036 000c 80F83C30 		strb	r3, [r0, #60]
 5037              		.loc 1 1892 3 discriminator 2 view .LVU1420
 5038              		.loc 1 1895 3 discriminator 2 view .LVU1421
 5039              		.loc 1 1895 15 is_stmt 0 discriminator 2 view .LVU1422
 5040 0010 0223     		movs	r3, #2
 5041 0012 80F83D30 		strb	r3, [r0, #61]
 5042              		.loc 1 1898 3 is_stmt 1 discriminator 2 view .LVU1423
 5043              		.loc 1 1898 16 is_stmt 0 discriminator 2 view .LVU1424
 5044 0016 0368     		ldr	r3, [r0]
 5045              		.loc 1 1898 10 discriminator 2 view .LVU1425
 5046 0018 5C68     		ldr	r4, [r3, #4]
 5047              	.LVL347:
 5048              		.loc 1 1901 3 is_stmt 1 discriminator 2 view .LVU1426
 5049              		.loc 1 1901 11 is_stmt 0 discriminator 2 view .LVU1427
 5050 001a 9D68     		ldr	r5, [r3, #8]
 5051              	.LVL348:
 5052              		.loc 1 1904 3 is_stmt 1 discriminator 2 view .LVU1428
 5053              		.loc 1 1904 10 is_stmt 0 discriminator 2 view .LVU1429
 5054 001c 24F07004 		bic	r4, r4, #112
 5055              	.LVL349:
 5056              		.loc 1 1906 3 is_stmt 1 discriminator 2 view .LVU1430
 5057              		.loc 1 1906 27 is_stmt 0 discriminator 2 view .LVU1431
 5058 0020 0A68     		ldr	r2, [r1]
 5059              		.loc 1 1906 10 discriminator 2 view .LVU1432
 5060 0022 2243     		orrs	r2, r2, r4
 5061              	.LVL350:
 5062              		.loc 1 1909 3 is_stmt 1 discriminator 2 view .LVU1433
 5063              		.loc 1 1909 23 is_stmt 0 discriminator 2 view .LVU1434
 5064 0024 5A60     		str	r2, [r3, #4]
 5065              		.loc 1 1911 3 is_stmt 1 discriminator 2 view .LVU1435
 5066              		.loc 1 1911 7 is_stmt 0 discriminator 2 view .LVU1436
 5067 0026 0368     		ldr	r3, [r0]
 5068              		.loc 1 1911 6 discriminator 2 view .LVU1437
 5069 0028 0C4A     		ldr	r2, .L453
 5070              	.LVL351:
 5071              		.loc 1 1911 6 discriminator 2 view .LVU1438
 5072 002a 9342     		cmp	r3, r2
 5073 002c 06D0     		beq	.L446
 5074              		.loc 1 1911 7 discriminator 1 view .LVU1439
 5075 002e B3F1804F 		cmp	r3, #1073741824
 5076 0032 03D0     		beq	.L446
 5077              		.loc 1 1911 7 discriminator 2 view .LVU1440
 5078 0034 A2F59432 		sub	r2, r2, #75776
 5079 0038 9342     		cmp	r3, r2
 5080 003a 04D1     		bne	.L447
 5081              	.L446:
 5082              		.loc 1 1914 5 is_stmt 1 view .LVU1441
 5083              		.loc 1 1914 13 is_stmt 0 view .LVU1442
 5084 003c 25F08005 		bic	r5, r5, #128
ARM GAS  C:\Users\Ika\AppData\Local\Temp\ccf6m5Fc.s 			page 89


 5085              	.LVL352:
 5086              		.loc 1 1916 5 is_stmt 1 view .LVU1443
 5087              		.loc 1 1916 29 is_stmt 0 view .LVU1444
 5088 0040 4A68     		ldr	r2, [r1, #4]
 5089              		.loc 1 1916 13 view .LVU1445
 5090 0042 1543     		orrs	r5, r5, r2
 5091              	.LVL353:
 5092              		.loc 1 1919 5 is_stmt 1 view .LVU1446
 5093              		.loc 1 1919 26 is_stmt 0 view .LVU1447
 5094 0044 9D60     		str	r5, [r3, #8]
 5095              	.L447:
 5096              		.loc 1 1923 3 is_stmt 1 view .LVU1448
 5097              		.loc 1 1923 15 is_stmt 0 view .LVU1449
 5098 0046 0123     		movs	r3, #1
 5099 0048 80F83D30 		strb	r3, [r0, #61]
 5100              		.loc 1 1925 3 is_stmt 1 view .LVU1450
 5101              		.loc 1 1925 3 view .LVU1451
 5102 004c 0023     		movs	r3, #0
 5103 004e 80F83C30 		strb	r3, [r0, #60]
 5104              		.loc 1 1925 3 view .LVU1452
 5105              		.loc 1 1927 3 view .LVU1453
 5106              		.loc 1 1927 10 is_stmt 0 view .LVU1454
 5107 0052 1846     		mov	r0, r3
 5108              	.LVL354:
 5109              		.loc 1 1928 1 view .LVU1455
 5110 0054 30BC     		pop	{r4, r5}
 5111              	.LCFI41:
 5112              		.cfi_restore 5
 5113              		.cfi_restore 4
 5114              		.cfi_def_cfa_offset 0
 5115              	.LVL355:
 5116              		.loc 1 1928 1 view .LVU1456
 5117 0056 7047     		bx	lr
 5118              	.LVL356:
 5119              	.L448:
 5120              		.loc 1 1892 3 view .LVU1457
 5121 0058 0220     		movs	r0, #2
 5122              	.LVL357:
 5123              		.loc 1 1928 1 view .LVU1458
 5124 005a 7047     		bx	lr
 5125              	.L454:
 5126              		.align	2
 5127              	.L453:
 5128 005c 002C0140 		.word	1073818624
 5129              		.cfi_endproc
 5130              	.LFE94:
 5132              		.section	.text.HAL_TIMEx_ConfigBreakDeadTime,"ax",%progbits
 5133              		.align	1
 5134              		.global	HAL_TIMEx_ConfigBreakDeadTime
 5135              		.syntax unified
 5136              		.thumb
 5137              		.thumb_func
 5138              		.fpu softvfp
 5140              	HAL_TIMEx_ConfigBreakDeadTime:
 5141              	.LVL358:
 5142              	.LFB95:
 5143              		.loc 1 1943 1 is_stmt 1 view -0
ARM GAS  C:\Users\Ika\AppData\Local\Temp\ccf6m5Fc.s 			page 90


 5144              		.cfi_startproc
 5145              		@ args = 0, pretend = 0, frame = 0
 5146              		@ frame_needed = 0, uses_anonymous_args = 0
 5147              		@ link register save eliminated.
 5148              		.loc 1 1945 3 view .LVU1460
 5149              		.loc 1 1948 3 view .LVU1461
 5150              		.loc 1 1949 3 view .LVU1462
 5151              		.loc 1 1950 3 view .LVU1463
 5152              		.loc 1 1951 3 view .LVU1464
 5153              		.loc 1 1952 3 view .LVU1465
 5154              		.loc 1 1953 3 view .LVU1466
 5155              		.loc 1 1954 3 view .LVU1467
 5156              		.loc 1 1955 3 view .LVU1468
 5157              		.loc 1 1958 3 view .LVU1469
 5158              		.loc 1 1958 3 view .LVU1470
 5159 0000 90F83C30 		ldrb	r3, [r0, #60]	@ zero_extendqisi2
 5160 0004 012B     		cmp	r3, #1
 5161 0006 22D0     		beq	.L457
 5162              		.loc 1 1958 3 discriminator 2 view .LVU1471
 5163 0008 0123     		movs	r3, #1
 5164 000a 80F83C30 		strb	r3, [r0, #60]
 5165              		.loc 1 1958 3 discriminator 2 view .LVU1472
 5166              		.loc 1 1964 3 discriminator 2 view .LVU1473
 5167 000e CB68     		ldr	r3, [r1, #12]
 5168              	.LVL359:
 5169              		.loc 1 1965 3 discriminator 2 view .LVU1474
 5170 0010 23F44073 		bic	r3, r3, #768
 5171              	.LVL360:
 5172              		.loc 1 1965 3 is_stmt 0 discriminator 2 view .LVU1475
 5173 0014 8A68     		ldr	r2, [r1, #8]
 5174 0016 1343     		orrs	r3, r3, r2
 5175              	.LVL361:
 5176              		.loc 1 1966 3 is_stmt 1 discriminator 2 view .LVU1476
 5177 0018 23F48063 		bic	r3, r3, #1024
 5178              	.LVL362:
 5179              		.loc 1 1966 3 is_stmt 0 discriminator 2 view .LVU1477
 5180 001c 4A68     		ldr	r2, [r1, #4]
 5181              	.LVL363:
 5182              		.loc 1 1966 3 discriminator 2 view .LVU1478
 5183 001e 1343     		orrs	r3, r3, r2
 5184              	.LVL364:
 5185              		.loc 1 1967 3 is_stmt 1 discriminator 2 view .LVU1479
 5186 0020 23F40063 		bic	r3, r3, #2048
 5187              	.LVL365:
 5188              		.loc 1 1967 3 is_stmt 0 discriminator 2 view .LVU1480
 5189 0024 0A68     		ldr	r2, [r1]
 5190              	.LVL366:
 5191              		.loc 1 1967 3 discriminator 2 view .LVU1481
 5192 0026 1343     		orrs	r3, r3, r2
 5193              	.LVL367:
 5194              		.loc 1 1968 3 is_stmt 1 discriminator 2 view .LVU1482
 5195 0028 23F48053 		bic	r3, r3, #4096
 5196              	.LVL368:
 5197              		.loc 1 1968 3 is_stmt 0 discriminator 2 view .LVU1483
 5198 002c 0A69     		ldr	r2, [r1, #16]
 5199              	.LVL369:
 5200              		.loc 1 1968 3 discriminator 2 view .LVU1484
ARM GAS  C:\Users\Ika\AppData\Local\Temp\ccf6m5Fc.s 			page 91


 5201 002e 1343     		orrs	r3, r3, r2
 5202              	.LVL370:
 5203              		.loc 1 1969 3 is_stmt 1 discriminator 2 view .LVU1485
 5204 0030 23F40053 		bic	r3, r3, #8192
 5205              	.LVL371:
 5206              		.loc 1 1969 3 is_stmt 0 discriminator 2 view .LVU1486
 5207 0034 4A69     		ldr	r2, [r1, #20]
 5208              	.LVL372:
 5209              		.loc 1 1969 3 discriminator 2 view .LVU1487
 5210 0036 1343     		orrs	r3, r3, r2
 5211              	.LVL373:
 5212              		.loc 1 1970 3 is_stmt 1 discriminator 2 view .LVU1488
 5213 0038 23F48043 		bic	r3, r3, #16384
 5214              	.LVL374:
 5215              		.loc 1 1970 3 is_stmt 0 discriminator 2 view .LVU1489
 5216 003c CA69     		ldr	r2, [r1, #28]
 5217              	.LVL375:
 5218              		.loc 1 1970 3 discriminator 2 view .LVU1490
 5219 003e 1343     		orrs	r3, r3, r2
 5220              	.LVL376:
 5221              		.loc 1 1974 3 is_stmt 1 discriminator 2 view .LVU1491
 5222              		.loc 1 1974 7 is_stmt 0 discriminator 2 view .LVU1492
 5223 0040 0268     		ldr	r2, [r0]
 5224              		.loc 1 1974 24 discriminator 2 view .LVU1493
 5225 0042 5364     		str	r3, [r2, #68]
 5226              		.loc 1 1976 3 is_stmt 1 discriminator 2 view .LVU1494
 5227              		.loc 1 1976 3 discriminator 2 view .LVU1495
 5228 0044 0023     		movs	r3, #0
 5229              	.LVL377:
 5230              		.loc 1 1976 3 is_stmt 0 discriminator 2 view .LVU1496
 5231 0046 80F83C30 		strb	r3, [r0, #60]
 5232              	.LVL378:
 5233              		.loc 1 1976 3 is_stmt 1 discriminator 2 view .LVU1497
 5234              		.loc 1 1978 3 discriminator 2 view .LVU1498
 5235              		.loc 1 1978 10 is_stmt 0 discriminator 2 view .LVU1499
 5236 004a 1846     		mov	r0, r3
 5237              	.LVL379:
 5238              		.loc 1 1978 10 discriminator 2 view .LVU1500
 5239 004c 7047     		bx	lr
 5240              	.LVL380:
 5241              	.L457:
 5242              		.loc 1 1958 3 view .LVU1501
 5243 004e 0220     		movs	r0, #2
 5244              	.LVL381:
 5245              		.loc 1 1979 1 view .LVU1502
 5246 0050 7047     		bx	lr
 5247              		.cfi_endproc
 5248              	.LFE95:
 5250              		.section	.text.HAL_TIMEx_RemapConfig,"ax",%progbits
 5251              		.align	1
 5252              		.global	HAL_TIMEx_RemapConfig
 5253              		.syntax unified
 5254              		.thumb
 5255              		.thumb_func
 5256              		.fpu softvfp
 5258              	HAL_TIMEx_RemapConfig:
 5259              	.LVL382:
ARM GAS  C:\Users\Ika\AppData\Local\Temp\ccf6m5Fc.s 			page 92


 5260              	.LFB96:
 5261              		.loc 1 1989 1 is_stmt 1 view -0
 5262              		.cfi_startproc
 5263              		@ args = 0, pretend = 0, frame = 0
 5264              		@ frame_needed = 0, uses_anonymous_args = 0
 5265              		@ link register save eliminated.
 5266              		.loc 1 1991 3 view .LVU1504
 5267              		.loc 1 1992 3 view .LVU1505
 5268              		.loc 1 1994 3 view .LVU1506
 5269              		.loc 1 1995 1 is_stmt 0 view .LVU1507
 5270 0000 0020     		movs	r0, #0
 5271              	.LVL383:
 5272              		.loc 1 1995 1 view .LVU1508
 5273 0002 7047     		bx	lr
 5274              		.cfi_endproc
 5275              	.LFE96:
 5277              		.section	.text.HAL_TIMEx_CommutCallback,"ax",%progbits
 5278              		.align	1
 5279              		.weak	HAL_TIMEx_CommutCallback
 5280              		.syntax unified
 5281              		.thumb
 5282              		.thumb_func
 5283              		.fpu softvfp
 5285              	HAL_TIMEx_CommutCallback:
 5286              	.LVL384:
 5287              	.LFB97:
 5288              		.loc 1 2023 1 is_stmt 1 view -0
 5289              		.cfi_startproc
 5290              		@ args = 0, pretend = 0, frame = 0
 5291              		@ frame_needed = 0, uses_anonymous_args = 0
 5292              		@ link register save eliminated.
 5293              		.loc 1 2025 3 view .LVU1510
 5294              		.loc 1 2030 1 is_stmt 0 view .LVU1511
 5295 0000 7047     		bx	lr
 5296              		.cfi_endproc
 5297              	.LFE97:
 5299              		.section	.text.HAL_TIMEx_CommutHalfCpltCallback,"ax",%progbits
 5300              		.align	1
 5301              		.weak	HAL_TIMEx_CommutHalfCpltCallback
 5302              		.syntax unified
 5303              		.thumb
 5304              		.thumb_func
 5305              		.fpu softvfp
 5307              	HAL_TIMEx_CommutHalfCpltCallback:
 5308              	.LVL385:
 5309              	.LFB98:
 5310              		.loc 1 2037 1 is_stmt 1 view -0
 5311              		.cfi_startproc
 5312              		@ args = 0, pretend = 0, frame = 0
 5313              		@ frame_needed = 0, uses_anonymous_args = 0
 5314              		@ link register save eliminated.
 5315              		.loc 1 2039 3 view .LVU1513
 5316              		.loc 1 2044 1 is_stmt 0 view .LVU1514
 5317 0000 7047     		bx	lr
 5318              		.cfi_endproc
 5319              	.LFE98:
 5321              		.section	.text.HAL_TIMEx_BreakCallback,"ax",%progbits
ARM GAS  C:\Users\Ika\AppData\Local\Temp\ccf6m5Fc.s 			page 93


 5322              		.align	1
 5323              		.weak	HAL_TIMEx_BreakCallback
 5324              		.syntax unified
 5325              		.thumb
 5326              		.thumb_func
 5327              		.fpu softvfp
 5329              	HAL_TIMEx_BreakCallback:
 5330              	.LVL386:
 5331              	.LFB99:
 5332              		.loc 1 2052 1 is_stmt 1 view -0
 5333              		.cfi_startproc
 5334              		@ args = 0, pretend = 0, frame = 0
 5335              		@ frame_needed = 0, uses_anonymous_args = 0
 5336              		@ link register save eliminated.
 5337              		.loc 1 2054 3 view .LVU1516
 5338              		.loc 1 2059 1 is_stmt 0 view .LVU1517
 5339 0000 7047     		bx	lr
 5340              		.cfi_endproc
 5341              	.LFE99:
 5343              		.section	.text.HAL_TIMEx_HallSensor_GetState,"ax",%progbits
 5344              		.align	1
 5345              		.global	HAL_TIMEx_HallSensor_GetState
 5346              		.syntax unified
 5347              		.thumb
 5348              		.thumb_func
 5349              		.fpu softvfp
 5351              	HAL_TIMEx_HallSensor_GetState:
 5352              	.LVL387:
 5353              	.LFB100:
 5354              		.loc 1 2085 1 is_stmt 1 view -0
 5355              		.cfi_startproc
 5356              		@ args = 0, pretend = 0, frame = 0
 5357              		@ frame_needed = 0, uses_anonymous_args = 0
 5358              		@ link register save eliminated.
 5359              		.loc 1 2086 3 view .LVU1519
 5360              		.loc 1 2086 14 is_stmt 0 view .LVU1520
 5361 0000 90F83D00 		ldrb	r0, [r0, #61]	@ zero_extendqisi2
 5362              	.LVL388:
 5363              		.loc 1 2087 1 view .LVU1521
 5364 0004 7047     		bx	lr
 5365              		.cfi_endproc
 5366              	.LFE100:
 5368              		.section	.text.HAL_TIMEx_GetChannelNState,"ax",%progbits
 5369              		.align	1
 5370              		.global	HAL_TIMEx_GetChannelNState
 5371              		.syntax unified
 5372              		.thumb
 5373              		.thumb_func
 5374              		.fpu softvfp
 5376              	HAL_TIMEx_GetChannelNState:
 5377              	.LVL389:
 5378              	.LFB101:
 5379              		.loc 1 2100 1 is_stmt 1 view -0
 5380              		.cfi_startproc
 5381              		@ args = 0, pretend = 0, frame = 0
 5382              		@ frame_needed = 0, uses_anonymous_args = 0
 5383              		@ link register save eliminated.
ARM GAS  C:\Users\Ika\AppData\Local\Temp\ccf6m5Fc.s 			page 94


 5384              		.loc 1 2101 3 view .LVU1523
 5385              		.loc 1 2104 3 view .LVU1524
 5386              		.loc 1 2106 3 view .LVU1525
 5387              		.loc 1 2106 19 is_stmt 0 view .LVU1526
 5388 0000 19B9     		cbnz	r1, .L464
 5389              		.loc 1 2106 19 discriminator 1 view .LVU1527
 5390 0002 90F84200 		ldrb	r0, [r0, #66]	@ zero_extendqisi2
 5391              	.LVL390:
 5392              		.loc 1 2106 19 discriminator 1 view .LVU1528
 5393 0006 C0B2     		uxtb	r0, r0
 5394 0008 7047     		bx	lr
 5395              	.LVL391:
 5396              	.L464:
 5397              		.loc 1 2106 19 discriminator 2 view .LVU1529
 5398 000a 0429     		cmp	r1, #4
 5399 000c 05D0     		beq	.L468
 5400              		.loc 1 2106 19 discriminator 5 view .LVU1530
 5401 000e 0829     		cmp	r1, #8
 5402 0010 07D0     		beq	.L469
 5403              		.loc 1 2106 19 discriminator 8 view .LVU1531
 5404 0012 90F84500 		ldrb	r0, [r0, #69]	@ zero_extendqisi2
 5405              	.LVL392:
 5406              		.loc 1 2106 19 discriminator 8 view .LVU1532
 5407 0016 C0B2     		uxtb	r0, r0
 5408              	.LVL393:
 5409              		.loc 1 2108 3 is_stmt 1 discriminator 8 view .LVU1533
 5410              		.loc 1 2109 1 is_stmt 0 discriminator 8 view .LVU1534
 5411 0018 7047     		bx	lr
 5412              	.LVL394:
 5413              	.L468:
 5414              		.loc 1 2106 19 discriminator 4 view .LVU1535
 5415 001a 90F84300 		ldrb	r0, [r0, #67]	@ zero_extendqisi2
 5416              	.LVL395:
 5417              		.loc 1 2106 19 discriminator 4 view .LVU1536
 5418 001e C0B2     		uxtb	r0, r0
 5419 0020 7047     		bx	lr
 5420              	.LVL396:
 5421              	.L469:
 5422              		.loc 1 2106 19 discriminator 7 view .LVU1537
 5423 0022 90F84400 		ldrb	r0, [r0, #68]	@ zero_extendqisi2
 5424              	.LVL397:
 5425              		.loc 1 2106 19 discriminator 7 view .LVU1538
 5426 0026 C0B2     		uxtb	r0, r0
 5427 0028 7047     		bx	lr
 5428              		.cfi_endproc
 5429              	.LFE101:
 5431              		.text
 5432              	.Letext0:
 5433              		.file 2 "../c:\\users\\ika\\desktop\\gnu mcu\\arm-none-eabi-gcc-9.3.1-1.1\\arm-none-eabi\\include\
 5434              		.file 3 "../c:\\users\\ika\\desktop\\gnu mcu\\arm-none-eabi-gcc-9.3.1-1.1\\arm-none-eabi\\include\
 5435              		.file 4 "../Drivers/CMSIS/Include/core_cm3.h"
 5436              		.file 5 "../Drivers/CMSIS/Device/ST/STM32F1xx/Include/system_stm32f1xx.h"
 5437              		.file 6 "../Drivers/CMSIS/Device/ST/STM32F1xx/Include/stm32f103x6.h"
 5438              		.file 7 "../Drivers/CMSIS/Device/ST/STM32F1xx/Include/stm32f1xx.h"
 5439              		.file 8 "../Drivers/STM32F1xx_HAL_Driver/Inc/stm32f1xx_hal_def.h"
 5440              		.file 9 "../Drivers/STM32F1xx_HAL_Driver/Inc/stm32f1xx_hal_dma.h"
 5441              		.file 10 "../Drivers/STM32F1xx_HAL_Driver/Inc/stm32f1xx_hal_tim.h"
ARM GAS  C:\Users\Ika\AppData\Local\Temp\ccf6m5Fc.s 			page 95


 5442              		.file 11 "../Drivers/STM32F1xx_HAL_Driver/Inc/stm32f1xx_hal_tim_ex.h"
 5443              		.file 12 "../Drivers/STM32F1xx_HAL_Driver/Inc/stm32f1xx_hal.h"
ARM GAS  C:\Users\Ika\AppData\Local\Temp\ccf6m5Fc.s 			page 96

