ARM GAS  C:\Users\Ika\AppData\Local\Temp\ccWGWhVY.s 			page 1


   1              		.cpu cortex-m3
   2              		.eabi_attribute 20, 1
   3              		.eabi_attribute 21, 1
   4              		.eabi_attribute 23, 3
   5              		.eabi_attribute 24, 1
   6              		.eabi_attribute 25, 1
   7              		.eabi_attribute 26, 1
   8              		.eabi_attribute 30, 1
   9              		.eabi_attribute 34, 1
  10              		.eabi_attribute 18, 4
  11              		.file	"stm32f1xx_hal_tim_ex.c"
  12              		.text
  13              	.Ltext0:
  14              		.cfi_sections	.debug_frame
  15              		.section	.text.TIM_CCxNChannelCmd,"ax",%progbits
  16              		.align	1
  17              		.arch armv7-m
  18              		.syntax unified
  19              		.thumb
  20              		.thumb_func
  21              		.fpu softvfp
  23              	TIM_CCxNChannelCmd:
  24              	.LVL0:
  25              	.LFB106:
  26              		.file 1 "../Drivers/STM32F1xx_HAL_Driver/Src/stm32f1xx_hal_tim_ex.c"
   1:../Drivers/STM32F1xx_HAL_Driver/Src/stm32f1xx_hal_tim_ex.c **** 
  27              		.loc 1 2272 1 view -0
  28              		.cfi_startproc
  29              		@ args = 0, pretend = 0, frame = 0
  30              		@ frame_needed = 0, uses_anonymous_args = 0
  31              		@ link register save eliminated.
  32              		.loc 1 2272 1 is_stmt 0 view .LVU1
  33 0000 10B4     		push	{r4}
  34              	.LCFI0:
  35              		.cfi_def_cfa_offset 4
  36              		.cfi_offset 4, -4
  37              		.loc 1 2273 3 is_stmt 1 view .LVU2
  38              		.loc 1 2275 3 view .LVU3
  39              		.loc 1 2275 36 is_stmt 0 view .LVU4
  40 0002 01F01F01 		and	r1, r1, #31
  41              	.LVL1:
  42              		.loc 1 2275 7 view .LVU5
  43 0006 0423     		movs	r3, #4
  44 0008 03FA01F4 		lsl	r4, r3, r1
  45              	.LVL2:
  46              		.loc 1 2278 3 is_stmt 1 view .LVU6
  47              		.loc 1 2278 14 is_stmt 0 view .LVU7
  48 000c 036A     		ldr	r3, [r0, #32]
  49 000e 23EA0403 		bic	r3, r3, r4
  50 0012 0362     		str	r3, [r0, #32]
  51              		.loc 1 2281 3 is_stmt 1 view .LVU8
  52              		.loc 1 2281 14 is_stmt 0 view .LVU9
  53 0014 036A     		ldr	r3, [r0, #32]
  54              		.loc 1 2281 42 view .LVU10
  55 0016 02FA01F1 		lsl	r1, r2, r1
  56              		.loc 1 2281 14 view .LVU11
  57 001a 0B43     		orrs	r3, r3, r1
ARM GAS  C:\Users\Ika\AppData\Local\Temp\ccWGWhVY.s 			page 2


  58 001c 0362     		str	r3, [r0, #32]
  59              		.loc 1 2282 1 view .LVU12
  60 001e 10BC     		pop	{r4}
  61              	.LCFI1:
  62              		.cfi_restore 4
  63              		.cfi_def_cfa_offset 0
  64              	.LVL3:
  65              		.loc 1 2282 1 view .LVU13
  66 0020 7047     		bx	lr
  67              		.cfi_endproc
  68              	.LFE106:
  70              		.section	.text.TIM_DMAErrorCCxN,"ax",%progbits
  71              		.align	1
  72              		.syntax unified
  73              		.thumb
  74              		.thumb_func
  75              		.fpu softvfp
  77              	TIM_DMAErrorCCxN:
  78              	.LVL4:
  79              	.LFB105:
  80              		.loc 1 2227 1 is_stmt 1 view -0
  81              		.cfi_startproc
  82              		@ args = 0, pretend = 0, frame = 0
  83              		@ frame_needed = 0, uses_anonymous_args = 0
  84              		.loc 1 2227 1 is_stmt 0 view .LVU15
  85 0000 10B5     		push	{r4, lr}
  86              	.LCFI2:
  87              		.cfi_def_cfa_offset 8
  88              		.cfi_offset 4, -8
  89              		.cfi_offset 14, -4
  90              		.loc 1 2228 3 is_stmt 1 view .LVU16
  91              		.loc 1 2228 22 is_stmt 0 view .LVU17
  92 0002 446A     		ldr	r4, [r0, #36]
  93              	.LVL5:
  94              		.loc 1 2230 3 is_stmt 1 view .LVU18
  95              		.loc 1 2230 25 is_stmt 0 view .LVU19
  96 0004 636A     		ldr	r3, [r4, #36]
  97              		.loc 1 2230 6 view .LVU20
  98 0006 8342     		cmp	r3, r0
  99 0008 0BD0     		beq	.L8
 100              		.loc 1 2235 8 is_stmt 1 view .LVU21
 101              		.loc 1 2235 30 is_stmt 0 view .LVU22
 102 000a A36A     		ldr	r3, [r4, #40]
 103              		.loc 1 2235 11 view .LVU23
 104 000c 8342     		cmp	r3, r0
 105 000e 0DD0     		beq	.L9
 106              		.loc 1 2240 8 is_stmt 1 view .LVU24
 107              		.loc 1 2240 30 is_stmt 0 view .LVU25
 108 0010 E36A     		ldr	r3, [r4, #44]
 109              		.loc 1 2240 11 view .LVU26
 110 0012 8342     		cmp	r3, r0
 111 0014 10D0     		beq	.L10
 112              	.L5:
 113              		.loc 1 2248 3 is_stmt 1 view .LVU27
 114              		.loc 1 2253 3 view .LVU28
 115 0016 2046     		mov	r0, r4
 116              	.LVL6:
ARM GAS  C:\Users\Ika\AppData\Local\Temp\ccWGWhVY.s 			page 3


 117              		.loc 1 2253 3 is_stmt 0 view .LVU29
 118 0018 FFF7FEFF 		bl	HAL_TIM_ErrorCallback
 119              	.LVL7:
 120              		.loc 1 2256 3 is_stmt 1 view .LVU30
 121              		.loc 1 2256 17 is_stmt 0 view .LVU31
 122 001c 0023     		movs	r3, #0
 123 001e 2377     		strb	r3, [r4, #28]
 124              		.loc 1 2257 1 view .LVU32
 125 0020 10BD     		pop	{r4, pc}
 126              	.LVL8:
 127              	.L8:
 128              		.loc 1 2232 5 is_stmt 1 view .LVU33
 129              		.loc 1 2232 19 is_stmt 0 view .LVU34
 130 0022 0123     		movs	r3, #1
 131 0024 2377     		strb	r3, [r4, #28]
 132              		.loc 1 2233 5 is_stmt 1 view .LVU35
 133 0026 84F84230 		strb	r3, [r4, #66]
 134 002a F4E7     		b	.L5
 135              	.L9:
 136              		.loc 1 2237 5 view .LVU36
 137              		.loc 1 2237 19 is_stmt 0 view .LVU37
 138 002c 0223     		movs	r3, #2
 139 002e 2377     		strb	r3, [r4, #28]
 140              		.loc 1 2238 5 is_stmt 1 view .LVU38
 141 0030 0123     		movs	r3, #1
 142 0032 84F84330 		strb	r3, [r4, #67]
 143 0036 EEE7     		b	.L5
 144              	.L10:
 145              		.loc 1 2242 5 view .LVU39
 146              		.loc 1 2242 19 is_stmt 0 view .LVU40
 147 0038 0423     		movs	r3, #4
 148 003a 2377     		strb	r3, [r4, #28]
 149              		.loc 1 2243 5 is_stmt 1 view .LVU41
 150 003c 0123     		movs	r3, #1
 151 003e 84F84430 		strb	r3, [r4, #68]
 152 0042 E8E7     		b	.L5
 153              		.cfi_endproc
 154              	.LFE105:
 156              		.section	.text.TIM_DMADelayPulseNCplt,"ax",%progbits
 157              		.align	1
 158              		.syntax unified
 159              		.thumb
 160              		.thumb_func
 161              		.fpu softvfp
 163              	TIM_DMADelayPulseNCplt:
 164              	.LVL9:
 165              	.LFB104:
 166              		.loc 1 2168 1 view -0
 167              		.cfi_startproc
 168              		@ args = 0, pretend = 0, frame = 0
 169              		@ frame_needed = 0, uses_anonymous_args = 0
 170              		.loc 1 2168 1 is_stmt 0 view .LVU43
 171 0000 10B5     		push	{r4, lr}
 172              	.LCFI3:
 173              		.cfi_def_cfa_offset 8
 174              		.cfi_offset 4, -8
 175              		.cfi_offset 14, -4
ARM GAS  C:\Users\Ika\AppData\Local\Temp\ccWGWhVY.s 			page 4


 176              		.loc 1 2169 3 is_stmt 1 view .LVU44
 177              		.loc 1 2169 22 is_stmt 0 view .LVU45
 178 0002 446A     		ldr	r4, [r0, #36]
 179              	.LVL10:
 180              		.loc 1 2171 3 is_stmt 1 view .LVU46
 181              		.loc 1 2171 25 is_stmt 0 view .LVU47
 182 0004 636A     		ldr	r3, [r4, #36]
 183              		.loc 1 2171 6 view .LVU48
 184 0006 8342     		cmp	r3, r0
 185 0008 0ED0     		beq	.L17
 186              		.loc 1 2180 8 is_stmt 1 view .LVU49
 187              		.loc 1 2180 30 is_stmt 0 view .LVU50
 188 000a A36A     		ldr	r3, [r4, #40]
 189              		.loc 1 2180 11 view .LVU51
 190 000c 8342     		cmp	r3, r0
 191 000e 14D0     		beq	.L18
 192              		.loc 1 2189 8 is_stmt 1 view .LVU52
 193              		.loc 1 2189 30 is_stmt 0 view .LVU53
 194 0010 E36A     		ldr	r3, [r4, #44]
 195              		.loc 1 2189 11 view .LVU54
 196 0012 8342     		cmp	r3, r0
 197 0014 1AD0     		beq	.L19
 198              		.loc 1 2198 8 is_stmt 1 view .LVU55
 199              		.loc 1 2198 30 is_stmt 0 view .LVU56
 200 0016 236B     		ldr	r3, [r4, #48]
 201              		.loc 1 2198 11 view .LVU57
 202 0018 8342     		cmp	r3, r0
 203 001a 20D0     		beq	.L20
 204              	.L13:
 205              		.loc 1 2210 3 is_stmt 1 view .LVU58
 206              		.loc 1 2215 3 view .LVU59
 207 001c 2046     		mov	r0, r4
 208              	.LVL11:
 209              		.loc 1 2215 3 is_stmt 0 view .LVU60
 210 001e FFF7FEFF 		bl	HAL_TIM_PWM_PulseFinishedCallback
 211              	.LVL12:
 212              		.loc 1 2218 3 is_stmt 1 view .LVU61
 213              		.loc 1 2218 17 is_stmt 0 view .LVU62
 214 0022 0023     		movs	r3, #0
 215 0024 2377     		strb	r3, [r4, #28]
 216              		.loc 1 2219 1 view .LVU63
 217 0026 10BD     		pop	{r4, pc}
 218              	.LVL13:
 219              	.L17:
 220              		.loc 1 2173 5 is_stmt 1 view .LVU64
 221              		.loc 1 2173 19 is_stmt 0 view .LVU65
 222 0028 0123     		movs	r3, #1
 223 002a 2377     		strb	r3, [r4, #28]
 224              		.loc 1 2175 5 is_stmt 1 view .LVU66
 225              		.loc 1 2175 19 is_stmt 0 view .LVU67
 226 002c 8369     		ldr	r3, [r0, #24]
 227              		.loc 1 2175 8 view .LVU68
 228 002e 002B     		cmp	r3, #0
 229 0030 F4D1     		bne	.L13
 230              		.loc 1 2177 7 is_stmt 1 view .LVU69
 231 0032 0123     		movs	r3, #1
 232 0034 84F84230 		strb	r3, [r4, #66]
ARM GAS  C:\Users\Ika\AppData\Local\Temp\ccWGWhVY.s 			page 5


 233 0038 F0E7     		b	.L13
 234              	.L18:
 235              		.loc 1 2182 5 view .LVU70
 236              		.loc 1 2182 19 is_stmt 0 view .LVU71
 237 003a 0223     		movs	r3, #2
 238 003c 2377     		strb	r3, [r4, #28]
 239              		.loc 1 2184 5 is_stmt 1 view .LVU72
 240              		.loc 1 2184 19 is_stmt 0 view .LVU73
 241 003e 8369     		ldr	r3, [r0, #24]
 242              		.loc 1 2184 8 view .LVU74
 243 0040 002B     		cmp	r3, #0
 244 0042 EBD1     		bne	.L13
 245              		.loc 1 2186 7 is_stmt 1 view .LVU75
 246 0044 0123     		movs	r3, #1
 247 0046 84F84330 		strb	r3, [r4, #67]
 248 004a E7E7     		b	.L13
 249              	.L19:
 250              		.loc 1 2191 5 view .LVU76
 251              		.loc 1 2191 19 is_stmt 0 view .LVU77
 252 004c 0423     		movs	r3, #4
 253 004e 2377     		strb	r3, [r4, #28]
 254              		.loc 1 2193 5 is_stmt 1 view .LVU78
 255              		.loc 1 2193 19 is_stmt 0 view .LVU79
 256 0050 8369     		ldr	r3, [r0, #24]
 257              		.loc 1 2193 8 view .LVU80
 258 0052 002B     		cmp	r3, #0
 259 0054 E2D1     		bne	.L13
 260              		.loc 1 2195 7 is_stmt 1 view .LVU81
 261 0056 0123     		movs	r3, #1
 262 0058 84F84430 		strb	r3, [r4, #68]
 263 005c DEE7     		b	.L13
 264              	.L20:
 265              		.loc 1 2200 5 view .LVU82
 266              		.loc 1 2200 19 is_stmt 0 view .LVU83
 267 005e 0823     		movs	r3, #8
 268 0060 2377     		strb	r3, [r4, #28]
 269              		.loc 1 2202 5 is_stmt 1 view .LVU84
 270              		.loc 1 2202 19 is_stmt 0 view .LVU85
 271 0062 8369     		ldr	r3, [r0, #24]
 272              		.loc 1 2202 8 view .LVU86
 273 0064 002B     		cmp	r3, #0
 274 0066 D9D1     		bne	.L13
 275              		.loc 1 2204 7 is_stmt 1 view .LVU87
 276 0068 0123     		movs	r3, #1
 277 006a 84F84530 		strb	r3, [r4, #69]
 278 006e D5E7     		b	.L13
 279              		.cfi_endproc
 280              	.LFE104:
 282              		.section	.text.HAL_TIMEx_HallSensor_MspInit,"ax",%progbits
 283              		.align	1
 284              		.weak	HAL_TIMEx_HallSensor_MspInit
 285              		.syntax unified
 286              		.thumb
 287              		.thumb_func
 288              		.fpu softvfp
 290              	HAL_TIMEx_HallSensor_MspInit:
 291              	.LVL14:
ARM GAS  C:\Users\Ika\AppData\Local\Temp\ccWGWhVY.s 			page 6


 292              	.LFB67:
 293              		.loc 1 282 1 view -0
 294              		.cfi_startproc
 295              		@ args = 0, pretend = 0, frame = 0
 296              		@ frame_needed = 0, uses_anonymous_args = 0
 297              		@ link register save eliminated.
 298              		.loc 1 284 3 view .LVU89
 299              		.loc 1 289 1 is_stmt 0 view .LVU90
 300 0000 7047     		bx	lr
 301              		.cfi_endproc
 302              	.LFE67:
 304              		.section	.text.HAL_TIMEx_HallSensor_Init,"ax",%progbits
 305              		.align	1
 306              		.global	HAL_TIMEx_HallSensor_Init
 307              		.syntax unified
 308              		.thumb
 309              		.thumb_func
 310              		.fpu softvfp
 312              	HAL_TIMEx_HallSensor_Init:
 313              	.LVL15:
 314              	.LFB65:
 315              		.loc 1 136 1 is_stmt 1 view -0
 316              		.cfi_startproc
 317              		@ args = 0, pretend = 0, frame = 32
 318              		@ frame_needed = 0, uses_anonymous_args = 0
 319              		.loc 1 137 3 view .LVU92
 320              		.loc 1 140 3 view .LVU93
 321              		.loc 1 140 6 is_stmt 0 view .LVU94
 322 0000 0028     		cmp	r0, #0
 323 0002 65D0     		beq	.L25
 324              		.loc 1 136 1 view .LVU95
 325 0004 70B5     		push	{r4, r5, r6, lr}
 326              	.LCFI4:
 327              		.cfi_def_cfa_offset 16
 328              		.cfi_offset 4, -16
 329              		.cfi_offset 5, -12
 330              		.cfi_offset 6, -8
 331              		.cfi_offset 14, -4
 332 0006 88B0     		sub	sp, sp, #32
 333              	.LCFI5:
 334              		.cfi_def_cfa_offset 48
 335 0008 0E46     		mov	r6, r1
 336 000a 0446     		mov	r4, r0
 337              		.loc 1 146 3 is_stmt 1 view .LVU96
 338              		.loc 1 147 3 view .LVU97
 339              		.loc 1 148 3 view .LVU98
 340              		.loc 1 149 3 view .LVU99
 341              		.loc 1 150 3 view .LVU100
 342              		.loc 1 151 3 view .LVU101
 343              		.loc 1 152 3 view .LVU102
 344              		.loc 1 154 3 view .LVU103
 345              		.loc 1 154 11 is_stmt 0 view .LVU104
 346 000c 90F83D30 		ldrb	r3, [r0, #61]	@ zero_extendqisi2
 347              		.loc 1 154 6 view .LVU105
 348 0010 002B     		cmp	r3, #0
 349 0012 58D0     		beq	.L30
 350              	.LVL16:
ARM GAS  C:\Users\Ika\AppData\Local\Temp\ccWGWhVY.s 			page 7


 351              	.L24:
 352              		.loc 1 176 3 is_stmt 1 view .LVU106
 353              		.loc 1 176 15 is_stmt 0 view .LVU107
 354 0014 0223     		movs	r3, #2
 355 0016 84F83D30 		strb	r3, [r4, #61]
 356              		.loc 1 179 3 is_stmt 1 view .LVU108
 357 001a 2146     		mov	r1, r4
 358 001c 51F8040B 		ldr	r0, [r1], #4
 359 0020 FFF7FEFF 		bl	TIM_Base_SetConfig
 360              	.LVL17:
 361              		.loc 1 182 3 view .LVU109
 362 0024 B368     		ldr	r3, [r6, #8]
 363 0026 0322     		movs	r2, #3
 364 0028 3168     		ldr	r1, [r6]
 365 002a 2068     		ldr	r0, [r4]
 366 002c FFF7FEFF 		bl	TIM_TI1_SetConfig
 367              	.LVL18:
 368              		.loc 1 185 3 view .LVU110
 369              		.loc 1 185 7 is_stmt 0 view .LVU111
 370 0030 2268     		ldr	r2, [r4]
 371              		.loc 1 185 25 view .LVU112
 372 0032 9369     		ldr	r3, [r2, #24]
 373 0034 23F00C03 		bic	r3, r3, #12
 374 0038 9361     		str	r3, [r2, #24]
 375              		.loc 1 187 3 is_stmt 1 view .LVU113
 376              		.loc 1 187 7 is_stmt 0 view .LVU114
 377 003a 2268     		ldr	r2, [r4]
 378              		.loc 1 187 25 view .LVU115
 379 003c 9369     		ldr	r3, [r2, #24]
 380              		.loc 1 187 35 view .LVU116
 381 003e 7168     		ldr	r1, [r6, #4]
 382              		.loc 1 187 25 view .LVU117
 383 0040 0B43     		orrs	r3, r3, r1
 384 0042 9361     		str	r3, [r2, #24]
 385              		.loc 1 190 3 is_stmt 1 view .LVU118
 386              		.loc 1 190 7 is_stmt 0 view .LVU119
 387 0044 2268     		ldr	r2, [r4]
 388              		.loc 1 190 23 view .LVU120
 389 0046 5368     		ldr	r3, [r2, #4]
 390 0048 43F08003 		orr	r3, r3, #128
 391 004c 5360     		str	r3, [r2, #4]
 392              		.loc 1 193 3 is_stmt 1 view .LVU121
 393              		.loc 1 193 7 is_stmt 0 view .LVU122
 394 004e 2268     		ldr	r2, [r4]
 395              		.loc 1 193 24 view .LVU123
 396 0050 9368     		ldr	r3, [r2, #8]
 397 0052 23F07003 		bic	r3, r3, #112
 398 0056 9360     		str	r3, [r2, #8]
 399              		.loc 1 194 3 is_stmt 1 view .LVU124
 400              		.loc 1 194 7 is_stmt 0 view .LVU125
 401 0058 2268     		ldr	r2, [r4]
 402              		.loc 1 194 24 view .LVU126
 403 005a 9368     		ldr	r3, [r2, #8]
 404 005c 43F04003 		orr	r3, r3, #64
 405 0060 9360     		str	r3, [r2, #8]
 406              		.loc 1 197 3 is_stmt 1 view .LVU127
 407              		.loc 1 197 7 is_stmt 0 view .LVU128
ARM GAS  C:\Users\Ika\AppData\Local\Temp\ccWGWhVY.s 			page 8


 408 0062 2268     		ldr	r2, [r4]
 409              		.loc 1 197 24 view .LVU129
 410 0064 9368     		ldr	r3, [r2, #8]
 411 0066 23F00703 		bic	r3, r3, #7
 412 006a 9360     		str	r3, [r2, #8]
 413              		.loc 1 198 3 is_stmt 1 view .LVU130
 414              		.loc 1 198 7 is_stmt 0 view .LVU131
 415 006c 2268     		ldr	r2, [r4]
 416              		.loc 1 198 24 view .LVU132
 417 006e 9368     		ldr	r3, [r2, #8]
 418 0070 43F00403 		orr	r3, r3, #4
 419 0074 9360     		str	r3, [r2, #8]
 420              		.loc 1 201 3 is_stmt 1 view .LVU133
 421              		.loc 1 201 24 is_stmt 0 view .LVU134
 422 0076 0025     		movs	r5, #0
 423 0078 0595     		str	r5, [sp, #20]
 424              		.loc 1 202 3 is_stmt 1 view .LVU135
 425              		.loc 1 202 25 is_stmt 0 view .LVU136
 426 007a 0695     		str	r5, [sp, #24]
 427              		.loc 1 203 3 is_stmt 1 view .LVU137
 428              		.loc 1 203 20 is_stmt 0 view .LVU138
 429 007c 7023     		movs	r3, #112
 430 007e 0193     		str	r3, [sp, #4]
 431              		.loc 1 204 3 is_stmt 1 view .LVU139
 432              		.loc 1 204 26 is_stmt 0 view .LVU140
 433 0080 0795     		str	r5, [sp, #28]
 434              		.loc 1 205 3 is_stmt 1 view .LVU141
 435              		.loc 1 205 25 is_stmt 0 view .LVU142
 436 0082 0495     		str	r5, [sp, #16]
 437              		.loc 1 206 3 is_stmt 1 view .LVU143
 438              		.loc 1 206 24 is_stmt 0 view .LVU144
 439 0084 0395     		str	r5, [sp, #12]
 440              		.loc 1 207 3 is_stmt 1 view .LVU145
 441              		.loc 1 207 28 is_stmt 0 view .LVU146
 442 0086 F368     		ldr	r3, [r6, #12]
 443              		.loc 1 207 19 view .LVU147
 444 0088 0293     		str	r3, [sp, #8]
 445              		.loc 1 209 3 is_stmt 1 view .LVU148
 446 008a 01A9     		add	r1, sp, #4
 447 008c 2068     		ldr	r0, [r4]
 448 008e FFF7FEFF 		bl	TIM_OC2_SetConfig
 449              	.LVL19:
 450              		.loc 1 213 3 view .LVU149
 451              		.loc 1 213 7 is_stmt 0 view .LVU150
 452 0092 2268     		ldr	r2, [r4]
 453              		.loc 1 213 23 view .LVU151
 454 0094 5368     		ldr	r3, [r2, #4]
 455 0096 23F07003 		bic	r3, r3, #112
 456 009a 5360     		str	r3, [r2, #4]
 457              		.loc 1 214 3 is_stmt 1 view .LVU152
 458              		.loc 1 214 7 is_stmt 0 view .LVU153
 459 009c 2268     		ldr	r2, [r4]
 460              		.loc 1 214 23 view .LVU154
 461 009e 5368     		ldr	r3, [r2, #4]
 462 00a0 43F05003 		orr	r3, r3, #80
 463 00a4 5360     		str	r3, [r2, #4]
 464              		.loc 1 217 3 is_stmt 1 view .LVU155
ARM GAS  C:\Users\Ika\AppData\Local\Temp\ccWGWhVY.s 			page 9


 465              		.loc 1 217 23 is_stmt 0 view .LVU156
 466 00a6 0123     		movs	r3, #1
 467 00a8 84F84630 		strb	r3, [r4, #70]
 468              		.loc 1 220 3 is_stmt 1 view .LVU157
 469 00ac 84F83E30 		strb	r3, [r4, #62]
 470              		.loc 1 221 3 view .LVU158
 471 00b0 84F83F30 		strb	r3, [r4, #63]
 472              		.loc 1 222 3 view .LVU159
 473 00b4 84F84230 		strb	r3, [r4, #66]
 474              		.loc 1 223 3 view .LVU160
 475 00b8 84F84330 		strb	r3, [r4, #67]
 476              		.loc 1 226 3 view .LVU161
 477              		.loc 1 226 15 is_stmt 0 view .LVU162
 478 00bc 84F83D30 		strb	r3, [r4, #61]
 479              		.loc 1 228 3 is_stmt 1 view .LVU163
 480              		.loc 1 228 10 is_stmt 0 view .LVU164
 481 00c0 2846     		mov	r0, r5
 482              		.loc 1 229 1 view .LVU165
 483 00c2 08B0     		add	sp, sp, #32
 484              	.LCFI6:
 485              		.cfi_remember_state
 486              		.cfi_def_cfa_offset 16
 487              		@ sp needed
 488 00c4 70BD     		pop	{r4, r5, r6, pc}
 489              	.LVL20:
 490              	.L30:
 491              	.LCFI7:
 492              		.cfi_restore_state
 493              		.loc 1 157 5 is_stmt 1 view .LVU166
 494              		.loc 1 157 16 is_stmt 0 view .LVU167
 495 00c6 80F83C30 		strb	r3, [r0, #60]
 496              		.loc 1 171 5 is_stmt 1 view .LVU168
 497 00ca FFF7FEFF 		bl	HAL_TIMEx_HallSensor_MspInit
 498              	.LVL21:
 499              		.loc 1 171 5 is_stmt 0 view .LVU169
 500 00ce A1E7     		b	.L24
 501              	.LVL22:
 502              	.L25:
 503              	.LCFI8:
 504              		.cfi_def_cfa_offset 0
 505              		.cfi_restore 4
 506              		.cfi_restore 5
 507              		.cfi_restore 6
 508              		.cfi_restore 14
 509              		.loc 1 142 12 view .LVU170
 510 00d0 0120     		movs	r0, #1
 511              	.LVL23:
 512              		.loc 1 229 1 view .LVU171
 513 00d2 7047     		bx	lr
 514              		.cfi_endproc
 515              	.LFE65:
 517              		.section	.text.HAL_TIMEx_HallSensor_MspDeInit,"ax",%progbits
 518              		.align	1
 519              		.weak	HAL_TIMEx_HallSensor_MspDeInit
 520              		.syntax unified
 521              		.thumb
 522              		.thumb_func
ARM GAS  C:\Users\Ika\AppData\Local\Temp\ccWGWhVY.s 			page 10


 523              		.fpu softvfp
 525              	HAL_TIMEx_HallSensor_MspDeInit:
 526              	.LVL24:
 527              	.LFB68:
 528              		.loc 1 297 1 is_stmt 1 view -0
 529              		.cfi_startproc
 530              		@ args = 0, pretend = 0, frame = 0
 531              		@ frame_needed = 0, uses_anonymous_args = 0
 532              		@ link register save eliminated.
 533              		.loc 1 299 3 view .LVU173
 534              		.loc 1 304 1 is_stmt 0 view .LVU174
 535 0000 7047     		bx	lr
 536              		.cfi_endproc
 537              	.LFE68:
 539              		.section	.text.HAL_TIMEx_HallSensor_DeInit,"ax",%progbits
 540              		.align	1
 541              		.global	HAL_TIMEx_HallSensor_DeInit
 542              		.syntax unified
 543              		.thumb
 544              		.thumb_func
 545              		.fpu softvfp
 547              	HAL_TIMEx_HallSensor_DeInit:
 548              	.LVL25:
 549              	.LFB66:
 550              		.loc 1 237 1 is_stmt 1 view -0
 551              		.cfi_startproc
 552              		@ args = 0, pretend = 0, frame = 0
 553              		@ frame_needed = 0, uses_anonymous_args = 0
 554              		.loc 1 237 1 is_stmt 0 view .LVU176
 555 0000 10B5     		push	{r4, lr}
 556              	.LCFI9:
 557              		.cfi_def_cfa_offset 8
 558              		.cfi_offset 4, -8
 559              		.cfi_offset 14, -4
 560 0002 0446     		mov	r4, r0
 561              		.loc 1 239 3 is_stmt 1 view .LVU177
 562              		.loc 1 241 3 view .LVU178
 563              		.loc 1 241 15 is_stmt 0 view .LVU179
 564 0004 0223     		movs	r3, #2
 565 0006 80F83D30 		strb	r3, [r0, #61]
 566              		.loc 1 244 3 is_stmt 1 view .LVU180
 567              		.loc 1 244 3 view .LVU181
 568 000a 0368     		ldr	r3, [r0]
 569 000c 196A     		ldr	r1, [r3, #32]
 570 000e 41F21112 		movw	r2, #4369
 571 0012 1142     		tst	r1, r2
 572 0014 08D1     		bne	.L33
 573              		.loc 1 244 3 discriminator 1 view .LVU182
 574 0016 196A     		ldr	r1, [r3, #32]
 575 0018 40F24442 		movw	r2, #1092
 576 001c 1142     		tst	r1, r2
 577 001e 03D1     		bne	.L33
 578              		.loc 1 244 3 discriminator 3 view .LVU183
 579 0020 1A68     		ldr	r2, [r3]
 580 0022 22F00102 		bic	r2, r2, #1
 581 0026 1A60     		str	r2, [r3]
 582              	.L33:
ARM GAS  C:\Users\Ika\AppData\Local\Temp\ccWGWhVY.s 			page 11


 583              		.loc 1 244 3 discriminator 5 view .LVU184
 584              		.loc 1 255 3 discriminator 5 view .LVU185
 585 0028 2046     		mov	r0, r4
 586              	.LVL26:
 587              		.loc 1 255 3 is_stmt 0 discriminator 5 view .LVU186
 588 002a FFF7FEFF 		bl	HAL_TIMEx_HallSensor_MspDeInit
 589              	.LVL27:
 590              		.loc 1 259 3 is_stmt 1 discriminator 5 view .LVU187
 591              		.loc 1 259 23 is_stmt 0 discriminator 5 view .LVU188
 592 002e 0020     		movs	r0, #0
 593 0030 84F84600 		strb	r0, [r4, #70]
 594              		.loc 1 262 3 is_stmt 1 discriminator 5 view .LVU189
 595 0034 84F83E00 		strb	r0, [r4, #62]
 596              		.loc 1 263 3 discriminator 5 view .LVU190
 597 0038 84F83F00 		strb	r0, [r4, #63]
 598              		.loc 1 264 3 discriminator 5 view .LVU191
 599 003c 84F84200 		strb	r0, [r4, #66]
 600              		.loc 1 265 3 discriminator 5 view .LVU192
 601 0040 84F84300 		strb	r0, [r4, #67]
 602              		.loc 1 268 3 discriminator 5 view .LVU193
 603              		.loc 1 268 15 is_stmt 0 discriminator 5 view .LVU194
 604 0044 84F83D00 		strb	r0, [r4, #61]
 605              		.loc 1 271 3 is_stmt 1 discriminator 5 view .LVU195
 606              		.loc 1 271 3 discriminator 5 view .LVU196
 607 0048 84F83C00 		strb	r0, [r4, #60]
 608              		.loc 1 271 3 discriminator 5 view .LVU197
 609              		.loc 1 273 3 discriminator 5 view .LVU198
 610              		.loc 1 274 1 is_stmt 0 discriminator 5 view .LVU199
 611 004c 10BD     		pop	{r4, pc}
 612              		.loc 1 274 1 discriminator 5 view .LVU200
 613              		.cfi_endproc
 614              	.LFE66:
 616              		.section	.text.HAL_TIMEx_HallSensor_Start,"ax",%progbits
 617              		.align	1
 618              		.global	HAL_TIMEx_HallSensor_Start
 619              		.syntax unified
 620              		.thumb
 621              		.thumb_func
 622              		.fpu softvfp
 624              	HAL_TIMEx_HallSensor_Start:
 625              	.LVL28:
 626              	.LFB69:
 627              		.loc 1 312 1 is_stmt 1 view -0
 628              		.cfi_startproc
 629              		@ args = 0, pretend = 0, frame = 0
 630              		@ frame_needed = 0, uses_anonymous_args = 0
 631              		.loc 1 312 1 is_stmt 0 view .LVU202
 632 0000 10B5     		push	{r4, lr}
 633              	.LCFI10:
 634              		.cfi_def_cfa_offset 8
 635              		.cfi_offset 4, -8
 636              		.cfi_offset 14, -4
 637 0002 0446     		mov	r4, r0
 638              		.loc 1 313 3 is_stmt 1 view .LVU203
 639              		.loc 1 314 3 view .LVU204
 640              		.loc 1 314 31 is_stmt 0 view .LVU205
 641 0004 90F83E00 		ldrb	r0, [r0, #62]	@ zero_extendqisi2
ARM GAS  C:\Users\Ika\AppData\Local\Temp\ccWGWhVY.s 			page 12


 642              	.LVL29:
 643              		.loc 1 314 31 view .LVU206
 644 0008 C0B2     		uxtb	r0, r0
 645              	.LVL30:
 646              		.loc 1 315 3 is_stmt 1 view .LVU207
 647              		.loc 1 315 31 is_stmt 0 view .LVU208
 648 000a 94F83F30 		ldrb	r3, [r4, #63]	@ zero_extendqisi2
 649              	.LVL31:
 650              		.loc 1 316 3 is_stmt 1 view .LVU209
 651              		.loc 1 316 31 is_stmt 0 view .LVU210
 652 000e 94F84220 		ldrb	r2, [r4, #66]	@ zero_extendqisi2
 653              	.LVL32:
 654              		.loc 1 317 3 is_stmt 1 view .LVU211
 655              		.loc 1 317 31 is_stmt 0 view .LVU212
 656 0012 94F84310 		ldrb	r1, [r4, #67]	@ zero_extendqisi2
 657              	.LVL33:
 658              		.loc 1 320 3 is_stmt 1 view .LVU213
 659              		.loc 1 323 3 view .LVU214
 660              		.loc 1 323 6 is_stmt 0 view .LVU215
 661 0016 0128     		cmp	r0, #1
 662 0018 33D1     		bne	.L39
 663 001a DBB2     		uxtb	r3, r3
 664              		.loc 1 323 6 view .LVU216
 665 001c D2B2     		uxtb	r2, r2
 666              		.loc 1 323 6 view .LVU217
 667 001e C9B2     		uxtb	r1, r1
 668              		.loc 1 324 7 view .LVU218
 669 0020 012B     		cmp	r3, #1
 670 0022 2FD1     		bne	.L36
 671              		.loc 1 325 7 view .LVU219
 672 0024 012A     		cmp	r2, #1
 673 0026 2ED1     		bne	.L40
 674              		.loc 1 326 7 view .LVU220
 675 0028 0129     		cmp	r1, #1
 676 002a 01D0     		beq	.L44
 677              		.loc 1 328 12 view .LVU221
 678 002c 1046     		mov	r0, r2
 679              	.LVL34:
 680              		.loc 1 328 12 view .LVU222
 681 002e 29E0     		b	.L36
 682              	.LVL35:
 683              	.L44:
 684              		.loc 1 332 3 is_stmt 1 view .LVU223
 685 0030 0223     		movs	r3, #2
 686              	.LVL36:
 687              		.loc 1 332 3 is_stmt 0 view .LVU224
 688 0032 84F83E30 		strb	r3, [r4, #62]
 689              		.loc 1 333 3 is_stmt 1 view .LVU225
 690 0036 84F83F30 		strb	r3, [r4, #63]
 691              		.loc 1 334 3 view .LVU226
 692 003a 84F84230 		strb	r3, [r4, #66]
 693              		.loc 1 335 3 view .LVU227
 694 003e 84F84330 		strb	r3, [r4, #67]
 695              		.loc 1 339 3 view .LVU228
 696 0042 0021     		movs	r1, #0
 697              	.LVL37:
 698              		.loc 1 339 3 is_stmt 0 view .LVU229
ARM GAS  C:\Users\Ika\AppData\Local\Temp\ccWGWhVY.s 			page 13


 699 0044 2068     		ldr	r0, [r4]
 700              	.LVL38:
 701              		.loc 1 339 3 view .LVU230
 702 0046 FFF7FEFF 		bl	TIM_CCxChannelCmd
 703              	.LVL39:
 704              		.loc 1 342 3 is_stmt 1 view .LVU231
 705              		.loc 1 342 7 is_stmt 0 view .LVU232
 706 004a 2368     		ldr	r3, [r4]
 707              		.loc 1 342 6 view .LVU233
 708 004c 104A     		ldr	r2, .L45
 709 004e 9342     		cmp	r3, r2
 710 0050 0CD0     		beq	.L37
 711              		.loc 1 342 7 discriminator 1 view .LVU234
 712 0052 B3F1804F 		cmp	r3, #1073741824
 713 0056 09D0     		beq	.L37
 714              		.loc 1 342 7 discriminator 2 view .LVU235
 715 0058 A2F59432 		sub	r2, r2, #75776
 716 005c 9342     		cmp	r3, r2
 717 005e 05D0     		beq	.L37
 718              		.loc 1 352 5 is_stmt 1 view .LVU236
 719 0060 1A68     		ldr	r2, [r3]
 720 0062 42F00102 		orr	r2, r2, #1
 721 0066 1A60     		str	r2, [r3]
 722              		.loc 1 356 10 is_stmt 0 view .LVU237
 723 0068 0020     		movs	r0, #0
 724 006a 0BE0     		b	.L36
 725              	.L37:
 726              		.loc 1 344 5 is_stmt 1 view .LVU238
 727              		.loc 1 344 29 is_stmt 0 view .LVU239
 728 006c 9A68     		ldr	r2, [r3, #8]
 729              		.loc 1 344 13 view .LVU240
 730 006e 02F00702 		and	r2, r2, #7
 731              	.LVL40:
 732              		.loc 1 345 5 is_stmt 1 view .LVU241
 733              		.loc 1 345 8 is_stmt 0 view .LVU242
 734 0072 062A     		cmp	r2, #6
 735 0074 09D0     		beq	.L42
 736              		.loc 1 347 7 is_stmt 1 view .LVU243
 737 0076 1A68     		ldr	r2, [r3]
 738              	.LVL41:
 739              		.loc 1 347 7 is_stmt 0 view .LVU244
 740 0078 42F00102 		orr	r2, r2, #1
 741 007c 1A60     		str	r2, [r3]
 742              		.loc 1 356 10 view .LVU245
 743 007e 0020     		movs	r0, #0
 744 0080 00E0     		b	.L36
 745              	.LVL42:
 746              	.L39:
 747              		.loc 1 328 12 view .LVU246
 748 0082 0120     		movs	r0, #1
 749              	.LVL43:
 750              	.L36:
 751              		.loc 1 357 1 view .LVU247
 752 0084 10BD     		pop	{r4, pc}
 753              	.LVL44:
 754              	.L40:
 755              		.loc 1 328 12 view .LVU248
ARM GAS  C:\Users\Ika\AppData\Local\Temp\ccWGWhVY.s 			page 14


 756 0086 1846     		mov	r0, r3
 757              	.LVL45:
 758              		.loc 1 328 12 view .LVU249
 759 0088 FCE7     		b	.L36
 760              	.LVL46:
 761              	.L42:
 762              		.loc 1 356 10 view .LVU250
 763 008a 0020     		movs	r0, #0
 764 008c FAE7     		b	.L36
 765              	.L46:
 766 008e 00BF     		.align	2
 767              	.L45:
 768 0090 002C0140 		.word	1073818624
 769              		.cfi_endproc
 770              	.LFE69:
 772              		.section	.text.HAL_TIMEx_HallSensor_Stop,"ax",%progbits
 773              		.align	1
 774              		.global	HAL_TIMEx_HallSensor_Stop
 775              		.syntax unified
 776              		.thumb
 777              		.thumb_func
 778              		.fpu softvfp
 780              	HAL_TIMEx_HallSensor_Stop:
 781              	.LVL47:
 782              	.LFB70:
 783              		.loc 1 365 1 is_stmt 1 view -0
 784              		.cfi_startproc
 785              		@ args = 0, pretend = 0, frame = 0
 786              		@ frame_needed = 0, uses_anonymous_args = 0
 787              		.loc 1 365 1 is_stmt 0 view .LVU252
 788 0000 10B5     		push	{r4, lr}
 789              	.LCFI11:
 790              		.cfi_def_cfa_offset 8
 791              		.cfi_offset 4, -8
 792              		.cfi_offset 14, -4
 793 0002 0446     		mov	r4, r0
 794              		.loc 1 367 3 is_stmt 1 view .LVU253
 795              		.loc 1 371 3 view .LVU254
 796 0004 0022     		movs	r2, #0
 797 0006 1146     		mov	r1, r2
 798 0008 0068     		ldr	r0, [r0]
 799              	.LVL48:
 800              		.loc 1 371 3 is_stmt 0 view .LVU255
 801 000a FFF7FEFF 		bl	TIM_CCxChannelCmd
 802              	.LVL49:
 803              		.loc 1 374 3 is_stmt 1 view .LVU256
 804              		.loc 1 374 3 view .LVU257
 805 000e 2368     		ldr	r3, [r4]
 806 0010 196A     		ldr	r1, [r3, #32]
 807 0012 41F21112 		movw	r2, #4369
 808 0016 1142     		tst	r1, r2
 809 0018 08D1     		bne	.L48
 810              		.loc 1 374 3 discriminator 1 view .LVU258
 811 001a 196A     		ldr	r1, [r3, #32]
 812 001c 40F24442 		movw	r2, #1092
 813 0020 1142     		tst	r1, r2
 814 0022 03D1     		bne	.L48
ARM GAS  C:\Users\Ika\AppData\Local\Temp\ccWGWhVY.s 			page 15


 815              		.loc 1 374 3 discriminator 3 view .LVU259
 816 0024 1A68     		ldr	r2, [r3]
 817 0026 22F00102 		bic	r2, r2, #1
 818 002a 1A60     		str	r2, [r3]
 819              	.L48:
 820              		.loc 1 374 3 discriminator 5 view .LVU260
 821              		.loc 1 377 3 discriminator 5 view .LVU261
 822 002c 0123     		movs	r3, #1
 823 002e 84F83E30 		strb	r3, [r4, #62]
 824              		.loc 1 378 3 discriminator 5 view .LVU262
 825 0032 84F83F30 		strb	r3, [r4, #63]
 826              		.loc 1 379 3 discriminator 5 view .LVU263
 827 0036 84F84230 		strb	r3, [r4, #66]
 828              		.loc 1 380 3 discriminator 5 view .LVU264
 829 003a 84F84330 		strb	r3, [r4, #67]
 830              		.loc 1 383 3 discriminator 5 view .LVU265
 831              		.loc 1 384 1 is_stmt 0 discriminator 5 view .LVU266
 832 003e 0020     		movs	r0, #0
 833 0040 10BD     		pop	{r4, pc}
 834              		.loc 1 384 1 discriminator 5 view .LVU267
 835              		.cfi_endproc
 836              	.LFE70:
 838              		.section	.text.HAL_TIMEx_HallSensor_Start_IT,"ax",%progbits
 839              		.align	1
 840              		.global	HAL_TIMEx_HallSensor_Start_IT
 841              		.syntax unified
 842              		.thumb
 843              		.thumb_func
 844              		.fpu softvfp
 846              	HAL_TIMEx_HallSensor_Start_IT:
 847              	.LVL50:
 848              	.LFB71:
 849              		.loc 1 392 1 is_stmt 1 view -0
 850              		.cfi_startproc
 851              		@ args = 0, pretend = 0, frame = 0
 852              		@ frame_needed = 0, uses_anonymous_args = 0
 853              		.loc 1 392 1 is_stmt 0 view .LVU269
 854 0000 10B5     		push	{r4, lr}
 855              	.LCFI12:
 856              		.cfi_def_cfa_offset 8
 857              		.cfi_offset 4, -8
 858              		.cfi_offset 14, -4
 859 0002 0446     		mov	r4, r0
 860              		.loc 1 393 3 is_stmt 1 view .LVU270
 861              		.loc 1 394 3 view .LVU271
 862              		.loc 1 394 31 is_stmt 0 view .LVU272
 863 0004 90F83E00 		ldrb	r0, [r0, #62]	@ zero_extendqisi2
 864              	.LVL51:
 865              		.loc 1 394 31 view .LVU273
 866 0008 C0B2     		uxtb	r0, r0
 867              	.LVL52:
 868              		.loc 1 395 3 is_stmt 1 view .LVU274
 869              		.loc 1 395 31 is_stmt 0 view .LVU275
 870 000a 94F83F30 		ldrb	r3, [r4, #63]	@ zero_extendqisi2
 871              	.LVL53:
 872              		.loc 1 396 3 is_stmt 1 view .LVU276
 873              		.loc 1 396 31 is_stmt 0 view .LVU277
ARM GAS  C:\Users\Ika\AppData\Local\Temp\ccWGWhVY.s 			page 16


 874 000e 94F84220 		ldrb	r2, [r4, #66]	@ zero_extendqisi2
 875              	.LVL54:
 876              		.loc 1 397 3 is_stmt 1 view .LVU278
 877              		.loc 1 397 31 is_stmt 0 view .LVU279
 878 0012 94F84310 		ldrb	r1, [r4, #67]	@ zero_extendqisi2
 879              	.LVL55:
 880              		.loc 1 400 3 is_stmt 1 view .LVU280
 881              		.loc 1 403 3 view .LVU281
 882              		.loc 1 403 6 is_stmt 0 view .LVU282
 883 0016 0128     		cmp	r0, #1
 884 0018 39D1     		bne	.L54
 885 001a DBB2     		uxtb	r3, r3
 886              		.loc 1 403 6 view .LVU283
 887 001c D2B2     		uxtb	r2, r2
 888              		.loc 1 403 6 view .LVU284
 889 001e C9B2     		uxtb	r1, r1
 890              		.loc 1 404 7 view .LVU285
 891 0020 012B     		cmp	r3, #1
 892 0022 35D1     		bne	.L51
 893              		.loc 1 405 7 view .LVU286
 894 0024 012A     		cmp	r2, #1
 895 0026 34D1     		bne	.L55
 896              		.loc 1 406 7 view .LVU287
 897 0028 0129     		cmp	r1, #1
 898 002a 01D0     		beq	.L59
 899              		.loc 1 408 12 view .LVU288
 900 002c 1046     		mov	r0, r2
 901              	.LVL56:
 902              		.loc 1 408 12 view .LVU289
 903 002e 2FE0     		b	.L51
 904              	.LVL57:
 905              	.L59:
 906              		.loc 1 412 3 is_stmt 1 view .LVU290
 907 0030 0223     		movs	r3, #2
 908              	.LVL58:
 909              		.loc 1 412 3 is_stmt 0 view .LVU291
 910 0032 84F83E30 		strb	r3, [r4, #62]
 911              		.loc 1 413 3 is_stmt 1 view .LVU292
 912 0036 84F83F30 		strb	r3, [r4, #63]
 913              		.loc 1 414 3 view .LVU293
 914 003a 84F84230 		strb	r3, [r4, #66]
 915              		.loc 1 415 3 view .LVU294
 916 003e 84F84330 		strb	r3, [r4, #67]
 917              		.loc 1 418 3 view .LVU295
 918 0042 2268     		ldr	r2, [r4]
 919              	.LVL59:
 920              		.loc 1 418 3 is_stmt 0 view .LVU296
 921 0044 D368     		ldr	r3, [r2, #12]
 922 0046 43F00203 		orr	r3, r3, #2
 923 004a D360     		str	r3, [r2, #12]
 924              		.loc 1 422 3 is_stmt 1 view .LVU297
 925 004c 0122     		movs	r2, #1
 926 004e 0021     		movs	r1, #0
 927              	.LVL60:
 928              		.loc 1 422 3 is_stmt 0 view .LVU298
 929 0050 2068     		ldr	r0, [r4]
 930              	.LVL61:
ARM GAS  C:\Users\Ika\AppData\Local\Temp\ccWGWhVY.s 			page 17


 931              		.loc 1 422 3 view .LVU299
 932 0052 FFF7FEFF 		bl	TIM_CCxChannelCmd
 933              	.LVL62:
 934              		.loc 1 425 3 is_stmt 1 view .LVU300
 935              		.loc 1 425 7 is_stmt 0 view .LVU301
 936 0056 2368     		ldr	r3, [r4]
 937              		.loc 1 425 6 view .LVU302
 938 0058 104A     		ldr	r2, .L60
 939 005a 9342     		cmp	r3, r2
 940 005c 0CD0     		beq	.L52
 941              		.loc 1 425 7 discriminator 1 view .LVU303
 942 005e B3F1804F 		cmp	r3, #1073741824
 943 0062 09D0     		beq	.L52
 944              		.loc 1 425 7 discriminator 2 view .LVU304
 945 0064 A2F59432 		sub	r2, r2, #75776
 946 0068 9342     		cmp	r3, r2
 947 006a 05D0     		beq	.L52
 948              		.loc 1 435 5 is_stmt 1 view .LVU305
 949 006c 1A68     		ldr	r2, [r3]
 950 006e 42F00102 		orr	r2, r2, #1
 951 0072 1A60     		str	r2, [r3]
 952              		.loc 1 439 10 is_stmt 0 view .LVU306
 953 0074 0020     		movs	r0, #0
 954 0076 0BE0     		b	.L51
 955              	.L52:
 956              		.loc 1 427 5 is_stmt 1 view .LVU307
 957              		.loc 1 427 29 is_stmt 0 view .LVU308
 958 0078 9A68     		ldr	r2, [r3, #8]
 959              		.loc 1 427 13 view .LVU309
 960 007a 02F00702 		and	r2, r2, #7
 961              	.LVL63:
 962              		.loc 1 428 5 is_stmt 1 view .LVU310
 963              		.loc 1 428 8 is_stmt 0 view .LVU311
 964 007e 062A     		cmp	r2, #6
 965 0080 09D0     		beq	.L57
 966              		.loc 1 430 7 is_stmt 1 view .LVU312
 967 0082 1A68     		ldr	r2, [r3]
 968              	.LVL64:
 969              		.loc 1 430 7 is_stmt 0 view .LVU313
 970 0084 42F00102 		orr	r2, r2, #1
 971 0088 1A60     		str	r2, [r3]
 972              		.loc 1 439 10 view .LVU314
 973 008a 0020     		movs	r0, #0
 974 008c 00E0     		b	.L51
 975              	.LVL65:
 976              	.L54:
 977              		.loc 1 408 12 view .LVU315
 978 008e 0120     		movs	r0, #1
 979              	.LVL66:
 980              	.L51:
 981              		.loc 1 440 1 view .LVU316
 982 0090 10BD     		pop	{r4, pc}
 983              	.LVL67:
 984              	.L55:
 985              		.loc 1 408 12 view .LVU317
 986 0092 1846     		mov	r0, r3
 987              	.LVL68:
ARM GAS  C:\Users\Ika\AppData\Local\Temp\ccWGWhVY.s 			page 18


 988              		.loc 1 408 12 view .LVU318
 989 0094 FCE7     		b	.L51
 990              	.LVL69:
 991              	.L57:
 992              		.loc 1 439 10 view .LVU319
 993 0096 0020     		movs	r0, #0
 994 0098 FAE7     		b	.L51
 995              	.L61:
 996 009a 00BF     		.align	2
 997              	.L60:
 998 009c 002C0140 		.word	1073818624
 999              		.cfi_endproc
 1000              	.LFE71:
 1002              		.section	.text.HAL_TIMEx_HallSensor_Stop_IT,"ax",%progbits
 1003              		.align	1
 1004              		.global	HAL_TIMEx_HallSensor_Stop_IT
 1005              		.syntax unified
 1006              		.thumb
 1007              		.thumb_func
 1008              		.fpu softvfp
 1010              	HAL_TIMEx_HallSensor_Stop_IT:
 1011              	.LVL70:
 1012              	.LFB72:
 1013              		.loc 1 448 1 is_stmt 1 view -0
 1014              		.cfi_startproc
 1015              		@ args = 0, pretend = 0, frame = 0
 1016              		@ frame_needed = 0, uses_anonymous_args = 0
 1017              		.loc 1 448 1 is_stmt 0 view .LVU321
 1018 0000 10B5     		push	{r4, lr}
 1019              	.LCFI13:
 1020              		.cfi_def_cfa_offset 8
 1021              		.cfi_offset 4, -8
 1022              		.cfi_offset 14, -4
 1023 0002 0446     		mov	r4, r0
 1024              		.loc 1 450 3 is_stmt 1 view .LVU322
 1025              		.loc 1 454 3 view .LVU323
 1026 0004 0022     		movs	r2, #0
 1027 0006 1146     		mov	r1, r2
 1028 0008 0068     		ldr	r0, [r0]
 1029              	.LVL71:
 1030              		.loc 1 454 3 is_stmt 0 view .LVU324
 1031 000a FFF7FEFF 		bl	TIM_CCxChannelCmd
 1032              	.LVL72:
 1033              		.loc 1 457 3 is_stmt 1 view .LVU325
 1034 000e 2268     		ldr	r2, [r4]
 1035 0010 D368     		ldr	r3, [r2, #12]
 1036 0012 23F00203 		bic	r3, r3, #2
 1037 0016 D360     		str	r3, [r2, #12]
 1038              		.loc 1 460 3 view .LVU326
 1039              		.loc 1 460 3 view .LVU327
 1040 0018 2368     		ldr	r3, [r4]
 1041 001a 196A     		ldr	r1, [r3, #32]
 1042 001c 41F21112 		movw	r2, #4369
 1043 0020 1142     		tst	r1, r2
 1044 0022 08D1     		bne	.L63
 1045              		.loc 1 460 3 discriminator 1 view .LVU328
 1046 0024 196A     		ldr	r1, [r3, #32]
ARM GAS  C:\Users\Ika\AppData\Local\Temp\ccWGWhVY.s 			page 19


 1047 0026 40F24442 		movw	r2, #1092
 1048 002a 1142     		tst	r1, r2
 1049 002c 03D1     		bne	.L63
 1050              		.loc 1 460 3 discriminator 3 view .LVU329
 1051 002e 1A68     		ldr	r2, [r3]
 1052 0030 22F00102 		bic	r2, r2, #1
 1053 0034 1A60     		str	r2, [r3]
 1054              	.L63:
 1055              		.loc 1 460 3 discriminator 5 view .LVU330
 1056              		.loc 1 463 3 discriminator 5 view .LVU331
 1057 0036 0123     		movs	r3, #1
 1058 0038 84F83E30 		strb	r3, [r4, #62]
 1059              		.loc 1 464 3 discriminator 5 view .LVU332
 1060 003c 84F83F30 		strb	r3, [r4, #63]
 1061              		.loc 1 465 3 discriminator 5 view .LVU333
 1062 0040 84F84230 		strb	r3, [r4, #66]
 1063              		.loc 1 466 3 discriminator 5 view .LVU334
 1064 0044 84F84330 		strb	r3, [r4, #67]
 1065              		.loc 1 469 3 discriminator 5 view .LVU335
 1066              		.loc 1 470 1 is_stmt 0 discriminator 5 view .LVU336
 1067 0048 0020     		movs	r0, #0
 1068 004a 10BD     		pop	{r4, pc}
 1069              		.loc 1 470 1 discriminator 5 view .LVU337
 1070              		.cfi_endproc
 1071              	.LFE72:
 1073              		.section	.text.HAL_TIMEx_HallSensor_Start_DMA,"ax",%progbits
 1074              		.align	1
 1075              		.global	HAL_TIMEx_HallSensor_Start_DMA
 1076              		.syntax unified
 1077              		.thumb
 1078              		.thumb_func
 1079              		.fpu softvfp
 1081              	HAL_TIMEx_HallSensor_Start_DMA:
 1082              	.LVL73:
 1083              	.LFB73:
 1084              		.loc 1 480 1 is_stmt 1 view -0
 1085              		.cfi_startproc
 1086              		@ args = 0, pretend = 0, frame = 0
 1087              		@ frame_needed = 0, uses_anonymous_args = 0
 1088              		.loc 1 480 1 is_stmt 0 view .LVU339
 1089 0000 F8B5     		push	{r3, r4, r5, r6, r7, lr}
 1090              	.LCFI14:
 1091              		.cfi_def_cfa_offset 24
 1092              		.cfi_offset 3, -24
 1093              		.cfi_offset 4, -20
 1094              		.cfi_offset 5, -16
 1095              		.cfi_offset 6, -12
 1096              		.cfi_offset 7, -8
 1097              		.cfi_offset 14, -4
 1098 0002 0446     		mov	r4, r0
 1099              		.loc 1 481 3 is_stmt 1 view .LVU340
 1100              		.loc 1 482 3 view .LVU341
 1101              		.loc 1 482 31 is_stmt 0 view .LVU342
 1102 0004 90F83E30 		ldrb	r3, [r0, #62]	@ zero_extendqisi2
 1103 0008 D8B2     		uxtb	r0, r3
 1104              	.LVL74:
 1105              		.loc 1 483 3 is_stmt 1 view .LVU343
ARM GAS  C:\Users\Ika\AppData\Local\Temp\ccWGWhVY.s 			page 20


 1106              		.loc 1 483 31 is_stmt 0 view .LVU344
 1107 000a 94F84230 		ldrb	r3, [r4, #66]	@ zero_extendqisi2
 1108              	.LVL75:
 1109              		.loc 1 486 3 is_stmt 1 view .LVU345
 1110              		.loc 1 489 3 view .LVU346
 1111              		.loc 1 489 6 is_stmt 0 view .LVU347
 1112 000e 0228     		cmp	r0, #2
 1113 0010 4BD0     		beq	.L66
 1114 0012 0F46     		mov	r7, r1
 1115 0014 1646     		mov	r6, r2
 1116 0016 DDB2     		uxtb	r5, r3
 1117              		.loc 1 490 7 view .LVU348
 1118 0018 022D     		cmp	r5, #2
 1119 001a 43D0     		beq	.L70
 1120              		.loc 1 494 8 is_stmt 1 view .LVU349
 1121              		.loc 1 494 11 is_stmt 0 view .LVU350
 1122 001c 0128     		cmp	r0, #1
 1123 001e 43D1     		bne	.L71
 1124              		.loc 1 495 12 view .LVU351
 1125 0020 012D     		cmp	r5, #1
 1126 0022 42D1     		bne	.L66
 1127              		.loc 1 497 5 is_stmt 1 view .LVU352
 1128              		.loc 1 497 8 is_stmt 0 view .LVU353
 1129 0024 0029     		cmp	r1, #0
 1130 0026 2FD0     		beq	.L75
 1131              	.L67:
 1132              		.loc 1 503 7 is_stmt 1 view .LVU354
 1133 0028 0223     		movs	r3, #2
 1134              	.LVL76:
 1135              		.loc 1 503 7 is_stmt 0 view .LVU355
 1136 002a 84F83E30 		strb	r3, [r4, #62]
 1137              		.loc 1 504 7 is_stmt 1 view .LVU356
 1138 002e 84F84230 		strb	r3, [r4, #66]
 1139              		.loc 1 514 3 view .LVU357
 1140 0032 0122     		movs	r2, #1
 1141              	.LVL77:
 1142              		.loc 1 514 3 is_stmt 0 view .LVU358
 1143 0034 0021     		movs	r1, #0
 1144              	.LVL78:
 1145              		.loc 1 514 3 view .LVU359
 1146 0036 2068     		ldr	r0, [r4]
 1147              	.LVL79:
 1148              		.loc 1 514 3 view .LVU360
 1149 0038 FFF7FEFF 		bl	TIM_CCxChannelCmd
 1150              	.LVL80:
 1151              		.loc 1 517 3 is_stmt 1 view .LVU361
 1152              		.loc 1 517 13 is_stmt 0 view .LVU362
 1153 003c 636A     		ldr	r3, [r4, #36]
 1154              		.loc 1 517 48 view .LVU363
 1155 003e 1C4A     		ldr	r2, .L76
 1156 0040 9A62     		str	r2, [r3, #40]
 1157              		.loc 1 518 3 is_stmt 1 view .LVU364
 1158              		.loc 1 518 13 is_stmt 0 view .LVU365
 1159 0042 636A     		ldr	r3, [r4, #36]
 1160              		.loc 1 518 52 view .LVU366
 1161 0044 1B4A     		ldr	r2, .L76+4
 1162 0046 DA62     		str	r2, [r3, #44]
ARM GAS  C:\Users\Ika\AppData\Local\Temp\ccWGWhVY.s 			page 21


 1163              		.loc 1 520 3 is_stmt 1 view .LVU367
 1164              		.loc 1 520 13 is_stmt 0 view .LVU368
 1165 0048 636A     		ldr	r3, [r4, #36]
 1166              		.loc 1 520 49 view .LVU369
 1167 004a 1B4A     		ldr	r2, .L76+8
 1168 004c 1A63     		str	r2, [r3, #48]
 1169              		.loc 1 523 3 is_stmt 1 view .LVU370
 1170              		.loc 1 523 67 is_stmt 0 view .LVU371
 1171 004e 2168     		ldr	r1, [r4]
 1172              		.loc 1 523 7 view .LVU372
 1173 0050 3346     		mov	r3, r6
 1174 0052 3A46     		mov	r2, r7
 1175 0054 3431     		adds	r1, r1, #52
 1176 0056 606A     		ldr	r0, [r4, #36]
 1177 0058 FFF7FEFF 		bl	HAL_DMA_Start_IT
 1178              	.LVL81:
 1179              		.loc 1 523 6 view .LVU373
 1180 005c 30BB     		cbnz	r0, .L73
 1181              		.loc 1 529 3 is_stmt 1 view .LVU374
 1182 005e 2268     		ldr	r2, [r4]
 1183 0060 D368     		ldr	r3, [r2, #12]
 1184 0062 43F40073 		orr	r3, r3, #512
 1185 0066 D360     		str	r3, [r2, #12]
 1186              		.loc 1 532 3 view .LVU375
 1187              		.loc 1 532 7 is_stmt 0 view .LVU376
 1188 0068 2368     		ldr	r3, [r4]
 1189              		.loc 1 532 6 view .LVU377
 1190 006a 144A     		ldr	r2, .L76+12
 1191 006c 9342     		cmp	r3, r2
 1192 006e 0FD0     		beq	.L68
 1193              		.loc 1 532 7 discriminator 1 view .LVU378
 1194 0070 B3F1804F 		cmp	r3, #1073741824
 1195 0074 0CD0     		beq	.L68
 1196              		.loc 1 532 7 discriminator 2 view .LVU379
 1197 0076 A2F59432 		sub	r2, r2, #75776
 1198 007a 9342     		cmp	r3, r2
 1199 007c 08D0     		beq	.L68
 1200              		.loc 1 542 5 is_stmt 1 view .LVU380
 1201 007e 1A68     		ldr	r2, [r3]
 1202 0080 42F00102 		orr	r2, r2, #1
 1203 0084 1A60     		str	r2, [r3]
 1204 0086 10E0     		b	.L66
 1205              	.LVL82:
 1206              	.L75:
 1207              		.loc 1 497 25 is_stmt 0 discriminator 1 view .LVU381
 1208 0088 002A     		cmp	r2, #0
 1209 008a CDD0     		beq	.L67
 1210              		.loc 1 499 14 view .LVU382
 1211 008c 2846     		mov	r0, r5
 1212              	.LVL83:
 1213              		.loc 1 499 14 view .LVU383
 1214 008e 0CE0     		b	.L66
 1215              	.LVL84:
 1216              	.L68:
 1217              		.loc 1 534 5 is_stmt 1 view .LVU384
 1218              		.loc 1 534 29 is_stmt 0 view .LVU385
 1219 0090 9A68     		ldr	r2, [r3, #8]
ARM GAS  C:\Users\Ika\AppData\Local\Temp\ccWGWhVY.s 			page 22


 1220              		.loc 1 534 13 view .LVU386
 1221 0092 02F00702 		and	r2, r2, #7
 1222              	.LVL85:
 1223              		.loc 1 535 5 is_stmt 1 view .LVU387
 1224              		.loc 1 535 8 is_stmt 0 view .LVU388
 1225 0096 062A     		cmp	r2, #6
 1226 0098 07D0     		beq	.L66
 1227              		.loc 1 537 7 is_stmt 1 view .LVU389
 1228 009a 1A68     		ldr	r2, [r3]
 1229              	.LVL86:
 1230              		.loc 1 537 7 is_stmt 0 view .LVU390
 1231 009c 42F00102 		orr	r2, r2, #1
 1232 00a0 1A60     		str	r2, [r3]
 1233 00a2 02E0     		b	.L66
 1234              	.LVL87:
 1235              	.L70:
 1236              		.loc 1 492 12 view .LVU391
 1237 00a4 2846     		mov	r0, r5
 1238              	.LVL88:
 1239              		.loc 1 492 12 view .LVU392
 1240 00a6 00E0     		b	.L66
 1241              	.LVL89:
 1242              	.L71:
 1243              		.loc 1 509 12 view .LVU393
 1244 00a8 0120     		movs	r0, #1
 1245              	.LVL90:
 1246              	.L66:
 1247              		.loc 1 547 1 view .LVU394
 1248 00aa F8BD     		pop	{r3, r4, r5, r6, r7, pc}
 1249              	.LVL91:
 1250              	.L73:
 1251              		.loc 1 526 12 view .LVU395
 1252 00ac 2846     		mov	r0, r5
 1253 00ae FCE7     		b	.L66
 1254              	.L77:
 1255              		.align	2
 1256              	.L76:
 1257 00b0 00000000 		.word	TIM_DMACaptureCplt
 1258 00b4 00000000 		.word	TIM_DMACaptureHalfCplt
 1259 00b8 00000000 		.word	TIM_DMAError
 1260 00bc 002C0140 		.word	1073818624
 1261              		.cfi_endproc
 1262              	.LFE73:
 1264              		.section	.text.HAL_TIMEx_HallSensor_Stop_DMA,"ax",%progbits
 1265              		.align	1
 1266              		.global	HAL_TIMEx_HallSensor_Stop_DMA
 1267              		.syntax unified
 1268              		.thumb
 1269              		.thumb_func
 1270              		.fpu softvfp
 1272              	HAL_TIMEx_HallSensor_Stop_DMA:
 1273              	.LVL92:
 1274              	.LFB74:
 1275              		.loc 1 555 1 is_stmt 1 view -0
 1276              		.cfi_startproc
 1277              		@ args = 0, pretend = 0, frame = 0
 1278              		@ frame_needed = 0, uses_anonymous_args = 0
ARM GAS  C:\Users\Ika\AppData\Local\Temp\ccWGWhVY.s 			page 23


 1279              		.loc 1 555 1 is_stmt 0 view .LVU397
 1280 0000 10B5     		push	{r4, lr}
 1281              	.LCFI15:
 1282              		.cfi_def_cfa_offset 8
 1283              		.cfi_offset 4, -8
 1284              		.cfi_offset 14, -4
 1285 0002 0446     		mov	r4, r0
 1286              		.loc 1 557 3 is_stmt 1 view .LVU398
 1287              		.loc 1 561 3 view .LVU399
 1288 0004 0022     		movs	r2, #0
 1289 0006 1146     		mov	r1, r2
 1290 0008 0068     		ldr	r0, [r0]
 1291              	.LVL93:
 1292              		.loc 1 561 3 is_stmt 0 view .LVU400
 1293 000a FFF7FEFF 		bl	TIM_CCxChannelCmd
 1294              	.LVL94:
 1295              		.loc 1 565 3 is_stmt 1 view .LVU401
 1296 000e 2268     		ldr	r2, [r4]
 1297 0010 D368     		ldr	r3, [r2, #12]
 1298 0012 23F40073 		bic	r3, r3, #512
 1299 0016 D360     		str	r3, [r2, #12]
 1300              		.loc 1 567 3 view .LVU402
 1301              		.loc 1 567 9 is_stmt 0 view .LVU403
 1302 0018 606A     		ldr	r0, [r4, #36]
 1303 001a FFF7FEFF 		bl	HAL_DMA_Abort_IT
 1304              	.LVL95:
 1305              		.loc 1 570 3 is_stmt 1 view .LVU404
 1306              		.loc 1 570 3 view .LVU405
 1307 001e 2368     		ldr	r3, [r4]
 1308 0020 196A     		ldr	r1, [r3, #32]
 1309 0022 41F21112 		movw	r2, #4369
 1310 0026 1142     		tst	r1, r2
 1311 0028 08D1     		bne	.L79
 1312              		.loc 1 570 3 discriminator 1 view .LVU406
 1313 002a 196A     		ldr	r1, [r3, #32]
 1314 002c 40F24442 		movw	r2, #1092
 1315 0030 1142     		tst	r1, r2
 1316 0032 03D1     		bne	.L79
 1317              		.loc 1 570 3 discriminator 3 view .LVU407
 1318 0034 1A68     		ldr	r2, [r3]
 1319 0036 22F00102 		bic	r2, r2, #1
 1320 003a 1A60     		str	r2, [r3]
 1321              	.L79:
 1322              		.loc 1 570 3 discriminator 5 view .LVU408
 1323              		.loc 1 573 3 discriminator 5 view .LVU409
 1324 003c 0123     		movs	r3, #1
 1325 003e 84F83E30 		strb	r3, [r4, #62]
 1326              		.loc 1 574 3 discriminator 5 view .LVU410
 1327 0042 84F84230 		strb	r3, [r4, #66]
 1328              		.loc 1 577 3 discriminator 5 view .LVU411
 1329              		.loc 1 578 1 is_stmt 0 discriminator 5 view .LVU412
 1330 0046 0020     		movs	r0, #0
 1331 0048 10BD     		pop	{r4, pc}
 1332              		.loc 1 578 1 discriminator 5 view .LVU413
 1333              		.cfi_endproc
 1334              	.LFE74:
 1336              		.section	.text.HAL_TIMEx_OCN_Start,"ax",%progbits
ARM GAS  C:\Users\Ika\AppData\Local\Temp\ccWGWhVY.s 			page 24


 1337              		.align	1
 1338              		.global	HAL_TIMEx_OCN_Start
 1339              		.syntax unified
 1340              		.thumb
 1341              		.thumb_func
 1342              		.fpu softvfp
 1344              	HAL_TIMEx_OCN_Start:
 1345              	.LVL96:
 1346              	.LFB75:
 1347              		.loc 1 616 1 is_stmt 1 view -0
 1348              		.cfi_startproc
 1349              		@ args = 0, pretend = 0, frame = 0
 1350              		@ frame_needed = 0, uses_anonymous_args = 0
 1351              		.loc 1 616 1 is_stmt 0 view .LVU415
 1352 0000 10B5     		push	{r4, lr}
 1353              	.LCFI16:
 1354              		.cfi_def_cfa_offset 8
 1355              		.cfi_offset 4, -8
 1356              		.cfi_offset 14, -4
 1357 0002 0446     		mov	r4, r0
 1358              		.loc 1 617 3 is_stmt 1 view .LVU416
 1359              		.loc 1 620 3 view .LVU417
 1360              		.loc 1 623 3 view .LVU418
 1361              		.loc 1 623 46 is_stmt 0 view .LVU419
 1362 0004 0846     		mov	r0, r1
 1363              	.LVL97:
 1364              		.loc 1 623 46 view .LVU420
 1365 0006 39BB     		cbnz	r1, .L82
 1366              		.loc 1 623 7 discriminator 1 view .LVU421
 1367 0008 94F84230 		ldrb	r3, [r4, #66]	@ zero_extendqisi2
 1368 000c DBB2     		uxtb	r3, r3
 1369              		.loc 1 623 46 discriminator 1 view .LVU422
 1370 000e 013B     		subs	r3, r3, #1
 1371 0010 18BF     		it	ne
 1372 0012 0123     		movne	r3, #1
 1373              	.L83:
 1374              		.loc 1 623 6 discriminator 12 view .LVU423
 1375 0014 002B     		cmp	r3, #0
 1376 0016 53D1     		bne	.L93
 1377              		.loc 1 629 3 is_stmt 1 view .LVU424
 1378 0018 0028     		cmp	r0, #0
 1379 001a 36D1     		bne	.L87
 1380              		.loc 1 629 3 is_stmt 0 discriminator 1 view .LVU425
 1381 001c 0223     		movs	r3, #2
 1382 001e 84F84230 		strb	r3, [r4, #66]
 1383              	.L88:
 1384              		.loc 1 632 3 is_stmt 1 view .LVU426
 1385 0022 0422     		movs	r2, #4
 1386 0024 0146     		mov	r1, r0
 1387              	.LVL98:
 1388              		.loc 1 632 3 is_stmt 0 view .LVU427
 1389 0026 2068     		ldr	r0, [r4]
 1390              	.LVL99:
 1391              		.loc 1 632 3 view .LVU428
 1392 0028 FFF7FEFF 		bl	TIM_CCxNChannelCmd
 1393              	.LVL100:
 1394              		.loc 1 635 3 is_stmt 1 view .LVU429
ARM GAS  C:\Users\Ika\AppData\Local\Temp\ccWGWhVY.s 			page 25


 1395 002c 2268     		ldr	r2, [r4]
 1396 002e 536C     		ldr	r3, [r2, #68]
 1397 0030 43F40043 		orr	r3, r3, #32768
 1398 0034 5364     		str	r3, [r2, #68]
 1399              		.loc 1 638 3 view .LVU430
 1400              		.loc 1 638 7 is_stmt 0 view .LVU431
 1401 0036 2368     		ldr	r3, [r4]
 1402              		.loc 1 638 6 view .LVU432
 1403 0038 234A     		ldr	r2, .L100
 1404 003a 9342     		cmp	r3, r2
 1405 003c 35D0     		beq	.L91
 1406              		.loc 1 638 7 discriminator 1 view .LVU433
 1407 003e B3F1804F 		cmp	r3, #1073741824
 1408 0042 32D0     		beq	.L91
 1409              		.loc 1 638 7 discriminator 2 view .LVU434
 1410 0044 A2F59432 		sub	r2, r2, #75776
 1411 0048 9342     		cmp	r3, r2
 1412 004a 2ED0     		beq	.L91
 1413              		.loc 1 648 5 is_stmt 1 view .LVU435
 1414 004c 1A68     		ldr	r2, [r3]
 1415 004e 42F00102 		orr	r2, r2, #1
 1416 0052 1A60     		str	r2, [r3]
 1417              		.loc 1 652 10 is_stmt 0 view .LVU436
 1418 0054 0020     		movs	r0, #0
 1419 0056 34E0     		b	.L86
 1420              	.LVL101:
 1421              	.L82:
 1422              		.loc 1 623 46 discriminator 2 view .LVU437
 1423 0058 0429     		cmp	r1, #4
 1424 005a 08D0     		beq	.L96
 1425              		.loc 1 623 46 discriminator 5 view .LVU438
 1426 005c 0829     		cmp	r1, #8
 1427 005e 0DD0     		beq	.L97
 1428              		.loc 1 623 7 discriminator 8 view .LVU439
 1429 0060 94F84530 		ldrb	r3, [r4, #69]	@ zero_extendqisi2
 1430 0064 DBB2     		uxtb	r3, r3
 1431              		.loc 1 623 46 discriminator 8 view .LVU440
 1432 0066 013B     		subs	r3, r3, #1
 1433 0068 18BF     		it	ne
 1434 006a 0123     		movne	r3, #1
 1435 006c D2E7     		b	.L83
 1436              	.L96:
 1437              		.loc 1 623 7 discriminator 4 view .LVU441
 1438 006e 94F84330 		ldrb	r3, [r4, #67]	@ zero_extendqisi2
 1439 0072 DBB2     		uxtb	r3, r3
 1440              		.loc 1 623 46 discriminator 4 view .LVU442
 1441 0074 013B     		subs	r3, r3, #1
 1442 0076 18BF     		it	ne
 1443 0078 0123     		movne	r3, #1
 1444 007a CBE7     		b	.L83
 1445              	.L97:
 1446              		.loc 1 623 7 discriminator 7 view .LVU443
 1447 007c 94F84430 		ldrb	r3, [r4, #68]	@ zero_extendqisi2
 1448 0080 DBB2     		uxtb	r3, r3
 1449              		.loc 1 623 46 discriminator 7 view .LVU444
 1450 0082 013B     		subs	r3, r3, #1
 1451 0084 18BF     		it	ne
ARM GAS  C:\Users\Ika\AppData\Local\Temp\ccWGWhVY.s 			page 26


 1452 0086 0123     		movne	r3, #1
 1453 0088 C4E7     		b	.L83
 1454              	.L87:
 1455              		.loc 1 629 3 discriminator 2 view .LVU445
 1456 008a 0428     		cmp	r0, #4
 1457 008c 05D0     		beq	.L98
 1458              		.loc 1 629 3 discriminator 4 view .LVU446
 1459 008e 0828     		cmp	r0, #8
 1460 0090 07D0     		beq	.L99
 1461              		.loc 1 629 3 discriminator 7 view .LVU447
 1462 0092 0223     		movs	r3, #2
 1463 0094 84F84530 		strb	r3, [r4, #69]
 1464 0098 C3E7     		b	.L88
 1465              	.L98:
 1466              		.loc 1 629 3 discriminator 3 view .LVU448
 1467 009a 0223     		movs	r3, #2
 1468 009c 84F84330 		strb	r3, [r4, #67]
 1469 00a0 BFE7     		b	.L88
 1470              	.L99:
 1471              		.loc 1 629 3 discriminator 6 view .LVU449
 1472 00a2 0223     		movs	r3, #2
 1473 00a4 84F84430 		strb	r3, [r4, #68]
 1474 00a8 BBE7     		b	.L88
 1475              	.LVL102:
 1476              	.L91:
 1477              		.loc 1 640 5 is_stmt 1 view .LVU450
 1478              		.loc 1 640 29 is_stmt 0 view .LVU451
 1479 00aa 9A68     		ldr	r2, [r3, #8]
 1480              		.loc 1 640 13 view .LVU452
 1481 00ac 02F00702 		and	r2, r2, #7
 1482              	.LVL103:
 1483              		.loc 1 641 5 is_stmt 1 view .LVU453
 1484              		.loc 1 641 8 is_stmt 0 view .LVU454
 1485 00b0 062A     		cmp	r2, #6
 1486 00b2 07D0     		beq	.L94
 1487              		.loc 1 643 7 is_stmt 1 view .LVU455
 1488 00b4 1A68     		ldr	r2, [r3]
 1489              	.LVL104:
 1490              		.loc 1 643 7 is_stmt 0 view .LVU456
 1491 00b6 42F00102 		orr	r2, r2, #1
 1492 00ba 1A60     		str	r2, [r3]
 1493              		.loc 1 652 10 view .LVU457
 1494 00bc 0020     		movs	r0, #0
 1495 00be 00E0     		b	.L86
 1496              	.LVL105:
 1497              	.L93:
 1498              		.loc 1 625 12 view .LVU458
 1499 00c0 0120     		movs	r0, #1
 1500              	.LVL106:
 1501              	.L86:
 1502              		.loc 1 653 1 view .LVU459
 1503 00c2 10BD     		pop	{r4, pc}
 1504              	.LVL107:
 1505              	.L94:
 1506              		.loc 1 652 10 view .LVU460
 1507 00c4 0020     		movs	r0, #0
 1508 00c6 FCE7     		b	.L86
ARM GAS  C:\Users\Ika\AppData\Local\Temp\ccWGWhVY.s 			page 27


 1509              	.L101:
 1510              		.align	2
 1511              	.L100:
 1512 00c8 002C0140 		.word	1073818624
 1513              		.cfi_endproc
 1514              	.LFE75:
 1516              		.section	.text.HAL_TIMEx_OCN_Stop,"ax",%progbits
 1517              		.align	1
 1518              		.global	HAL_TIMEx_OCN_Stop
 1519              		.syntax unified
 1520              		.thumb
 1521              		.thumb_func
 1522              		.fpu softvfp
 1524              	HAL_TIMEx_OCN_Stop:
 1525              	.LVL108:
 1526              	.LFB76:
 1527              		.loc 1 667 1 is_stmt 1 view -0
 1528              		.cfi_startproc
 1529              		@ args = 0, pretend = 0, frame = 0
 1530              		@ frame_needed = 0, uses_anonymous_args = 0
 1531              		.loc 1 667 1 is_stmt 0 view .LVU462
 1532 0000 38B5     		push	{r3, r4, r5, lr}
 1533              	.LCFI17:
 1534              		.cfi_def_cfa_offset 16
 1535              		.cfi_offset 3, -16
 1536              		.cfi_offset 4, -12
 1537              		.cfi_offset 5, -8
 1538              		.cfi_offset 14, -4
 1539 0002 0446     		mov	r4, r0
 1540 0004 0D46     		mov	r5, r1
 1541              		.loc 1 669 3 is_stmt 1 view .LVU463
 1542              		.loc 1 672 3 view .LVU464
 1543 0006 0022     		movs	r2, #0
 1544 0008 0068     		ldr	r0, [r0]
 1545              	.LVL109:
 1546              		.loc 1 672 3 is_stmt 0 view .LVU465
 1547 000a FFF7FEFF 		bl	TIM_CCxNChannelCmd
 1548              	.LVL110:
 1549              		.loc 1 675 3 is_stmt 1 view .LVU466
 1550              		.loc 1 675 3 view .LVU467
 1551 000e 2368     		ldr	r3, [r4]
 1552 0010 196A     		ldr	r1, [r3, #32]
 1553 0012 41F21112 		movw	r2, #4369
 1554 0016 1142     		tst	r1, r2
 1555 0018 08D1     		bne	.L103
 1556              		.loc 1 675 3 discriminator 1 view .LVU468
 1557 001a 196A     		ldr	r1, [r3, #32]
 1558 001c 40F24442 		movw	r2, #1092
 1559 0020 1142     		tst	r1, r2
 1560 0022 03D1     		bne	.L103
 1561              		.loc 1 675 3 discriminator 3 view .LVU469
 1562 0024 5A6C     		ldr	r2, [r3, #68]
 1563 0026 22F40042 		bic	r2, r2, #32768
 1564 002a 5A64     		str	r2, [r3, #68]
 1565              	.L103:
 1566              		.loc 1 675 3 discriminator 5 view .LVU470
 1567              		.loc 1 678 3 discriminator 5 view .LVU471
ARM GAS  C:\Users\Ika\AppData\Local\Temp\ccWGWhVY.s 			page 28


 1568              		.loc 1 678 3 discriminator 5 view .LVU472
 1569 002c 2368     		ldr	r3, [r4]
 1570 002e 196A     		ldr	r1, [r3, #32]
 1571 0030 41F21112 		movw	r2, #4369
 1572 0034 1142     		tst	r1, r2
 1573 0036 08D1     		bne	.L104
 1574              		.loc 1 678 3 discriminator 1 view .LVU473
 1575 0038 196A     		ldr	r1, [r3, #32]
 1576 003a 40F24442 		movw	r2, #1092
 1577 003e 1142     		tst	r1, r2
 1578 0040 03D1     		bne	.L104
 1579              		.loc 1 678 3 discriminator 3 view .LVU474
 1580 0042 1A68     		ldr	r2, [r3]
 1581 0044 22F00102 		bic	r2, r2, #1
 1582 0048 1A60     		str	r2, [r3]
 1583              	.L104:
 1584              		.loc 1 678 3 discriminator 5 view .LVU475
 1585              		.loc 1 681 3 discriminator 5 view .LVU476
 1586 004a 25B9     		cbnz	r5, .L105
 1587              		.loc 1 681 3 is_stmt 0 discriminator 1 view .LVU477
 1588 004c 0123     		movs	r3, #1
 1589 004e 84F84230 		strb	r3, [r4, #66]
 1590              	.L106:
 1591              		.loc 1 684 3 is_stmt 1 view .LVU478
 1592              		.loc 1 685 1 is_stmt 0 view .LVU479
 1593 0052 0020     		movs	r0, #0
 1594 0054 38BD     		pop	{r3, r4, r5, pc}
 1595              	.LVL111:
 1596              	.L105:
 1597              		.loc 1 681 3 discriminator 2 view .LVU480
 1598 0056 042D     		cmp	r5, #4
 1599 0058 05D0     		beq	.L110
 1600              		.loc 1 681 3 discriminator 4 view .LVU481
 1601 005a 082D     		cmp	r5, #8
 1602 005c 07D0     		beq	.L111
 1603              		.loc 1 681 3 discriminator 7 view .LVU482
 1604 005e 0123     		movs	r3, #1
 1605 0060 84F84530 		strb	r3, [r4, #69]
 1606 0064 F5E7     		b	.L106
 1607              	.L110:
 1608              		.loc 1 681 3 discriminator 3 view .LVU483
 1609 0066 0123     		movs	r3, #1
 1610 0068 84F84330 		strb	r3, [r4, #67]
 1611 006c F1E7     		b	.L106
 1612              	.L111:
 1613              		.loc 1 681 3 discriminator 6 view .LVU484
 1614 006e 0123     		movs	r3, #1
 1615 0070 84F84430 		strb	r3, [r4, #68]
 1616 0074 EDE7     		b	.L106
 1617              		.cfi_endproc
 1618              	.LFE76:
 1620              		.section	.text.HAL_TIMEx_OCN_Start_IT,"ax",%progbits
 1621              		.align	1
 1622              		.global	HAL_TIMEx_OCN_Start_IT
 1623              		.syntax unified
 1624              		.thumb
 1625              		.thumb_func
ARM GAS  C:\Users\Ika\AppData\Local\Temp\ccWGWhVY.s 			page 29


 1626              		.fpu softvfp
 1628              	HAL_TIMEx_OCN_Start_IT:
 1629              	.LVL112:
 1630              	.LFB77:
 1631              		.loc 1 699 1 is_stmt 1 view -0
 1632              		.cfi_startproc
 1633              		@ args = 0, pretend = 0, frame = 0
 1634              		@ frame_needed = 0, uses_anonymous_args = 0
 1635              		.loc 1 699 1 is_stmt 0 view .LVU486
 1636 0000 10B5     		push	{r4, lr}
 1637              	.LCFI18:
 1638              		.cfi_def_cfa_offset 8
 1639              		.cfi_offset 4, -8
 1640              		.cfi_offset 14, -4
 1641 0002 0446     		mov	r4, r0
 1642              		.loc 1 700 3 is_stmt 1 view .LVU487
 1643              		.loc 1 703 3 view .LVU488
 1644              		.loc 1 706 3 view .LVU489
 1645              		.loc 1 706 46 is_stmt 0 view .LVU490
 1646 0004 0846     		mov	r0, r1
 1647              	.LVL113:
 1648              		.loc 1 706 46 view .LVU491
 1649 0006 0029     		cmp	r1, #0
 1650 0008 32D1     		bne	.L113
 1651              		.loc 1 706 7 discriminator 1 view .LVU492
 1652 000a 94F84230 		ldrb	r3, [r4, #66]	@ zero_extendqisi2
 1653 000e DBB2     		uxtb	r3, r3
 1654              		.loc 1 706 46 discriminator 1 view .LVU493
 1655 0010 013B     		subs	r3, r3, #1
 1656 0012 18BF     		it	ne
 1657 0014 0123     		movne	r3, #1
 1658              	.L114:
 1659              		.loc 1 706 6 discriminator 12 view .LVU494
 1660 0016 002B     		cmp	r3, #0
 1661 0018 70D1     		bne	.L127
 1662              		.loc 1 712 3 is_stmt 1 view .LVU495
 1663 001a 0028     		cmp	r0, #0
 1664 001c 41D1     		bne	.L118
 1665              		.loc 1 712 3 is_stmt 0 discriminator 1 view .LVU496
 1666 001e 0223     		movs	r3, #2
 1667 0020 84F84230 		strb	r3, [r4, #66]
 1668              	.L119:
 1669              		.loc 1 714 3 is_stmt 1 view .LVU497
 1670 0024 0428     		cmp	r0, #4
 1671 0026 52D0     		beq	.L122
 1672 0028 0828     		cmp	r0, #8
 1673 002a 56D0     		beq	.L123
 1674 002c 0028     		cmp	r0, #0
 1675 002e 48D0     		beq	.L130
 1676              	.L124:
 1677              		.loc 1 743 3 view .LVU498
 1678 0030 2268     		ldr	r2, [r4]
 1679 0032 D368     		ldr	r3, [r2, #12]
 1680 0034 43F08003 		orr	r3, r3, #128
 1681 0038 D360     		str	r3, [r2, #12]
 1682              		.loc 1 746 3 view .LVU499
 1683 003a 0422     		movs	r2, #4
ARM GAS  C:\Users\Ika\AppData\Local\Temp\ccWGWhVY.s 			page 30


 1684 003c 0146     		mov	r1, r0
 1685              	.LVL114:
 1686              		.loc 1 746 3 is_stmt 0 view .LVU500
 1687 003e 2068     		ldr	r0, [r4]
 1688              	.LVL115:
 1689              		.loc 1 746 3 view .LVU501
 1690 0040 FFF7FEFF 		bl	TIM_CCxNChannelCmd
 1691              	.LVL116:
 1692              		.loc 1 749 3 is_stmt 1 view .LVU502
 1693 0044 2268     		ldr	r2, [r4]
 1694 0046 536C     		ldr	r3, [r2, #68]
 1695 0048 43F40043 		orr	r3, r3, #32768
 1696 004c 5364     		str	r3, [r2, #68]
 1697              		.loc 1 752 3 view .LVU503
 1698              		.loc 1 752 7 is_stmt 0 view .LVU504
 1699 004e 2368     		ldr	r3, [r4]
 1700              		.loc 1 752 6 view .LVU505
 1701 0050 2C4A     		ldr	r2, .L135
 1702 0052 9342     		cmp	r3, r2
 1703 0054 47D0     		beq	.L125
 1704              		.loc 1 752 7 discriminator 1 view .LVU506
 1705 0056 B3F1804F 		cmp	r3, #1073741824
 1706 005a 44D0     		beq	.L125
 1707              		.loc 1 752 7 discriminator 2 view .LVU507
 1708 005c A2F59432 		sub	r2, r2, #75776
 1709 0060 9342     		cmp	r3, r2
 1710 0062 40D0     		beq	.L125
 1711              		.loc 1 762 5 is_stmt 1 view .LVU508
 1712 0064 1A68     		ldr	r2, [r3]
 1713 0066 42F00102 		orr	r2, r2, #1
 1714 006a 1A60     		str	r2, [r3]
 1715              		.loc 1 766 10 is_stmt 0 view .LVU509
 1716 006c 0020     		movs	r0, #0
 1717 006e 46E0     		b	.L117
 1718              	.LVL117:
 1719              	.L113:
 1720              		.loc 1 706 46 discriminator 2 view .LVU510
 1721 0070 0429     		cmp	r1, #4
 1722 0072 08D0     		beq	.L131
 1723              		.loc 1 706 46 discriminator 5 view .LVU511
 1724 0074 0829     		cmp	r1, #8
 1725 0076 0DD0     		beq	.L132
 1726              		.loc 1 706 7 discriminator 8 view .LVU512
 1727 0078 94F84530 		ldrb	r3, [r4, #69]	@ zero_extendqisi2
 1728 007c DBB2     		uxtb	r3, r3
 1729              		.loc 1 706 46 discriminator 8 view .LVU513
 1730 007e 013B     		subs	r3, r3, #1
 1731 0080 18BF     		it	ne
 1732 0082 0123     		movne	r3, #1
 1733 0084 C7E7     		b	.L114
 1734              	.L131:
 1735              		.loc 1 706 7 discriminator 4 view .LVU514
 1736 0086 94F84330 		ldrb	r3, [r4, #67]	@ zero_extendqisi2
 1737 008a DBB2     		uxtb	r3, r3
 1738              		.loc 1 706 46 discriminator 4 view .LVU515
 1739 008c 013B     		subs	r3, r3, #1
 1740 008e 18BF     		it	ne
ARM GAS  C:\Users\Ika\AppData\Local\Temp\ccWGWhVY.s 			page 31


 1741 0090 0123     		movne	r3, #1
 1742 0092 C0E7     		b	.L114
 1743              	.L132:
 1744              		.loc 1 706 7 discriminator 7 view .LVU516
 1745 0094 94F84430 		ldrb	r3, [r4, #68]	@ zero_extendqisi2
 1746 0098 DBB2     		uxtb	r3, r3
 1747              		.loc 1 706 46 discriminator 7 view .LVU517
 1748 009a 013B     		subs	r3, r3, #1
 1749 009c 18BF     		it	ne
 1750 009e 0123     		movne	r3, #1
 1751 00a0 B9E7     		b	.L114
 1752              	.L118:
 1753              		.loc 1 712 3 discriminator 2 view .LVU518
 1754 00a2 0428     		cmp	r0, #4
 1755 00a4 05D0     		beq	.L133
 1756              		.loc 1 712 3 discriminator 4 view .LVU519
 1757 00a6 0828     		cmp	r0, #8
 1758 00a8 07D0     		beq	.L134
 1759              		.loc 1 712 3 discriminator 7 view .LVU520
 1760 00aa 0223     		movs	r3, #2
 1761 00ac 84F84530 		strb	r3, [r4, #69]
 1762 00b0 B8E7     		b	.L119
 1763              	.L133:
 1764              		.loc 1 712 3 discriminator 3 view .LVU521
 1765 00b2 0223     		movs	r3, #2
 1766 00b4 84F84330 		strb	r3, [r4, #67]
 1767 00b8 B4E7     		b	.L119
 1768              	.L134:
 1769              		.loc 1 712 3 discriminator 6 view .LVU522
 1770 00ba 0223     		movs	r3, #2
 1771 00bc 84F84430 		strb	r3, [r4, #68]
 1772 00c0 B0E7     		b	.L119
 1773              	.L130:
 1774              		.loc 1 719 7 is_stmt 1 view .LVU523
 1775 00c2 2268     		ldr	r2, [r4]
 1776 00c4 D368     		ldr	r3, [r2, #12]
 1777 00c6 43F00203 		orr	r3, r3, #2
 1778 00ca D360     		str	r3, [r2, #12]
 1779              		.loc 1 720 7 view .LVU524
 1780 00cc B0E7     		b	.L124
 1781              	.L122:
 1782              		.loc 1 726 7 view .LVU525
 1783 00ce 2268     		ldr	r2, [r4]
 1784 00d0 D368     		ldr	r3, [r2, #12]
 1785 00d2 43F00403 		orr	r3, r3, #4
 1786 00d6 D360     		str	r3, [r2, #12]
 1787              		.loc 1 727 7 view .LVU526
 1788 00d8 AAE7     		b	.L124
 1789              	.L123:
 1790              		.loc 1 733 7 view .LVU527
 1791 00da 2268     		ldr	r2, [r4]
 1792 00dc D368     		ldr	r3, [r2, #12]
 1793 00de 43F00803 		orr	r3, r3, #8
 1794 00e2 D360     		str	r3, [r2, #12]
 1795              		.loc 1 734 7 view .LVU528
 1796 00e4 A4E7     		b	.L124
 1797              	.LVL118:
ARM GAS  C:\Users\Ika\AppData\Local\Temp\ccWGWhVY.s 			page 32


 1798              	.L125:
 1799              		.loc 1 754 5 view .LVU529
 1800              		.loc 1 754 29 is_stmt 0 view .LVU530
 1801 00e6 9A68     		ldr	r2, [r3, #8]
 1802              		.loc 1 754 13 view .LVU531
 1803 00e8 02F00702 		and	r2, r2, #7
 1804              	.LVL119:
 1805              		.loc 1 755 5 is_stmt 1 view .LVU532
 1806              		.loc 1 755 8 is_stmt 0 view .LVU533
 1807 00ec 062A     		cmp	r2, #6
 1808 00ee 07D0     		beq	.L128
 1809              		.loc 1 757 7 is_stmt 1 view .LVU534
 1810 00f0 1A68     		ldr	r2, [r3]
 1811              	.LVL120:
 1812              		.loc 1 757 7 is_stmt 0 view .LVU535
 1813 00f2 42F00102 		orr	r2, r2, #1
 1814 00f6 1A60     		str	r2, [r3]
 1815              		.loc 1 766 10 view .LVU536
 1816 00f8 0020     		movs	r0, #0
 1817 00fa 00E0     		b	.L117
 1818              	.LVL121:
 1819              	.L127:
 1820              		.loc 1 708 12 view .LVU537
 1821 00fc 0120     		movs	r0, #1
 1822              	.LVL122:
 1823              	.L117:
 1824              		.loc 1 767 1 view .LVU538
 1825 00fe 10BD     		pop	{r4, pc}
 1826              	.LVL123:
 1827              	.L128:
 1828              		.loc 1 766 10 view .LVU539
 1829 0100 0020     		movs	r0, #0
 1830 0102 FCE7     		b	.L117
 1831              	.L136:
 1832              		.align	2
 1833              	.L135:
 1834 0104 002C0140 		.word	1073818624
 1835              		.cfi_endproc
 1836              	.LFE77:
 1838              		.section	.text.HAL_TIMEx_OCN_Stop_IT,"ax",%progbits
 1839              		.align	1
 1840              		.global	HAL_TIMEx_OCN_Stop_IT
 1841              		.syntax unified
 1842              		.thumb
 1843              		.thumb_func
 1844              		.fpu softvfp
 1846              	HAL_TIMEx_OCN_Stop_IT:
 1847              	.LVL124:
 1848              	.LFB78:
 1849              		.loc 1 781 1 is_stmt 1 view -0
 1850              		.cfi_startproc
 1851              		@ args = 0, pretend = 0, frame = 0
 1852              		@ frame_needed = 0, uses_anonymous_args = 0
 1853              		.loc 1 781 1 is_stmt 0 view .LVU541
 1854 0000 38B5     		push	{r3, r4, r5, lr}
 1855              	.LCFI19:
 1856              		.cfi_def_cfa_offset 16
ARM GAS  C:\Users\Ika\AppData\Local\Temp\ccWGWhVY.s 			page 33


 1857              		.cfi_offset 3, -16
 1858              		.cfi_offset 4, -12
 1859              		.cfi_offset 5, -8
 1860              		.cfi_offset 14, -4
 1861 0002 0546     		mov	r5, r0
 1862 0004 0C46     		mov	r4, r1
 1863              		.loc 1 782 3 is_stmt 1 view .LVU542
 1864              		.loc 1 784 3 view .LVU543
 1865              		.loc 1 786 3 view .LVU544
 1866 0006 0429     		cmp	r1, #4
 1867 0008 3CD0     		beq	.L138
 1868 000a 0829     		cmp	r1, #8
 1869 000c 40D0     		beq	.L139
 1870 000e 0029     		cmp	r1, #0
 1871 0010 32D0     		beq	.L149
 1872              	.L140:
 1873              		.loc 1 814 3 view .LVU545
 1874 0012 0022     		movs	r2, #0
 1875 0014 2146     		mov	r1, r4
 1876              	.LVL125:
 1877              		.loc 1 814 3 is_stmt 0 view .LVU546
 1878 0016 2868     		ldr	r0, [r5]
 1879              	.LVL126:
 1880              		.loc 1 814 3 view .LVU547
 1881 0018 FFF7FEFF 		bl	TIM_CCxNChannelCmd
 1882              	.LVL127:
 1883              		.loc 1 817 3 is_stmt 1 view .LVU548
 1884              		.loc 1 817 17 is_stmt 0 view .LVU549
 1885 001c 2B68     		ldr	r3, [r5]
 1886              		.loc 1 817 11 view .LVU550
 1887 001e 196A     		ldr	r1, [r3, #32]
 1888              	.LVL128:
 1889              		.loc 1 818 3 is_stmt 1 view .LVU551
 1890              		.loc 1 818 6 is_stmt 0 view .LVU552
 1891 0020 40F24442 		movw	r2, #1092
 1892 0024 1142     		tst	r1, r2
 1893 0026 03D1     		bne	.L141
 1894              		.loc 1 820 5 is_stmt 1 view .LVU553
 1895 0028 DA68     		ldr	r2, [r3, #12]
 1896 002a 22F08002 		bic	r2, r2, #128
 1897 002e DA60     		str	r2, [r3, #12]
 1898              	.L141:
 1899              		.loc 1 824 3 view .LVU554
 1900              		.loc 1 824 3 view .LVU555
 1901 0030 2B68     		ldr	r3, [r5]
 1902 0032 196A     		ldr	r1, [r3, #32]
 1903              	.LVL129:
 1904              		.loc 1 824 3 is_stmt 0 view .LVU556
 1905 0034 41F21112 		movw	r2, #4369
 1906 0038 1142     		tst	r1, r2
 1907 003a 08D1     		bne	.L142
 1908              		.loc 1 824 3 is_stmt 1 discriminator 1 view .LVU557
 1909 003c 196A     		ldr	r1, [r3, #32]
 1910 003e 40F24442 		movw	r2, #1092
 1911 0042 1142     		tst	r1, r2
 1912 0044 03D1     		bne	.L142
 1913              		.loc 1 824 3 discriminator 3 view .LVU558
ARM GAS  C:\Users\Ika\AppData\Local\Temp\ccWGWhVY.s 			page 34


 1914 0046 5A6C     		ldr	r2, [r3, #68]
 1915 0048 22F40042 		bic	r2, r2, #32768
 1916 004c 5A64     		str	r2, [r3, #68]
 1917              	.L142:
 1918              		.loc 1 824 3 discriminator 5 view .LVU559
 1919              		.loc 1 827 3 discriminator 5 view .LVU560
 1920              		.loc 1 827 3 discriminator 5 view .LVU561
 1921 004e 2B68     		ldr	r3, [r5]
 1922 0050 196A     		ldr	r1, [r3, #32]
 1923 0052 41F21112 		movw	r2, #4369
 1924 0056 1142     		tst	r1, r2
 1925 0058 08D1     		bne	.L143
 1926              		.loc 1 827 3 discriminator 1 view .LVU562
 1927 005a 196A     		ldr	r1, [r3, #32]
 1928 005c 40F24442 		movw	r2, #1092
 1929 0060 1142     		tst	r1, r2
 1930 0062 03D1     		bne	.L143
 1931              		.loc 1 827 3 discriminator 3 view .LVU563
 1932 0064 1A68     		ldr	r2, [r3]
 1933 0066 22F00102 		bic	r2, r2, #1
 1934 006a 1A60     		str	r2, [r3]
 1935              	.L143:
 1936              		.loc 1 827 3 discriminator 5 view .LVU564
 1937              		.loc 1 830 3 discriminator 5 view .LVU565
 1938 006c B4B9     		cbnz	r4, .L144
 1939              		.loc 1 830 3 is_stmt 0 discriminator 1 view .LVU566
 1940 006e 0123     		movs	r3, #1
 1941 0070 85F84230 		strb	r3, [r5, #66]
 1942              	.L145:
 1943              		.loc 1 833 3 is_stmt 1 view .LVU567
 1944              		.loc 1 834 1 is_stmt 0 view .LVU568
 1945 0074 0020     		movs	r0, #0
 1946 0076 38BD     		pop	{r3, r4, r5, pc}
 1947              	.LVL130:
 1948              	.L149:
 1949              		.loc 1 791 7 is_stmt 1 view .LVU569
 1950 0078 0268     		ldr	r2, [r0]
 1951 007a D368     		ldr	r3, [r2, #12]
 1952 007c 23F00203 		bic	r3, r3, #2
 1953 0080 D360     		str	r3, [r2, #12]
 1954              		.loc 1 792 7 view .LVU570
 1955 0082 C6E7     		b	.L140
 1956              	.L138:
 1957              		.loc 1 798 7 view .LVU571
 1958 0084 0268     		ldr	r2, [r0]
 1959 0086 D368     		ldr	r3, [r2, #12]
 1960 0088 23F00403 		bic	r3, r3, #4
 1961 008c D360     		str	r3, [r2, #12]
 1962              		.loc 1 799 7 view .LVU572
 1963 008e C0E7     		b	.L140
 1964              	.L139:
 1965              		.loc 1 805 7 view .LVU573
 1966 0090 0268     		ldr	r2, [r0]
 1967 0092 D368     		ldr	r3, [r2, #12]
 1968 0094 23F00803 		bic	r3, r3, #8
 1969 0098 D360     		str	r3, [r2, #12]
 1970              		.loc 1 806 7 view .LVU574
ARM GAS  C:\Users\Ika\AppData\Local\Temp\ccWGWhVY.s 			page 35


 1971 009a BAE7     		b	.L140
 1972              	.LVL131:
 1973              	.L144:
 1974              		.loc 1 830 3 is_stmt 0 discriminator 2 view .LVU575
 1975 009c 042C     		cmp	r4, #4
 1976 009e 05D0     		beq	.L150
 1977              		.loc 1 830 3 discriminator 4 view .LVU576
 1978 00a0 082C     		cmp	r4, #8
 1979 00a2 07D0     		beq	.L151
 1980              		.loc 1 830 3 discriminator 7 view .LVU577
 1981 00a4 0123     		movs	r3, #1
 1982 00a6 85F84530 		strb	r3, [r5, #69]
 1983 00aa E3E7     		b	.L145
 1984              	.L150:
 1985              		.loc 1 830 3 discriminator 3 view .LVU578
 1986 00ac 0123     		movs	r3, #1
 1987 00ae 85F84330 		strb	r3, [r5, #67]
 1988 00b2 DFE7     		b	.L145
 1989              	.L151:
 1990              		.loc 1 830 3 discriminator 6 view .LVU579
 1991 00b4 0123     		movs	r3, #1
 1992 00b6 85F84430 		strb	r3, [r5, #68]
 1993 00ba DBE7     		b	.L145
 1994              		.cfi_endproc
 1995              	.LFE78:
 1997              		.section	.text.HAL_TIMEx_OCN_Start_DMA,"ax",%progbits
 1998              		.align	1
 1999              		.global	HAL_TIMEx_OCN_Start_DMA
 2000              		.syntax unified
 2001              		.thumb
 2002              		.thumb_func
 2003              		.fpu softvfp
 2005              	HAL_TIMEx_OCN_Start_DMA:
 2006              	.LVL132:
 2007              	.LFB79:
 2008              		.loc 1 850 1 is_stmt 1 view -0
 2009              		.cfi_startproc
 2010              		@ args = 0, pretend = 0, frame = 0
 2011              		@ frame_needed = 0, uses_anonymous_args = 0
 2012              		.loc 1 850 1 is_stmt 0 view .LVU581
 2013 0000 70B5     		push	{r4, r5, r6, lr}
 2014              	.LCFI20:
 2015              		.cfi_def_cfa_offset 16
 2016              		.cfi_offset 4, -16
 2017              		.cfi_offset 5, -12
 2018              		.cfi_offset 6, -8
 2019              		.cfi_offset 14, -4
 2020 0002 0446     		mov	r4, r0
 2021 0004 1646     		mov	r6, r2
 2022              		.loc 1 851 3 is_stmt 1 view .LVU582
 2023              		.loc 1 854 3 view .LVU583
 2024              		.loc 1 857 3 view .LVU584
 2025              		.loc 1 857 46 is_stmt 0 view .LVU585
 2026 0006 0D46     		mov	r5, r1
 2027 0008 0029     		cmp	r1, #0
 2028 000a 42D1     		bne	.L153
 2029              		.loc 1 857 7 discriminator 1 view .LVU586
ARM GAS  C:\Users\Ika\AppData\Local\Temp\ccWGWhVY.s 			page 36


 2030 000c 90F84200 		ldrb	r0, [r0, #66]	@ zero_extendqisi2
 2031              	.LVL133:
 2032              		.loc 1 857 7 discriminator 1 view .LVU587
 2033 0010 C0B2     		uxtb	r0, r0
 2034              		.loc 1 857 46 discriminator 1 view .LVU588
 2035 0012 0228     		cmp	r0, #2
 2036 0014 14BF     		ite	ne
 2037 0016 0020     		movne	r0, #0
 2038 0018 0120     		moveq	r0, #1
 2039              	.L154:
 2040              		.loc 1 857 6 discriminator 12 view .LVU589
 2041 001a 0028     		cmp	r0, #0
 2042 001c 40F0D480 		bne	.L172
 2043              		.loc 1 861 8 is_stmt 1 view .LVU590
 2044              		.loc 1 861 51 is_stmt 0 view .LVU591
 2045 0020 002D     		cmp	r5, #0
 2046 0022 52D1     		bne	.L158
 2047              		.loc 1 861 12 discriminator 1 view .LVU592
 2048 0024 94F84220 		ldrb	r2, [r4, #66]	@ zero_extendqisi2
 2049              	.LVL134:
 2050              		.loc 1 861 12 discriminator 1 view .LVU593
 2051 0028 D2B2     		uxtb	r2, r2
 2052              		.loc 1 861 51 discriminator 1 view .LVU594
 2053 002a 012A     		cmp	r2, #1
 2054 002c 14BF     		ite	ne
 2055 002e 0022     		movne	r2, #0
 2056 0030 0122     		moveq	r2, #1
 2057              	.L159:
 2058              		.loc 1 861 11 discriminator 12 view .LVU595
 2059 0032 002A     		cmp	r2, #0
 2060 0034 00F0CA80 		beq	.L173
 2061              		.loc 1 863 5 is_stmt 1 view .LVU596
 2062              		.loc 1 863 8 is_stmt 0 view .LVU597
 2063 0038 002E     		cmp	r6, #0
 2064 003a 62D0     		beq	.L180
 2065              	.L162:
 2066              		.loc 1 869 7 is_stmt 1 view .LVU598
 2067 003c 002D     		cmp	r5, #0
 2068 003e 64D1     		bne	.L163
 2069              		.loc 1 869 7 is_stmt 0 discriminator 1 view .LVU599
 2070 0040 0222     		movs	r2, #2
 2071 0042 84F84220 		strb	r2, [r4, #66]
 2072              	.L164:
 2073              		.loc 1 877 3 is_stmt 1 view .LVU600
 2074 0046 042D     		cmp	r5, #4
 2075 0048 00F08680 		beq	.L167
 2076 004c 082D     		cmp	r5, #8
 2077 004e 00F09A80 		beq	.L168
 2078 0052 002D     		cmp	r5, #0
 2079 0054 69D0     		beq	.L181
 2080              	.LVL135:
 2081              	.L169:
 2082              		.loc 1 944 3 view .LVU601
 2083 0056 0422     		movs	r2, #4
 2084 0058 2946     		mov	r1, r5
 2085 005a 2068     		ldr	r0, [r4]
 2086 005c FFF7FEFF 		bl	TIM_CCxNChannelCmd
ARM GAS  C:\Users\Ika\AppData\Local\Temp\ccWGWhVY.s 			page 37


 2087              	.LVL136:
 2088              		.loc 1 947 3 view .LVU602
 2089 0060 2268     		ldr	r2, [r4]
 2090 0062 536C     		ldr	r3, [r2, #68]
 2091 0064 43F40043 		orr	r3, r3, #32768
 2092 0068 5364     		str	r3, [r2, #68]
 2093              		.loc 1 950 3 view .LVU603
 2094              		.loc 1 950 7 is_stmt 0 view .LVU604
 2095 006a 2368     		ldr	r3, [r4]
 2096              		.loc 1 950 6 view .LVU605
 2097 006c 5C4A     		ldr	r2, .L188
 2098 006e 9342     		cmp	r3, r2
 2099 0070 00F09F80 		beq	.L170
 2100              		.loc 1 950 7 discriminator 1 view .LVU606
 2101 0074 B3F1804F 		cmp	r3, #1073741824
 2102 0078 00F09B80 		beq	.L170
 2103              		.loc 1 950 7 discriminator 2 view .LVU607
 2104 007c A2F59432 		sub	r2, r2, #75776
 2105 0080 9342     		cmp	r3, r2
 2106 0082 00F09680 		beq	.L170
 2107              		.loc 1 960 5 is_stmt 1 view .LVU608
 2108 0086 1A68     		ldr	r2, [r3]
 2109 0088 42F00102 		orr	r2, r2, #1
 2110 008c 1A60     		str	r2, [r3]
 2111              		.loc 1 964 10 is_stmt 0 view .LVU609
 2112 008e 0020     		movs	r0, #0
 2113 0090 9DE0     		b	.L157
 2114              	.LVL137:
 2115              	.L153:
 2116              		.loc 1 857 46 discriminator 2 view .LVU610
 2117 0092 0429     		cmp	r1, #4
 2118 0094 09D0     		beq	.L182
 2119              		.loc 1 857 46 discriminator 5 view .LVU611
 2120 0096 0829     		cmp	r1, #8
 2121 0098 0FD0     		beq	.L183
 2122              		.loc 1 857 7 discriminator 8 view .LVU612
 2123 009a 90F84500 		ldrb	r0, [r0, #69]	@ zero_extendqisi2
 2124              	.LVL138:
 2125              		.loc 1 857 7 discriminator 8 view .LVU613
 2126 009e C0B2     		uxtb	r0, r0
 2127              		.loc 1 857 46 discriminator 8 view .LVU614
 2128 00a0 0228     		cmp	r0, #2
 2129 00a2 14BF     		ite	ne
 2130 00a4 0020     		movne	r0, #0
 2131 00a6 0120     		moveq	r0, #1
 2132 00a8 B7E7     		b	.L154
 2133              	.LVL139:
 2134              	.L182:
 2135              		.loc 1 857 7 discriminator 4 view .LVU615
 2136 00aa 90F84300 		ldrb	r0, [r0, #67]	@ zero_extendqisi2
 2137              	.LVL140:
 2138              		.loc 1 857 7 discriminator 4 view .LVU616
 2139 00ae C0B2     		uxtb	r0, r0
 2140              		.loc 1 857 46 discriminator 4 view .LVU617
 2141 00b0 0228     		cmp	r0, #2
 2142 00b2 14BF     		ite	ne
 2143 00b4 0020     		movne	r0, #0
ARM GAS  C:\Users\Ika\AppData\Local\Temp\ccWGWhVY.s 			page 38


 2144 00b6 0120     		moveq	r0, #1
 2145 00b8 AFE7     		b	.L154
 2146              	.LVL141:
 2147              	.L183:
 2148              		.loc 1 857 7 discriminator 7 view .LVU618
 2149 00ba 90F84400 		ldrb	r0, [r0, #68]	@ zero_extendqisi2
 2150              	.LVL142:
 2151              		.loc 1 857 7 discriminator 7 view .LVU619
 2152 00be C0B2     		uxtb	r0, r0
 2153              		.loc 1 857 46 discriminator 7 view .LVU620
 2154 00c0 0228     		cmp	r0, #2
 2155 00c2 14BF     		ite	ne
 2156 00c4 0020     		movne	r0, #0
 2157 00c6 0120     		moveq	r0, #1
 2158 00c8 A7E7     		b	.L154
 2159              	.L158:
 2160              		.loc 1 861 51 discriminator 2 view .LVU621
 2161 00ca 042D     		cmp	r5, #4
 2162 00cc 09D0     		beq	.L184
 2163              		.loc 1 861 51 discriminator 5 view .LVU622
 2164 00ce 082D     		cmp	r5, #8
 2165 00d0 0FD0     		beq	.L185
 2166              		.loc 1 861 12 discriminator 8 view .LVU623
 2167 00d2 94F84520 		ldrb	r2, [r4, #69]	@ zero_extendqisi2
 2168              	.LVL143:
 2169              		.loc 1 861 12 discriminator 8 view .LVU624
 2170 00d6 D2B2     		uxtb	r2, r2
 2171              		.loc 1 861 51 discriminator 8 view .LVU625
 2172 00d8 012A     		cmp	r2, #1
 2173 00da 14BF     		ite	ne
 2174 00dc 0022     		movne	r2, #0
 2175 00de 0122     		moveq	r2, #1
 2176 00e0 A7E7     		b	.L159
 2177              	.LVL144:
 2178              	.L184:
 2179              		.loc 1 861 12 discriminator 4 view .LVU626
 2180 00e2 94F84320 		ldrb	r2, [r4, #67]	@ zero_extendqisi2
 2181              	.LVL145:
 2182              		.loc 1 861 12 discriminator 4 view .LVU627
 2183 00e6 D2B2     		uxtb	r2, r2
 2184              		.loc 1 861 51 discriminator 4 view .LVU628
 2185 00e8 012A     		cmp	r2, #1
 2186 00ea 14BF     		ite	ne
 2187 00ec 0022     		movne	r2, #0
 2188 00ee 0122     		moveq	r2, #1
 2189 00f0 9FE7     		b	.L159
 2190              	.LVL146:
 2191              	.L185:
 2192              		.loc 1 861 12 discriminator 7 view .LVU629
 2193 00f2 94F84420 		ldrb	r2, [r4, #68]	@ zero_extendqisi2
 2194              	.LVL147:
 2195              		.loc 1 861 12 discriminator 7 view .LVU630
 2196 00f6 D2B2     		uxtb	r2, r2
 2197              		.loc 1 861 51 discriminator 7 view .LVU631
 2198 00f8 012A     		cmp	r2, #1
 2199 00fa 14BF     		ite	ne
 2200 00fc 0022     		movne	r2, #0
ARM GAS  C:\Users\Ika\AppData\Local\Temp\ccWGWhVY.s 			page 39


 2201 00fe 0122     		moveq	r2, #1
 2202 0100 97E7     		b	.L159
 2203              	.L180:
 2204              		.loc 1 863 25 discriminator 1 view .LVU632
 2205 0102 002B     		cmp	r3, #0
 2206 0104 9AD0     		beq	.L162
 2207              		.loc 1 865 14 view .LVU633
 2208 0106 0120     		movs	r0, #1
 2209 0108 61E0     		b	.L157
 2210              	.L163:
 2211              		.loc 1 869 7 discriminator 2 view .LVU634
 2212 010a 042D     		cmp	r5, #4
 2213 010c 05D0     		beq	.L186
 2214              		.loc 1 869 7 discriminator 4 view .LVU635
 2215 010e 082D     		cmp	r5, #8
 2216 0110 07D0     		beq	.L187
 2217              		.loc 1 869 7 discriminator 7 view .LVU636
 2218 0112 0222     		movs	r2, #2
 2219 0114 84F84520 		strb	r2, [r4, #69]
 2220 0118 95E7     		b	.L164
 2221              	.L186:
 2222              		.loc 1 869 7 discriminator 3 view .LVU637
 2223 011a 0222     		movs	r2, #2
 2224 011c 84F84320 		strb	r2, [r4, #67]
 2225 0120 91E7     		b	.L164
 2226              	.L187:
 2227              		.loc 1 869 7 discriminator 6 view .LVU638
 2228 0122 0222     		movs	r2, #2
 2229 0124 84F84420 		strb	r2, [r4, #68]
 2230 0128 8DE7     		b	.L164
 2231              	.L181:
 2232              		.loc 1 882 7 is_stmt 1 view .LVU639
 2233              		.loc 1 882 17 is_stmt 0 view .LVU640
 2234 012a 626A     		ldr	r2, [r4, #36]
 2235              		.loc 1 882 52 view .LVU641
 2236 012c 2D49     		ldr	r1, .L188+4
 2237              	.LVL148:
 2238              		.loc 1 882 52 view .LVU642
 2239 012e 9162     		str	r1, [r2, #40]
 2240              		.loc 1 883 7 is_stmt 1 view .LVU643
 2241              		.loc 1 883 17 is_stmt 0 view .LVU644
 2242 0130 626A     		ldr	r2, [r4, #36]
 2243              		.loc 1 883 56 view .LVU645
 2244 0132 2D49     		ldr	r1, .L188+8
 2245 0134 D162     		str	r1, [r2, #44]
 2246              		.loc 1 886 7 is_stmt 1 view .LVU646
 2247              		.loc 1 886 17 is_stmt 0 view .LVU647
 2248 0136 626A     		ldr	r2, [r4, #36]
 2249              		.loc 1 886 53 view .LVU648
 2250 0138 2C49     		ldr	r1, .L188+12
 2251 013a 1163     		str	r1, [r2, #48]
 2252              		.loc 1 889 7 is_stmt 1 view .LVU649
 2253              		.loc 1 889 88 is_stmt 0 view .LVU650
 2254 013c 2268     		ldr	r2, [r4]
 2255              		.loc 1 889 11 view .LVU651
 2256 013e 3432     		adds	r2, r2, #52
 2257 0140 3146     		mov	r1, r6
ARM GAS  C:\Users\Ika\AppData\Local\Temp\ccWGWhVY.s 			page 40


 2258 0142 606A     		ldr	r0, [r4, #36]
 2259 0144 FFF7FEFF 		bl	HAL_DMA_Start_IT
 2260              	.LVL149:
 2261              		.loc 1 889 10 view .LVU652
 2262 0148 0028     		cmp	r0, #0
 2263 014a 41D1     		bne	.L175
 2264              		.loc 1 895 7 is_stmt 1 view .LVU653
 2265 014c 2268     		ldr	r2, [r4]
 2266 014e D368     		ldr	r3, [r2, #12]
 2267 0150 43F40073 		orr	r3, r3, #512
 2268 0154 D360     		str	r3, [r2, #12]
 2269              		.loc 1 896 7 view .LVU654
 2270 0156 7EE7     		b	.L169
 2271              	.LVL150:
 2272              	.L167:
 2273              		.loc 1 902 7 view .LVU655
 2274              		.loc 1 902 17 is_stmt 0 view .LVU656
 2275 0158 A26A     		ldr	r2, [r4, #40]
 2276              		.loc 1 902 52 view .LVU657
 2277 015a 2249     		ldr	r1, .L188+4
 2278              	.LVL151:
 2279              		.loc 1 902 52 view .LVU658
 2280 015c 9162     		str	r1, [r2, #40]
 2281              		.loc 1 903 7 is_stmt 1 view .LVU659
 2282              		.loc 1 903 17 is_stmt 0 view .LVU660
 2283 015e A26A     		ldr	r2, [r4, #40]
 2284              		.loc 1 903 56 view .LVU661
 2285 0160 2149     		ldr	r1, .L188+8
 2286 0162 D162     		str	r1, [r2, #44]
 2287              		.loc 1 906 7 is_stmt 1 view .LVU662
 2288              		.loc 1 906 17 is_stmt 0 view .LVU663
 2289 0164 A26A     		ldr	r2, [r4, #40]
 2290              		.loc 1 906 53 view .LVU664
 2291 0166 2149     		ldr	r1, .L188+12
 2292 0168 1163     		str	r1, [r2, #48]
 2293              		.loc 1 909 7 is_stmt 1 view .LVU665
 2294              		.loc 1 909 88 is_stmt 0 view .LVU666
 2295 016a 2268     		ldr	r2, [r4]
 2296              		.loc 1 909 11 view .LVU667
 2297 016c 3832     		adds	r2, r2, #56
 2298 016e 3146     		mov	r1, r6
 2299 0170 A06A     		ldr	r0, [r4, #40]
 2300 0172 FFF7FEFF 		bl	HAL_DMA_Start_IT
 2301              	.LVL152:
 2302              		.loc 1 909 10 view .LVU668
 2303 0176 0028     		cmp	r0, #0
 2304 0178 2CD1     		bne	.L176
 2305              		.loc 1 915 7 is_stmt 1 view .LVU669
 2306 017a 2268     		ldr	r2, [r4]
 2307 017c D368     		ldr	r3, [r2, #12]
 2308 017e 43F48063 		orr	r3, r3, #1024
 2309 0182 D360     		str	r3, [r2, #12]
 2310              		.loc 1 916 7 view .LVU670
 2311 0184 67E7     		b	.L169
 2312              	.LVL153:
 2313              	.L168:
 2314              		.loc 1 922 7 view .LVU671
ARM GAS  C:\Users\Ika\AppData\Local\Temp\ccWGWhVY.s 			page 41


 2315              		.loc 1 922 17 is_stmt 0 view .LVU672
 2316 0186 E26A     		ldr	r2, [r4, #44]
 2317              		.loc 1 922 52 view .LVU673
 2318 0188 1649     		ldr	r1, .L188+4
 2319              	.LVL154:
 2320              		.loc 1 922 52 view .LVU674
 2321 018a 9162     		str	r1, [r2, #40]
 2322              		.loc 1 923 7 is_stmt 1 view .LVU675
 2323              		.loc 1 923 17 is_stmt 0 view .LVU676
 2324 018c E26A     		ldr	r2, [r4, #44]
 2325              		.loc 1 923 56 view .LVU677
 2326 018e 1649     		ldr	r1, .L188+8
 2327 0190 D162     		str	r1, [r2, #44]
 2328              		.loc 1 926 7 is_stmt 1 view .LVU678
 2329              		.loc 1 926 17 is_stmt 0 view .LVU679
 2330 0192 E26A     		ldr	r2, [r4, #44]
 2331              		.loc 1 926 53 view .LVU680
 2332 0194 1549     		ldr	r1, .L188+12
 2333 0196 1163     		str	r1, [r2, #48]
 2334              		.loc 1 929 7 is_stmt 1 view .LVU681
 2335              		.loc 1 929 88 is_stmt 0 view .LVU682
 2336 0198 2268     		ldr	r2, [r4]
 2337              		.loc 1 929 11 view .LVU683
 2338 019a 3C32     		adds	r2, r2, #60
 2339 019c 3146     		mov	r1, r6
 2340 019e E06A     		ldr	r0, [r4, #44]
 2341 01a0 FFF7FEFF 		bl	HAL_DMA_Start_IT
 2342              	.LVL155:
 2343              		.loc 1 929 10 view .LVU684
 2344 01a4 C0B9     		cbnz	r0, .L177
 2345              		.loc 1 935 7 is_stmt 1 view .LVU685
 2346 01a6 2268     		ldr	r2, [r4]
 2347 01a8 D368     		ldr	r3, [r2, #12]
 2348 01aa 43F40063 		orr	r3, r3, #2048
 2349 01ae D360     		str	r3, [r2, #12]
 2350              		.loc 1 936 7 view .LVU686
 2351 01b0 51E7     		b	.L169
 2352              	.L170:
 2353              		.loc 1 952 5 view .LVU687
 2354              		.loc 1 952 29 is_stmt 0 view .LVU688
 2355 01b2 9A68     		ldr	r2, [r3, #8]
 2356              		.loc 1 952 13 view .LVU689
 2357 01b4 02F00702 		and	r2, r2, #7
 2358              	.LVL156:
 2359              		.loc 1 953 5 is_stmt 1 view .LVU690
 2360              		.loc 1 953 8 is_stmt 0 view .LVU691
 2361 01b8 062A     		cmp	r2, #6
 2362 01ba 0FD0     		beq	.L178
 2363              		.loc 1 955 7 is_stmt 1 view .LVU692
 2364 01bc 1A68     		ldr	r2, [r3]
 2365              	.LVL157:
 2366              		.loc 1 955 7 is_stmt 0 view .LVU693
 2367 01be 42F00102 		orr	r2, r2, #1
 2368 01c2 1A60     		str	r2, [r3]
 2369              		.loc 1 964 10 view .LVU694
 2370 01c4 0020     		movs	r0, #0
 2371 01c6 02E0     		b	.L157
ARM GAS  C:\Users\Ika\AppData\Local\Temp\ccWGWhVY.s 			page 42


 2372              	.LVL158:
 2373              	.L172:
 2374              		.loc 1 859 12 view .LVU695
 2375 01c8 0220     		movs	r0, #2
 2376 01ca 00E0     		b	.L157
 2377              	.LVL159:
 2378              	.L173:
 2379              		.loc 1 874 12 view .LVU696
 2380 01cc 0120     		movs	r0, #1
 2381              	.LVL160:
 2382              	.L157:
 2383              		.loc 1 965 1 view .LVU697
 2384 01ce 70BD     		pop	{r4, r5, r6, pc}
 2385              	.LVL161:
 2386              	.L175:
 2387              		.loc 1 892 16 view .LVU698
 2388 01d0 0120     		movs	r0, #1
 2389 01d2 FCE7     		b	.L157
 2390              	.L176:
 2391              		.loc 1 912 16 view .LVU699
 2392 01d4 0120     		movs	r0, #1
 2393 01d6 FAE7     		b	.L157
 2394              	.L177:
 2395              		.loc 1 932 16 view .LVU700
 2396 01d8 0120     		movs	r0, #1
 2397 01da F8E7     		b	.L157
 2398              	.LVL162:
 2399              	.L178:
 2400              		.loc 1 964 10 view .LVU701
 2401 01dc 0020     		movs	r0, #0
 2402 01de F6E7     		b	.L157
 2403              	.L189:
 2404              		.align	2
 2405              	.L188:
 2406 01e0 002C0140 		.word	1073818624
 2407 01e4 00000000 		.word	TIM_DMADelayPulseNCplt
 2408 01e8 00000000 		.word	TIM_DMADelayPulseHalfCplt
 2409 01ec 00000000 		.word	TIM_DMAErrorCCxN
 2410              		.cfi_endproc
 2411              	.LFE79:
 2413              		.section	.text.HAL_TIMEx_OCN_Stop_DMA,"ax",%progbits
 2414              		.align	1
 2415              		.global	HAL_TIMEx_OCN_Stop_DMA
 2416              		.syntax unified
 2417              		.thumb
 2418              		.thumb_func
 2419              		.fpu softvfp
 2421              	HAL_TIMEx_OCN_Stop_DMA:
 2422              	.LVL163:
 2423              	.LFB80:
 2424              		.loc 1 979 1 is_stmt 1 view -0
 2425              		.cfi_startproc
 2426              		@ args = 0, pretend = 0, frame = 0
 2427              		@ frame_needed = 0, uses_anonymous_args = 0
 2428              		.loc 1 979 1 is_stmt 0 view .LVU703
 2429 0000 38B5     		push	{r3, r4, r5, lr}
 2430              	.LCFI21:
ARM GAS  C:\Users\Ika\AppData\Local\Temp\ccWGWhVY.s 			page 43


 2431              		.cfi_def_cfa_offset 16
 2432              		.cfi_offset 3, -16
 2433              		.cfi_offset 4, -12
 2434              		.cfi_offset 5, -8
 2435              		.cfi_offset 14, -4
 2436 0002 0546     		mov	r5, r0
 2437 0004 0C46     		mov	r4, r1
 2438              		.loc 1 981 3 is_stmt 1 view .LVU704
 2439              		.loc 1 983 3 view .LVU705
 2440 0006 0429     		cmp	r1, #4
 2441 0008 34D0     		beq	.L191
 2442 000a 0829     		cmp	r1, #8
 2443 000c 3BD0     		beq	.L192
 2444 000e 41B3     		cbz	r1, .L201
 2445              	.LVL164:
 2446              	.L193:
 2447              		.loc 1 1014 3 view .LVU706
 2448 0010 0022     		movs	r2, #0
 2449 0012 2146     		mov	r1, r4
 2450 0014 2868     		ldr	r0, [r5]
 2451 0016 FFF7FEFF 		bl	TIM_CCxNChannelCmd
 2452              	.LVL165:
 2453              		.loc 1 1017 3 view .LVU707
 2454              		.loc 1 1017 3 view .LVU708
 2455 001a 2B68     		ldr	r3, [r5]
 2456 001c 196A     		ldr	r1, [r3, #32]
 2457 001e 41F21112 		movw	r2, #4369
 2458 0022 1142     		tst	r1, r2
 2459 0024 08D1     		bne	.L194
 2460              		.loc 1 1017 3 discriminator 1 view .LVU709
 2461 0026 196A     		ldr	r1, [r3, #32]
 2462 0028 40F24442 		movw	r2, #1092
 2463 002c 1142     		tst	r1, r2
 2464 002e 03D1     		bne	.L194
 2465              		.loc 1 1017 3 discriminator 3 view .LVU710
 2466 0030 5A6C     		ldr	r2, [r3, #68]
 2467 0032 22F40042 		bic	r2, r2, #32768
 2468 0036 5A64     		str	r2, [r3, #68]
 2469              	.L194:
 2470              		.loc 1 1017 3 discriminator 5 view .LVU711
 2471              		.loc 1 1020 3 discriminator 5 view .LVU712
 2472              		.loc 1 1020 3 discriminator 5 view .LVU713
 2473 0038 2B68     		ldr	r3, [r5]
 2474 003a 196A     		ldr	r1, [r3, #32]
 2475 003c 41F21112 		movw	r2, #4369
 2476 0040 1142     		tst	r1, r2
 2477 0042 08D1     		bne	.L195
 2478              		.loc 1 1020 3 discriminator 1 view .LVU714
 2479 0044 196A     		ldr	r1, [r3, #32]
 2480 0046 40F24442 		movw	r2, #1092
 2481 004a 1142     		tst	r1, r2
 2482 004c 03D1     		bne	.L195
 2483              		.loc 1 1020 3 discriminator 3 view .LVU715
 2484 004e 1A68     		ldr	r2, [r3]
 2485 0050 22F00102 		bic	r2, r2, #1
 2486 0054 1A60     		str	r2, [r3]
 2487              	.L195:
ARM GAS  C:\Users\Ika\AppData\Local\Temp\ccWGWhVY.s 			page 44


 2488              		.loc 1 1020 3 discriminator 5 view .LVU716
 2489              		.loc 1 1023 3 discriminator 5 view .LVU717
 2490 0056 FCB9     		cbnz	r4, .L196
 2491              		.loc 1 1023 3 is_stmt 0 discriminator 1 view .LVU718
 2492 0058 0123     		movs	r3, #1
 2493 005a 85F84230 		strb	r3, [r5, #66]
 2494              	.L197:
 2495              		.loc 1 1026 3 is_stmt 1 view .LVU719
 2496              		.loc 1 1027 1 is_stmt 0 view .LVU720
 2497 005e 0020     		movs	r0, #0
 2498 0060 38BD     		pop	{r3, r4, r5, pc}
 2499              	.LVL166:
 2500              	.L201:
 2501              		.loc 1 988 7 is_stmt 1 view .LVU721
 2502 0062 0268     		ldr	r2, [r0]
 2503 0064 D368     		ldr	r3, [r2, #12]
 2504 0066 23F40073 		bic	r3, r3, #512
 2505 006a D360     		str	r3, [r2, #12]
 2506              		.loc 1 989 7 view .LVU722
 2507              		.loc 1 989 13 is_stmt 0 view .LVU723
 2508 006c 406A     		ldr	r0, [r0, #36]
 2509              	.LVL167:
 2510              		.loc 1 989 13 view .LVU724
 2511 006e FFF7FEFF 		bl	HAL_DMA_Abort_IT
 2512              	.LVL168:
 2513              		.loc 1 990 7 is_stmt 1 view .LVU725
 2514 0072 CDE7     		b	.L193
 2515              	.LVL169:
 2516              	.L191:
 2517              		.loc 1 996 7 view .LVU726
 2518 0074 0268     		ldr	r2, [r0]
 2519 0076 D368     		ldr	r3, [r2, #12]
 2520 0078 23F48063 		bic	r3, r3, #1024
 2521 007c D360     		str	r3, [r2, #12]
 2522              		.loc 1 997 7 view .LVU727
 2523              		.loc 1 997 13 is_stmt 0 view .LVU728
 2524 007e 806A     		ldr	r0, [r0, #40]
 2525              	.LVL170:
 2526              		.loc 1 997 13 view .LVU729
 2527 0080 FFF7FEFF 		bl	HAL_DMA_Abort_IT
 2528              	.LVL171:
 2529              		.loc 1 998 7 is_stmt 1 view .LVU730
 2530 0084 C4E7     		b	.L193
 2531              	.LVL172:
 2532              	.L192:
 2533              		.loc 1 1004 7 view .LVU731
 2534 0086 0268     		ldr	r2, [r0]
 2535 0088 D368     		ldr	r3, [r2, #12]
 2536 008a 23F40063 		bic	r3, r3, #2048
 2537 008e D360     		str	r3, [r2, #12]
 2538              		.loc 1 1005 7 view .LVU732
 2539              		.loc 1 1005 13 is_stmt 0 view .LVU733
 2540 0090 C06A     		ldr	r0, [r0, #44]
 2541              	.LVL173:
 2542              		.loc 1 1005 13 view .LVU734
 2543 0092 FFF7FEFF 		bl	HAL_DMA_Abort_IT
 2544              	.LVL174:
ARM GAS  C:\Users\Ika\AppData\Local\Temp\ccWGWhVY.s 			page 45


 2545              		.loc 1 1006 7 is_stmt 1 view .LVU735
 2546 0096 BBE7     		b	.L193
 2547              	.L196:
 2548              		.loc 1 1023 3 is_stmt 0 discriminator 2 view .LVU736
 2549 0098 042C     		cmp	r4, #4
 2550 009a 05D0     		beq	.L202
 2551              		.loc 1 1023 3 discriminator 4 view .LVU737
 2552 009c 082C     		cmp	r4, #8
 2553 009e 07D0     		beq	.L203
 2554              		.loc 1 1023 3 discriminator 7 view .LVU738
 2555 00a0 0123     		movs	r3, #1
 2556 00a2 85F84530 		strb	r3, [r5, #69]
 2557 00a6 DAE7     		b	.L197
 2558              	.L202:
 2559              		.loc 1 1023 3 discriminator 3 view .LVU739
 2560 00a8 0123     		movs	r3, #1
 2561 00aa 85F84330 		strb	r3, [r5, #67]
 2562 00ae D6E7     		b	.L197
 2563              	.L203:
 2564              		.loc 1 1023 3 discriminator 6 view .LVU740
 2565 00b0 0123     		movs	r3, #1
 2566 00b2 85F84430 		strb	r3, [r5, #68]
 2567 00b6 D2E7     		b	.L197
 2568              		.cfi_endproc
 2569              	.LFE80:
 2571              		.section	.text.HAL_TIMEx_PWMN_Start,"ax",%progbits
 2572              		.align	1
 2573              		.global	HAL_TIMEx_PWMN_Start
 2574              		.syntax unified
 2575              		.thumb
 2576              		.thumb_func
 2577              		.fpu softvfp
 2579              	HAL_TIMEx_PWMN_Start:
 2580              	.LVL175:
 2581              	.LFB81:
 2582              		.loc 1 1074 1 is_stmt 1 view -0
 2583              		.cfi_startproc
 2584              		@ args = 0, pretend = 0, frame = 0
 2585              		@ frame_needed = 0, uses_anonymous_args = 0
 2586              		.loc 1 1074 1 is_stmt 0 view .LVU742
 2587 0000 10B5     		push	{r4, lr}
 2588              	.LCFI22:
 2589              		.cfi_def_cfa_offset 8
 2590              		.cfi_offset 4, -8
 2591              		.cfi_offset 14, -4
 2592 0002 0446     		mov	r4, r0
 2593              		.loc 1 1075 3 is_stmt 1 view .LVU743
 2594              		.loc 1 1078 3 view .LVU744
 2595              		.loc 1 1081 3 view .LVU745
 2596              		.loc 1 1081 46 is_stmt 0 view .LVU746
 2597 0004 0846     		mov	r0, r1
 2598              	.LVL176:
 2599              		.loc 1 1081 46 view .LVU747
 2600 0006 39BB     		cbnz	r1, .L205
 2601              		.loc 1 1081 7 discriminator 1 view .LVU748
 2602 0008 94F84230 		ldrb	r3, [r4, #66]	@ zero_extendqisi2
 2603 000c DBB2     		uxtb	r3, r3
ARM GAS  C:\Users\Ika\AppData\Local\Temp\ccWGWhVY.s 			page 46


 2604              		.loc 1 1081 46 discriminator 1 view .LVU749
 2605 000e 013B     		subs	r3, r3, #1
 2606 0010 18BF     		it	ne
 2607 0012 0123     		movne	r3, #1
 2608              	.L206:
 2609              		.loc 1 1081 6 discriminator 12 view .LVU750
 2610 0014 002B     		cmp	r3, #0
 2611 0016 53D1     		bne	.L216
 2612              		.loc 1 1087 3 is_stmt 1 view .LVU751
 2613 0018 0028     		cmp	r0, #0
 2614 001a 36D1     		bne	.L210
 2615              		.loc 1 1087 3 is_stmt 0 discriminator 1 view .LVU752
 2616 001c 0223     		movs	r3, #2
 2617 001e 84F84230 		strb	r3, [r4, #66]
 2618              	.L211:
 2619              		.loc 1 1090 3 is_stmt 1 view .LVU753
 2620 0022 0422     		movs	r2, #4
 2621 0024 0146     		mov	r1, r0
 2622              	.LVL177:
 2623              		.loc 1 1090 3 is_stmt 0 view .LVU754
 2624 0026 2068     		ldr	r0, [r4]
 2625              	.LVL178:
 2626              		.loc 1 1090 3 view .LVU755
 2627 0028 FFF7FEFF 		bl	TIM_CCxNChannelCmd
 2628              	.LVL179:
 2629              		.loc 1 1093 3 is_stmt 1 view .LVU756
 2630 002c 2268     		ldr	r2, [r4]
 2631 002e 536C     		ldr	r3, [r2, #68]
 2632 0030 43F40043 		orr	r3, r3, #32768
 2633 0034 5364     		str	r3, [r2, #68]
 2634              		.loc 1 1096 3 view .LVU757
 2635              		.loc 1 1096 7 is_stmt 0 view .LVU758
 2636 0036 2368     		ldr	r3, [r4]
 2637              		.loc 1 1096 6 view .LVU759
 2638 0038 234A     		ldr	r2, .L223
 2639 003a 9342     		cmp	r3, r2
 2640 003c 35D0     		beq	.L214
 2641              		.loc 1 1096 7 discriminator 1 view .LVU760
 2642 003e B3F1804F 		cmp	r3, #1073741824
 2643 0042 32D0     		beq	.L214
 2644              		.loc 1 1096 7 discriminator 2 view .LVU761
 2645 0044 A2F59432 		sub	r2, r2, #75776
 2646 0048 9342     		cmp	r3, r2
 2647 004a 2ED0     		beq	.L214
 2648              		.loc 1 1106 5 is_stmt 1 view .LVU762
 2649 004c 1A68     		ldr	r2, [r3]
 2650 004e 42F00102 		orr	r2, r2, #1
 2651 0052 1A60     		str	r2, [r3]
 2652              		.loc 1 1110 10 is_stmt 0 view .LVU763
 2653 0054 0020     		movs	r0, #0
 2654 0056 34E0     		b	.L209
 2655              	.LVL180:
 2656              	.L205:
 2657              		.loc 1 1081 46 discriminator 2 view .LVU764
 2658 0058 0429     		cmp	r1, #4
 2659 005a 08D0     		beq	.L219
 2660              		.loc 1 1081 46 discriminator 5 view .LVU765
ARM GAS  C:\Users\Ika\AppData\Local\Temp\ccWGWhVY.s 			page 47


 2661 005c 0829     		cmp	r1, #8
 2662 005e 0DD0     		beq	.L220
 2663              		.loc 1 1081 7 discriminator 8 view .LVU766
 2664 0060 94F84530 		ldrb	r3, [r4, #69]	@ zero_extendqisi2
 2665 0064 DBB2     		uxtb	r3, r3
 2666              		.loc 1 1081 46 discriminator 8 view .LVU767
 2667 0066 013B     		subs	r3, r3, #1
 2668 0068 18BF     		it	ne
 2669 006a 0123     		movne	r3, #1
 2670 006c D2E7     		b	.L206
 2671              	.L219:
 2672              		.loc 1 1081 7 discriminator 4 view .LVU768
 2673 006e 94F84330 		ldrb	r3, [r4, #67]	@ zero_extendqisi2
 2674 0072 DBB2     		uxtb	r3, r3
 2675              		.loc 1 1081 46 discriminator 4 view .LVU769
 2676 0074 013B     		subs	r3, r3, #1
 2677 0076 18BF     		it	ne
 2678 0078 0123     		movne	r3, #1
 2679 007a CBE7     		b	.L206
 2680              	.L220:
 2681              		.loc 1 1081 7 discriminator 7 view .LVU770
 2682 007c 94F84430 		ldrb	r3, [r4, #68]	@ zero_extendqisi2
 2683 0080 DBB2     		uxtb	r3, r3
 2684              		.loc 1 1081 46 discriminator 7 view .LVU771
 2685 0082 013B     		subs	r3, r3, #1
 2686 0084 18BF     		it	ne
 2687 0086 0123     		movne	r3, #1
 2688 0088 C4E7     		b	.L206
 2689              	.L210:
 2690              		.loc 1 1087 3 discriminator 2 view .LVU772
 2691 008a 0428     		cmp	r0, #4
 2692 008c 05D0     		beq	.L221
 2693              		.loc 1 1087 3 discriminator 4 view .LVU773
 2694 008e 0828     		cmp	r0, #8
 2695 0090 07D0     		beq	.L222
 2696              		.loc 1 1087 3 discriminator 7 view .LVU774
 2697 0092 0223     		movs	r3, #2
 2698 0094 84F84530 		strb	r3, [r4, #69]
 2699 0098 C3E7     		b	.L211
 2700              	.L221:
 2701              		.loc 1 1087 3 discriminator 3 view .LVU775
 2702 009a 0223     		movs	r3, #2
 2703 009c 84F84330 		strb	r3, [r4, #67]
 2704 00a0 BFE7     		b	.L211
 2705              	.L222:
 2706              		.loc 1 1087 3 discriminator 6 view .LVU776
 2707 00a2 0223     		movs	r3, #2
 2708 00a4 84F84430 		strb	r3, [r4, #68]
 2709 00a8 BBE7     		b	.L211
 2710              	.LVL181:
 2711              	.L214:
 2712              		.loc 1 1098 5 is_stmt 1 view .LVU777
 2713              		.loc 1 1098 29 is_stmt 0 view .LVU778
 2714 00aa 9A68     		ldr	r2, [r3, #8]
 2715              		.loc 1 1098 13 view .LVU779
 2716 00ac 02F00702 		and	r2, r2, #7
 2717              	.LVL182:
ARM GAS  C:\Users\Ika\AppData\Local\Temp\ccWGWhVY.s 			page 48


 2718              		.loc 1 1099 5 is_stmt 1 view .LVU780
 2719              		.loc 1 1099 8 is_stmt 0 view .LVU781
 2720 00b0 062A     		cmp	r2, #6
 2721 00b2 07D0     		beq	.L217
 2722              		.loc 1 1101 7 is_stmt 1 view .LVU782
 2723 00b4 1A68     		ldr	r2, [r3]
 2724              	.LVL183:
 2725              		.loc 1 1101 7 is_stmt 0 view .LVU783
 2726 00b6 42F00102 		orr	r2, r2, #1
 2727 00ba 1A60     		str	r2, [r3]
 2728              		.loc 1 1110 10 view .LVU784
 2729 00bc 0020     		movs	r0, #0
 2730 00be 00E0     		b	.L209
 2731              	.LVL184:
 2732              	.L216:
 2733              		.loc 1 1083 12 view .LVU785
 2734 00c0 0120     		movs	r0, #1
 2735              	.LVL185:
 2736              	.L209:
 2737              		.loc 1 1111 1 view .LVU786
 2738 00c2 10BD     		pop	{r4, pc}
 2739              	.LVL186:
 2740              	.L217:
 2741              		.loc 1 1110 10 view .LVU787
 2742 00c4 0020     		movs	r0, #0
 2743 00c6 FCE7     		b	.L209
 2744              	.L224:
 2745              		.align	2
 2746              	.L223:
 2747 00c8 002C0140 		.word	1073818624
 2748              		.cfi_endproc
 2749              	.LFE81:
 2751              		.section	.text.HAL_TIMEx_PWMN_Stop,"ax",%progbits
 2752              		.align	1
 2753              		.global	HAL_TIMEx_PWMN_Stop
 2754              		.syntax unified
 2755              		.thumb
 2756              		.thumb_func
 2757              		.fpu softvfp
 2759              	HAL_TIMEx_PWMN_Stop:
 2760              	.LVL187:
 2761              	.LFB82:
 2762              		.loc 1 1124 1 is_stmt 1 view -0
 2763              		.cfi_startproc
 2764              		@ args = 0, pretend = 0, frame = 0
 2765              		@ frame_needed = 0, uses_anonymous_args = 0
 2766              		.loc 1 1124 1 is_stmt 0 view .LVU789
 2767 0000 38B5     		push	{r3, r4, r5, lr}
 2768              	.LCFI23:
 2769              		.cfi_def_cfa_offset 16
 2770              		.cfi_offset 3, -16
 2771              		.cfi_offset 4, -12
 2772              		.cfi_offset 5, -8
 2773              		.cfi_offset 14, -4
 2774 0002 0446     		mov	r4, r0
 2775 0004 0D46     		mov	r5, r1
 2776              		.loc 1 1126 3 is_stmt 1 view .LVU790
ARM GAS  C:\Users\Ika\AppData\Local\Temp\ccWGWhVY.s 			page 49


 2777              		.loc 1 1129 3 view .LVU791
 2778 0006 0022     		movs	r2, #0
 2779 0008 0068     		ldr	r0, [r0]
 2780              	.LVL188:
 2781              		.loc 1 1129 3 is_stmt 0 view .LVU792
 2782 000a FFF7FEFF 		bl	TIM_CCxNChannelCmd
 2783              	.LVL189:
 2784              		.loc 1 1132 3 is_stmt 1 view .LVU793
 2785              		.loc 1 1132 3 view .LVU794
 2786 000e 2368     		ldr	r3, [r4]
 2787 0010 196A     		ldr	r1, [r3, #32]
 2788 0012 41F21112 		movw	r2, #4369
 2789 0016 1142     		tst	r1, r2
 2790 0018 08D1     		bne	.L226
 2791              		.loc 1 1132 3 discriminator 1 view .LVU795
 2792 001a 196A     		ldr	r1, [r3, #32]
 2793 001c 40F24442 		movw	r2, #1092
 2794 0020 1142     		tst	r1, r2
 2795 0022 03D1     		bne	.L226
 2796              		.loc 1 1132 3 discriminator 3 view .LVU796
 2797 0024 5A6C     		ldr	r2, [r3, #68]
 2798 0026 22F40042 		bic	r2, r2, #32768
 2799 002a 5A64     		str	r2, [r3, #68]
 2800              	.L226:
 2801              		.loc 1 1132 3 discriminator 5 view .LVU797
 2802              		.loc 1 1135 3 discriminator 5 view .LVU798
 2803              		.loc 1 1135 3 discriminator 5 view .LVU799
 2804 002c 2368     		ldr	r3, [r4]
 2805 002e 196A     		ldr	r1, [r3, #32]
 2806 0030 41F21112 		movw	r2, #4369
 2807 0034 1142     		tst	r1, r2
 2808 0036 08D1     		bne	.L227
 2809              		.loc 1 1135 3 discriminator 1 view .LVU800
 2810 0038 196A     		ldr	r1, [r3, #32]
 2811 003a 40F24442 		movw	r2, #1092
 2812 003e 1142     		tst	r1, r2
 2813 0040 03D1     		bne	.L227
 2814              		.loc 1 1135 3 discriminator 3 view .LVU801
 2815 0042 1A68     		ldr	r2, [r3]
 2816 0044 22F00102 		bic	r2, r2, #1
 2817 0048 1A60     		str	r2, [r3]
 2818              	.L227:
 2819              		.loc 1 1135 3 discriminator 5 view .LVU802
 2820              		.loc 1 1138 3 discriminator 5 view .LVU803
 2821 004a 25B9     		cbnz	r5, .L228
 2822              		.loc 1 1138 3 is_stmt 0 discriminator 1 view .LVU804
 2823 004c 0123     		movs	r3, #1
 2824 004e 84F84230 		strb	r3, [r4, #66]
 2825              	.L229:
 2826              		.loc 1 1141 3 is_stmt 1 view .LVU805
 2827              		.loc 1 1142 1 is_stmt 0 view .LVU806
 2828 0052 0020     		movs	r0, #0
 2829 0054 38BD     		pop	{r3, r4, r5, pc}
 2830              	.LVL190:
 2831              	.L228:
 2832              		.loc 1 1138 3 discriminator 2 view .LVU807
 2833 0056 042D     		cmp	r5, #4
ARM GAS  C:\Users\Ika\AppData\Local\Temp\ccWGWhVY.s 			page 50


 2834 0058 05D0     		beq	.L233
 2835              		.loc 1 1138 3 discriminator 4 view .LVU808
 2836 005a 082D     		cmp	r5, #8
 2837 005c 07D0     		beq	.L234
 2838              		.loc 1 1138 3 discriminator 7 view .LVU809
 2839 005e 0123     		movs	r3, #1
 2840 0060 84F84530 		strb	r3, [r4, #69]
 2841 0064 F5E7     		b	.L229
 2842              	.L233:
 2843              		.loc 1 1138 3 discriminator 3 view .LVU810
 2844 0066 0123     		movs	r3, #1
 2845 0068 84F84330 		strb	r3, [r4, #67]
 2846 006c F1E7     		b	.L229
 2847              	.L234:
 2848              		.loc 1 1138 3 discriminator 6 view .LVU811
 2849 006e 0123     		movs	r3, #1
 2850 0070 84F84430 		strb	r3, [r4, #68]
 2851 0074 EDE7     		b	.L229
 2852              		.cfi_endproc
 2853              	.LFE82:
 2855              		.section	.text.HAL_TIMEx_PWMN_Start_IT,"ax",%progbits
 2856              		.align	1
 2857              		.global	HAL_TIMEx_PWMN_Start_IT
 2858              		.syntax unified
 2859              		.thumb
 2860              		.thumb_func
 2861              		.fpu softvfp
 2863              	HAL_TIMEx_PWMN_Start_IT:
 2864              	.LVL191:
 2865              	.LFB83:
 2866              		.loc 1 1156 1 is_stmt 1 view -0
 2867              		.cfi_startproc
 2868              		@ args = 0, pretend = 0, frame = 0
 2869              		@ frame_needed = 0, uses_anonymous_args = 0
 2870              		.loc 1 1156 1 is_stmt 0 view .LVU813
 2871 0000 10B5     		push	{r4, lr}
 2872              	.LCFI24:
 2873              		.cfi_def_cfa_offset 8
 2874              		.cfi_offset 4, -8
 2875              		.cfi_offset 14, -4
 2876 0002 0446     		mov	r4, r0
 2877              		.loc 1 1157 3 is_stmt 1 view .LVU814
 2878              		.loc 1 1160 3 view .LVU815
 2879              		.loc 1 1163 3 view .LVU816
 2880              		.loc 1 1163 46 is_stmt 0 view .LVU817
 2881 0004 0846     		mov	r0, r1
 2882              	.LVL192:
 2883              		.loc 1 1163 46 view .LVU818
 2884 0006 0029     		cmp	r1, #0
 2885 0008 32D1     		bne	.L236
 2886              		.loc 1 1163 7 discriminator 1 view .LVU819
 2887 000a 94F84230 		ldrb	r3, [r4, #66]	@ zero_extendqisi2
 2888 000e DBB2     		uxtb	r3, r3
 2889              		.loc 1 1163 46 discriminator 1 view .LVU820
 2890 0010 013B     		subs	r3, r3, #1
 2891 0012 18BF     		it	ne
 2892 0014 0123     		movne	r3, #1
ARM GAS  C:\Users\Ika\AppData\Local\Temp\ccWGWhVY.s 			page 51


 2893              	.L237:
 2894              		.loc 1 1163 6 discriminator 12 view .LVU821
 2895 0016 002B     		cmp	r3, #0
 2896 0018 70D1     		bne	.L250
 2897              		.loc 1 1169 3 is_stmt 1 view .LVU822
 2898 001a 0028     		cmp	r0, #0
 2899 001c 41D1     		bne	.L241
 2900              		.loc 1 1169 3 is_stmt 0 discriminator 1 view .LVU823
 2901 001e 0223     		movs	r3, #2
 2902 0020 84F84230 		strb	r3, [r4, #66]
 2903              	.L242:
 2904              		.loc 1 1171 3 is_stmt 1 view .LVU824
 2905 0024 0428     		cmp	r0, #4
 2906 0026 52D0     		beq	.L245
 2907 0028 0828     		cmp	r0, #8
 2908 002a 56D0     		beq	.L246
 2909 002c 0028     		cmp	r0, #0
 2910 002e 48D0     		beq	.L253
 2911              	.L247:
 2912              		.loc 1 1199 3 view .LVU825
 2913 0030 2268     		ldr	r2, [r4]
 2914 0032 D368     		ldr	r3, [r2, #12]
 2915 0034 43F08003 		orr	r3, r3, #128
 2916 0038 D360     		str	r3, [r2, #12]
 2917              		.loc 1 1202 3 view .LVU826
 2918 003a 0422     		movs	r2, #4
 2919 003c 0146     		mov	r1, r0
 2920              	.LVL193:
 2921              		.loc 1 1202 3 is_stmt 0 view .LVU827
 2922 003e 2068     		ldr	r0, [r4]
 2923              	.LVL194:
 2924              		.loc 1 1202 3 view .LVU828
 2925 0040 FFF7FEFF 		bl	TIM_CCxNChannelCmd
 2926              	.LVL195:
 2927              		.loc 1 1205 3 is_stmt 1 view .LVU829
 2928 0044 2268     		ldr	r2, [r4]
 2929 0046 536C     		ldr	r3, [r2, #68]
 2930 0048 43F40043 		orr	r3, r3, #32768
 2931 004c 5364     		str	r3, [r2, #68]
 2932              		.loc 1 1208 3 view .LVU830
 2933              		.loc 1 1208 7 is_stmt 0 view .LVU831
 2934 004e 2368     		ldr	r3, [r4]
 2935              		.loc 1 1208 6 view .LVU832
 2936 0050 2C4A     		ldr	r2, .L258
 2937 0052 9342     		cmp	r3, r2
 2938 0054 47D0     		beq	.L248
 2939              		.loc 1 1208 7 discriminator 1 view .LVU833
 2940 0056 B3F1804F 		cmp	r3, #1073741824
 2941 005a 44D0     		beq	.L248
 2942              		.loc 1 1208 7 discriminator 2 view .LVU834
 2943 005c A2F59432 		sub	r2, r2, #75776
 2944 0060 9342     		cmp	r3, r2
 2945 0062 40D0     		beq	.L248
 2946              		.loc 1 1218 5 is_stmt 1 view .LVU835
 2947 0064 1A68     		ldr	r2, [r3]
 2948 0066 42F00102 		orr	r2, r2, #1
 2949 006a 1A60     		str	r2, [r3]
ARM GAS  C:\Users\Ika\AppData\Local\Temp\ccWGWhVY.s 			page 52


 2950              		.loc 1 1222 10 is_stmt 0 view .LVU836
 2951 006c 0020     		movs	r0, #0
 2952 006e 46E0     		b	.L240
 2953              	.LVL196:
 2954              	.L236:
 2955              		.loc 1 1163 46 discriminator 2 view .LVU837
 2956 0070 0429     		cmp	r1, #4
 2957 0072 08D0     		beq	.L254
 2958              		.loc 1 1163 46 discriminator 5 view .LVU838
 2959 0074 0829     		cmp	r1, #8
 2960 0076 0DD0     		beq	.L255
 2961              		.loc 1 1163 7 discriminator 8 view .LVU839
 2962 0078 94F84530 		ldrb	r3, [r4, #69]	@ zero_extendqisi2
 2963 007c DBB2     		uxtb	r3, r3
 2964              		.loc 1 1163 46 discriminator 8 view .LVU840
 2965 007e 013B     		subs	r3, r3, #1
 2966 0080 18BF     		it	ne
 2967 0082 0123     		movne	r3, #1
 2968 0084 C7E7     		b	.L237
 2969              	.L254:
 2970              		.loc 1 1163 7 discriminator 4 view .LVU841
 2971 0086 94F84330 		ldrb	r3, [r4, #67]	@ zero_extendqisi2
 2972 008a DBB2     		uxtb	r3, r3
 2973              		.loc 1 1163 46 discriminator 4 view .LVU842
 2974 008c 013B     		subs	r3, r3, #1
 2975 008e 18BF     		it	ne
 2976 0090 0123     		movne	r3, #1
 2977 0092 C0E7     		b	.L237
 2978              	.L255:
 2979              		.loc 1 1163 7 discriminator 7 view .LVU843
 2980 0094 94F84430 		ldrb	r3, [r4, #68]	@ zero_extendqisi2
 2981 0098 DBB2     		uxtb	r3, r3
 2982              		.loc 1 1163 46 discriminator 7 view .LVU844
 2983 009a 013B     		subs	r3, r3, #1
 2984 009c 18BF     		it	ne
 2985 009e 0123     		movne	r3, #1
 2986 00a0 B9E7     		b	.L237
 2987              	.L241:
 2988              		.loc 1 1169 3 discriminator 2 view .LVU845
 2989 00a2 0428     		cmp	r0, #4
 2990 00a4 05D0     		beq	.L256
 2991              		.loc 1 1169 3 discriminator 4 view .LVU846
 2992 00a6 0828     		cmp	r0, #8
 2993 00a8 07D0     		beq	.L257
 2994              		.loc 1 1169 3 discriminator 7 view .LVU847
 2995 00aa 0223     		movs	r3, #2
 2996 00ac 84F84530 		strb	r3, [r4, #69]
 2997 00b0 B8E7     		b	.L242
 2998              	.L256:
 2999              		.loc 1 1169 3 discriminator 3 view .LVU848
 3000 00b2 0223     		movs	r3, #2
 3001 00b4 84F84330 		strb	r3, [r4, #67]
 3002 00b8 B4E7     		b	.L242
 3003              	.L257:
 3004              		.loc 1 1169 3 discriminator 6 view .LVU849
 3005 00ba 0223     		movs	r3, #2
 3006 00bc 84F84430 		strb	r3, [r4, #68]
ARM GAS  C:\Users\Ika\AppData\Local\Temp\ccWGWhVY.s 			page 53


 3007 00c0 B0E7     		b	.L242
 3008              	.L253:
 3009              		.loc 1 1176 7 is_stmt 1 view .LVU850
 3010 00c2 2268     		ldr	r2, [r4]
 3011 00c4 D368     		ldr	r3, [r2, #12]
 3012 00c6 43F00203 		orr	r3, r3, #2
 3013 00ca D360     		str	r3, [r2, #12]
 3014              		.loc 1 1177 7 view .LVU851
 3015 00cc B0E7     		b	.L247
 3016              	.L245:
 3017              		.loc 1 1183 7 view .LVU852
 3018 00ce 2268     		ldr	r2, [r4]
 3019 00d0 D368     		ldr	r3, [r2, #12]
 3020 00d2 43F00403 		orr	r3, r3, #4
 3021 00d6 D360     		str	r3, [r2, #12]
 3022              		.loc 1 1184 7 view .LVU853
 3023 00d8 AAE7     		b	.L247
 3024              	.L246:
 3025              		.loc 1 1190 7 view .LVU854
 3026 00da 2268     		ldr	r2, [r4]
 3027 00dc D368     		ldr	r3, [r2, #12]
 3028 00de 43F00803 		orr	r3, r3, #8
 3029 00e2 D360     		str	r3, [r2, #12]
 3030              		.loc 1 1191 7 view .LVU855
 3031 00e4 A4E7     		b	.L247
 3032              	.LVL197:
 3033              	.L248:
 3034              		.loc 1 1210 5 view .LVU856
 3035              		.loc 1 1210 29 is_stmt 0 view .LVU857
 3036 00e6 9A68     		ldr	r2, [r3, #8]
 3037              		.loc 1 1210 13 view .LVU858
 3038 00e8 02F00702 		and	r2, r2, #7
 3039              	.LVL198:
 3040              		.loc 1 1211 5 is_stmt 1 view .LVU859
 3041              		.loc 1 1211 8 is_stmt 0 view .LVU860
 3042 00ec 062A     		cmp	r2, #6
 3043 00ee 07D0     		beq	.L251
 3044              		.loc 1 1213 7 is_stmt 1 view .LVU861
 3045 00f0 1A68     		ldr	r2, [r3]
 3046              	.LVL199:
 3047              		.loc 1 1213 7 is_stmt 0 view .LVU862
 3048 00f2 42F00102 		orr	r2, r2, #1
 3049 00f6 1A60     		str	r2, [r3]
 3050              		.loc 1 1222 10 view .LVU863
 3051 00f8 0020     		movs	r0, #0
 3052 00fa 00E0     		b	.L240
 3053              	.LVL200:
 3054              	.L250:
 3055              		.loc 1 1165 12 view .LVU864
 3056 00fc 0120     		movs	r0, #1
 3057              	.LVL201:
 3058              	.L240:
 3059              		.loc 1 1223 1 view .LVU865
 3060 00fe 10BD     		pop	{r4, pc}
 3061              	.LVL202:
 3062              	.L251:
 3063              		.loc 1 1222 10 view .LVU866
ARM GAS  C:\Users\Ika\AppData\Local\Temp\ccWGWhVY.s 			page 54


 3064 0100 0020     		movs	r0, #0
 3065 0102 FCE7     		b	.L240
 3066              	.L259:
 3067              		.align	2
 3068              	.L258:
 3069 0104 002C0140 		.word	1073818624
 3070              		.cfi_endproc
 3071              	.LFE83:
 3073              		.section	.text.HAL_TIMEx_PWMN_Stop_IT,"ax",%progbits
 3074              		.align	1
 3075              		.global	HAL_TIMEx_PWMN_Stop_IT
 3076              		.syntax unified
 3077              		.thumb
 3078              		.thumb_func
 3079              		.fpu softvfp
 3081              	HAL_TIMEx_PWMN_Stop_IT:
 3082              	.LVL203:
 3083              	.LFB84:
 3084              		.loc 1 1237 1 is_stmt 1 view -0
 3085              		.cfi_startproc
 3086              		@ args = 0, pretend = 0, frame = 0
 3087              		@ frame_needed = 0, uses_anonymous_args = 0
 3088              		.loc 1 1237 1 is_stmt 0 view .LVU868
 3089 0000 38B5     		push	{r3, r4, r5, lr}
 3090              	.LCFI25:
 3091              		.cfi_def_cfa_offset 16
 3092              		.cfi_offset 3, -16
 3093              		.cfi_offset 4, -12
 3094              		.cfi_offset 5, -8
 3095              		.cfi_offset 14, -4
 3096 0002 0546     		mov	r5, r0
 3097 0004 0C46     		mov	r4, r1
 3098              		.loc 1 1238 3 is_stmt 1 view .LVU869
 3099              		.loc 1 1241 3 view .LVU870
 3100              		.loc 1 1243 3 view .LVU871
 3101 0006 0429     		cmp	r1, #4
 3102 0008 3CD0     		beq	.L261
 3103 000a 0829     		cmp	r1, #8
 3104 000c 40D0     		beq	.L262
 3105 000e 0029     		cmp	r1, #0
 3106 0010 32D0     		beq	.L272
 3107              	.L263:
 3108              		.loc 1 1271 3 view .LVU872
 3109 0012 0022     		movs	r2, #0
 3110 0014 2146     		mov	r1, r4
 3111              	.LVL204:
 3112              		.loc 1 1271 3 is_stmt 0 view .LVU873
 3113 0016 2868     		ldr	r0, [r5]
 3114              	.LVL205:
 3115              		.loc 1 1271 3 view .LVU874
 3116 0018 FFF7FEFF 		bl	TIM_CCxNChannelCmd
 3117              	.LVL206:
 3118              		.loc 1 1274 3 is_stmt 1 view .LVU875
 3119              		.loc 1 1274 17 is_stmt 0 view .LVU876
 3120 001c 2B68     		ldr	r3, [r5]
 3121              		.loc 1 1274 11 view .LVU877
 3122 001e 196A     		ldr	r1, [r3, #32]
ARM GAS  C:\Users\Ika\AppData\Local\Temp\ccWGWhVY.s 			page 55


 3123              	.LVL207:
 3124              		.loc 1 1275 3 is_stmt 1 view .LVU878
 3125              		.loc 1 1275 6 is_stmt 0 view .LVU879
 3126 0020 40F24442 		movw	r2, #1092
 3127 0024 1142     		tst	r1, r2
 3128 0026 03D1     		bne	.L264
 3129              		.loc 1 1277 5 is_stmt 1 view .LVU880
 3130 0028 DA68     		ldr	r2, [r3, #12]
 3131 002a 22F08002 		bic	r2, r2, #128
 3132 002e DA60     		str	r2, [r3, #12]
 3133              	.L264:
 3134              		.loc 1 1281 3 view .LVU881
 3135              		.loc 1 1281 3 view .LVU882
 3136 0030 2B68     		ldr	r3, [r5]
 3137 0032 196A     		ldr	r1, [r3, #32]
 3138              	.LVL208:
 3139              		.loc 1 1281 3 is_stmt 0 view .LVU883
 3140 0034 41F21112 		movw	r2, #4369
 3141 0038 1142     		tst	r1, r2
 3142 003a 08D1     		bne	.L265
 3143              		.loc 1 1281 3 is_stmt 1 discriminator 1 view .LVU884
 3144 003c 196A     		ldr	r1, [r3, #32]
 3145 003e 40F24442 		movw	r2, #1092
 3146 0042 1142     		tst	r1, r2
 3147 0044 03D1     		bne	.L265
 3148              		.loc 1 1281 3 discriminator 3 view .LVU885
 3149 0046 5A6C     		ldr	r2, [r3, #68]
 3150 0048 22F40042 		bic	r2, r2, #32768
 3151 004c 5A64     		str	r2, [r3, #68]
 3152              	.L265:
 3153              		.loc 1 1281 3 discriminator 5 view .LVU886
 3154              		.loc 1 1284 3 discriminator 5 view .LVU887
 3155              		.loc 1 1284 3 discriminator 5 view .LVU888
 3156 004e 2B68     		ldr	r3, [r5]
 3157 0050 196A     		ldr	r1, [r3, #32]
 3158 0052 41F21112 		movw	r2, #4369
 3159 0056 1142     		tst	r1, r2
 3160 0058 08D1     		bne	.L266
 3161              		.loc 1 1284 3 discriminator 1 view .LVU889
 3162 005a 196A     		ldr	r1, [r3, #32]
 3163 005c 40F24442 		movw	r2, #1092
 3164 0060 1142     		tst	r1, r2
 3165 0062 03D1     		bne	.L266
 3166              		.loc 1 1284 3 discriminator 3 view .LVU890
 3167 0064 1A68     		ldr	r2, [r3]
 3168 0066 22F00102 		bic	r2, r2, #1
 3169 006a 1A60     		str	r2, [r3]
 3170              	.L266:
 3171              		.loc 1 1284 3 discriminator 5 view .LVU891
 3172              		.loc 1 1287 3 discriminator 5 view .LVU892
 3173 006c B4B9     		cbnz	r4, .L267
 3174              		.loc 1 1287 3 is_stmt 0 discriminator 1 view .LVU893
 3175 006e 0123     		movs	r3, #1
 3176 0070 85F84230 		strb	r3, [r5, #66]
 3177              	.L268:
 3178              		.loc 1 1290 3 is_stmt 1 view .LVU894
 3179              		.loc 1 1291 1 is_stmt 0 view .LVU895
ARM GAS  C:\Users\Ika\AppData\Local\Temp\ccWGWhVY.s 			page 56


 3180 0074 0020     		movs	r0, #0
 3181 0076 38BD     		pop	{r3, r4, r5, pc}
 3182              	.LVL209:
 3183              	.L272:
 3184              		.loc 1 1248 7 is_stmt 1 view .LVU896
 3185 0078 0268     		ldr	r2, [r0]
 3186 007a D368     		ldr	r3, [r2, #12]
 3187 007c 23F00203 		bic	r3, r3, #2
 3188 0080 D360     		str	r3, [r2, #12]
 3189              		.loc 1 1249 7 view .LVU897
 3190 0082 C6E7     		b	.L263
 3191              	.L261:
 3192              		.loc 1 1255 7 view .LVU898
 3193 0084 0268     		ldr	r2, [r0]
 3194 0086 D368     		ldr	r3, [r2, #12]
 3195 0088 23F00403 		bic	r3, r3, #4
 3196 008c D360     		str	r3, [r2, #12]
 3197              		.loc 1 1256 7 view .LVU899
 3198 008e C0E7     		b	.L263
 3199              	.L262:
 3200              		.loc 1 1262 7 view .LVU900
 3201 0090 0268     		ldr	r2, [r0]
 3202 0092 D368     		ldr	r3, [r2, #12]
 3203 0094 23F00803 		bic	r3, r3, #8
 3204 0098 D360     		str	r3, [r2, #12]
 3205              		.loc 1 1263 7 view .LVU901
 3206 009a BAE7     		b	.L263
 3207              	.LVL210:
 3208              	.L267:
 3209              		.loc 1 1287 3 is_stmt 0 discriminator 2 view .LVU902
 3210 009c 042C     		cmp	r4, #4
 3211 009e 05D0     		beq	.L273
 3212              		.loc 1 1287 3 discriminator 4 view .LVU903
 3213 00a0 082C     		cmp	r4, #8
 3214 00a2 07D0     		beq	.L274
 3215              		.loc 1 1287 3 discriminator 7 view .LVU904
 3216 00a4 0123     		movs	r3, #1
 3217 00a6 85F84530 		strb	r3, [r5, #69]
 3218 00aa E3E7     		b	.L268
 3219              	.L273:
 3220              		.loc 1 1287 3 discriminator 3 view .LVU905
 3221 00ac 0123     		movs	r3, #1
 3222 00ae 85F84330 		strb	r3, [r5, #67]
 3223 00b2 DFE7     		b	.L268
 3224              	.L274:
 3225              		.loc 1 1287 3 discriminator 6 view .LVU906
 3226 00b4 0123     		movs	r3, #1
 3227 00b6 85F84430 		strb	r3, [r5, #68]
 3228 00ba DBE7     		b	.L268
 3229              		.cfi_endproc
 3230              	.LFE84:
 3232              		.section	.text.HAL_TIMEx_PWMN_Start_DMA,"ax",%progbits
 3233              		.align	1
 3234              		.global	HAL_TIMEx_PWMN_Start_DMA
 3235              		.syntax unified
 3236              		.thumb
 3237              		.thumb_func
ARM GAS  C:\Users\Ika\AppData\Local\Temp\ccWGWhVY.s 			page 57


 3238              		.fpu softvfp
 3240              	HAL_TIMEx_PWMN_Start_DMA:
 3241              	.LVL211:
 3242              	.LFB85:
 3243              		.loc 1 1307 1 is_stmt 1 view -0
 3244              		.cfi_startproc
 3245              		@ args = 0, pretend = 0, frame = 0
 3246              		@ frame_needed = 0, uses_anonymous_args = 0
 3247              		.loc 1 1307 1 is_stmt 0 view .LVU908
 3248 0000 70B5     		push	{r4, r5, r6, lr}
 3249              	.LCFI26:
 3250              		.cfi_def_cfa_offset 16
 3251              		.cfi_offset 4, -16
 3252              		.cfi_offset 5, -12
 3253              		.cfi_offset 6, -8
 3254              		.cfi_offset 14, -4
 3255 0002 0446     		mov	r4, r0
 3256 0004 1646     		mov	r6, r2
 3257              		.loc 1 1308 3 is_stmt 1 view .LVU909
 3258              		.loc 1 1311 3 view .LVU910
 3259              		.loc 1 1314 3 view .LVU911
 3260              		.loc 1 1314 46 is_stmt 0 view .LVU912
 3261 0006 0D46     		mov	r5, r1
 3262 0008 0029     		cmp	r1, #0
 3263 000a 42D1     		bne	.L276
 3264              		.loc 1 1314 7 discriminator 1 view .LVU913
 3265 000c 90F84200 		ldrb	r0, [r0, #66]	@ zero_extendqisi2
 3266              	.LVL212:
 3267              		.loc 1 1314 7 discriminator 1 view .LVU914
 3268 0010 C0B2     		uxtb	r0, r0
 3269              		.loc 1 1314 46 discriminator 1 view .LVU915
 3270 0012 0228     		cmp	r0, #2
 3271 0014 14BF     		ite	ne
 3272 0016 0020     		movne	r0, #0
 3273 0018 0120     		moveq	r0, #1
 3274              	.L277:
 3275              		.loc 1 1314 6 discriminator 12 view .LVU916
 3276 001a 0028     		cmp	r0, #0
 3277 001c 40F0D480 		bne	.L295
 3278              		.loc 1 1318 8 is_stmt 1 view .LVU917
 3279              		.loc 1 1318 51 is_stmt 0 view .LVU918
 3280 0020 002D     		cmp	r5, #0
 3281 0022 52D1     		bne	.L281
 3282              		.loc 1 1318 12 discriminator 1 view .LVU919
 3283 0024 94F84220 		ldrb	r2, [r4, #66]	@ zero_extendqisi2
 3284              	.LVL213:
 3285              		.loc 1 1318 12 discriminator 1 view .LVU920
 3286 0028 D2B2     		uxtb	r2, r2
 3287              		.loc 1 1318 51 discriminator 1 view .LVU921
 3288 002a 012A     		cmp	r2, #1
 3289 002c 14BF     		ite	ne
 3290 002e 0022     		movne	r2, #0
 3291 0030 0122     		moveq	r2, #1
 3292              	.L282:
 3293              		.loc 1 1318 11 discriminator 12 view .LVU922
 3294 0032 002A     		cmp	r2, #0
 3295 0034 00F0CA80 		beq	.L296
ARM GAS  C:\Users\Ika\AppData\Local\Temp\ccWGWhVY.s 			page 58


 3296              		.loc 1 1320 5 is_stmt 1 view .LVU923
 3297              		.loc 1 1320 8 is_stmt 0 view .LVU924
 3298 0038 002E     		cmp	r6, #0
 3299 003a 62D0     		beq	.L303
 3300              	.L285:
 3301              		.loc 1 1326 7 is_stmt 1 view .LVU925
 3302 003c 002D     		cmp	r5, #0
 3303 003e 64D1     		bne	.L286
 3304              		.loc 1 1326 7 is_stmt 0 discriminator 1 view .LVU926
 3305 0040 0222     		movs	r2, #2
 3306 0042 84F84220 		strb	r2, [r4, #66]
 3307              	.L287:
 3308              		.loc 1 1334 3 is_stmt 1 view .LVU927
 3309 0046 042D     		cmp	r5, #4
 3310 0048 00F08680 		beq	.L290
 3311 004c 082D     		cmp	r5, #8
 3312 004e 00F09A80 		beq	.L291
 3313 0052 002D     		cmp	r5, #0
 3314 0054 69D0     		beq	.L304
 3315              	.LVL214:
 3316              	.L292:
 3317              		.loc 1 1401 3 view .LVU928
 3318 0056 0422     		movs	r2, #4
 3319 0058 2946     		mov	r1, r5
 3320 005a 2068     		ldr	r0, [r4]
 3321 005c FFF7FEFF 		bl	TIM_CCxNChannelCmd
 3322              	.LVL215:
 3323              		.loc 1 1404 3 view .LVU929
 3324 0060 2268     		ldr	r2, [r4]
 3325 0062 536C     		ldr	r3, [r2, #68]
 3326 0064 43F40043 		orr	r3, r3, #32768
 3327 0068 5364     		str	r3, [r2, #68]
 3328              		.loc 1 1407 3 view .LVU930
 3329              		.loc 1 1407 7 is_stmt 0 view .LVU931
 3330 006a 2368     		ldr	r3, [r4]
 3331              		.loc 1 1407 6 view .LVU932
 3332 006c 5C4A     		ldr	r2, .L311
 3333 006e 9342     		cmp	r3, r2
 3334 0070 00F09F80 		beq	.L293
 3335              		.loc 1 1407 7 discriminator 1 view .LVU933
 3336 0074 B3F1804F 		cmp	r3, #1073741824
 3337 0078 00F09B80 		beq	.L293
 3338              		.loc 1 1407 7 discriminator 2 view .LVU934
 3339 007c A2F59432 		sub	r2, r2, #75776
 3340 0080 9342     		cmp	r3, r2
 3341 0082 00F09680 		beq	.L293
 3342              		.loc 1 1417 5 is_stmt 1 view .LVU935
 3343 0086 1A68     		ldr	r2, [r3]
 3344 0088 42F00102 		orr	r2, r2, #1
 3345 008c 1A60     		str	r2, [r3]
 3346              		.loc 1 1421 10 is_stmt 0 view .LVU936
 3347 008e 0020     		movs	r0, #0
 3348 0090 9DE0     		b	.L280
 3349              	.LVL216:
 3350              	.L276:
 3351              		.loc 1 1314 46 discriminator 2 view .LVU937
 3352 0092 0429     		cmp	r1, #4
ARM GAS  C:\Users\Ika\AppData\Local\Temp\ccWGWhVY.s 			page 59


 3353 0094 09D0     		beq	.L305
 3354              		.loc 1 1314 46 discriminator 5 view .LVU938
 3355 0096 0829     		cmp	r1, #8
 3356 0098 0FD0     		beq	.L306
 3357              		.loc 1 1314 7 discriminator 8 view .LVU939
 3358 009a 90F84500 		ldrb	r0, [r0, #69]	@ zero_extendqisi2
 3359              	.LVL217:
 3360              		.loc 1 1314 7 discriminator 8 view .LVU940
 3361 009e C0B2     		uxtb	r0, r0
 3362              		.loc 1 1314 46 discriminator 8 view .LVU941
 3363 00a0 0228     		cmp	r0, #2
 3364 00a2 14BF     		ite	ne
 3365 00a4 0020     		movne	r0, #0
 3366 00a6 0120     		moveq	r0, #1
 3367 00a8 B7E7     		b	.L277
 3368              	.LVL218:
 3369              	.L305:
 3370              		.loc 1 1314 7 discriminator 4 view .LVU942
 3371 00aa 90F84300 		ldrb	r0, [r0, #67]	@ zero_extendqisi2
 3372              	.LVL219:
 3373              		.loc 1 1314 7 discriminator 4 view .LVU943
 3374 00ae C0B2     		uxtb	r0, r0
 3375              		.loc 1 1314 46 discriminator 4 view .LVU944
 3376 00b0 0228     		cmp	r0, #2
 3377 00b2 14BF     		ite	ne
 3378 00b4 0020     		movne	r0, #0
 3379 00b6 0120     		moveq	r0, #1
 3380 00b8 AFE7     		b	.L277
 3381              	.LVL220:
 3382              	.L306:
 3383              		.loc 1 1314 7 discriminator 7 view .LVU945
 3384 00ba 90F84400 		ldrb	r0, [r0, #68]	@ zero_extendqisi2
 3385              	.LVL221:
 3386              		.loc 1 1314 7 discriminator 7 view .LVU946
 3387 00be C0B2     		uxtb	r0, r0
 3388              		.loc 1 1314 46 discriminator 7 view .LVU947
 3389 00c0 0228     		cmp	r0, #2
 3390 00c2 14BF     		ite	ne
 3391 00c4 0020     		movne	r0, #0
 3392 00c6 0120     		moveq	r0, #1
 3393 00c8 A7E7     		b	.L277
 3394              	.L281:
 3395              		.loc 1 1318 51 discriminator 2 view .LVU948
 3396 00ca 042D     		cmp	r5, #4
 3397 00cc 09D0     		beq	.L307
 3398              		.loc 1 1318 51 discriminator 5 view .LVU949
 3399 00ce 082D     		cmp	r5, #8
 3400 00d0 0FD0     		beq	.L308
 3401              		.loc 1 1318 12 discriminator 8 view .LVU950
 3402 00d2 94F84520 		ldrb	r2, [r4, #69]	@ zero_extendqisi2
 3403              	.LVL222:
 3404              		.loc 1 1318 12 discriminator 8 view .LVU951
 3405 00d6 D2B2     		uxtb	r2, r2
 3406              		.loc 1 1318 51 discriminator 8 view .LVU952
 3407 00d8 012A     		cmp	r2, #1
 3408 00da 14BF     		ite	ne
 3409 00dc 0022     		movne	r2, #0
ARM GAS  C:\Users\Ika\AppData\Local\Temp\ccWGWhVY.s 			page 60


 3410 00de 0122     		moveq	r2, #1
 3411 00e0 A7E7     		b	.L282
 3412              	.LVL223:
 3413              	.L307:
 3414              		.loc 1 1318 12 discriminator 4 view .LVU953
 3415 00e2 94F84320 		ldrb	r2, [r4, #67]	@ zero_extendqisi2
 3416              	.LVL224:
 3417              		.loc 1 1318 12 discriminator 4 view .LVU954
 3418 00e6 D2B2     		uxtb	r2, r2
 3419              		.loc 1 1318 51 discriminator 4 view .LVU955
 3420 00e8 012A     		cmp	r2, #1
 3421 00ea 14BF     		ite	ne
 3422 00ec 0022     		movne	r2, #0
 3423 00ee 0122     		moveq	r2, #1
 3424 00f0 9FE7     		b	.L282
 3425              	.LVL225:
 3426              	.L308:
 3427              		.loc 1 1318 12 discriminator 7 view .LVU956
 3428 00f2 94F84420 		ldrb	r2, [r4, #68]	@ zero_extendqisi2
 3429              	.LVL226:
 3430              		.loc 1 1318 12 discriminator 7 view .LVU957
 3431 00f6 D2B2     		uxtb	r2, r2
 3432              		.loc 1 1318 51 discriminator 7 view .LVU958
 3433 00f8 012A     		cmp	r2, #1
 3434 00fa 14BF     		ite	ne
 3435 00fc 0022     		movne	r2, #0
 3436 00fe 0122     		moveq	r2, #1
 3437 0100 97E7     		b	.L282
 3438              	.L303:
 3439              		.loc 1 1320 25 discriminator 1 view .LVU959
 3440 0102 002B     		cmp	r3, #0
 3441 0104 9AD0     		beq	.L285
 3442              		.loc 1 1322 14 view .LVU960
 3443 0106 0120     		movs	r0, #1
 3444 0108 61E0     		b	.L280
 3445              	.L286:
 3446              		.loc 1 1326 7 discriminator 2 view .LVU961
 3447 010a 042D     		cmp	r5, #4
 3448 010c 05D0     		beq	.L309
 3449              		.loc 1 1326 7 discriminator 4 view .LVU962
 3450 010e 082D     		cmp	r5, #8
 3451 0110 07D0     		beq	.L310
 3452              		.loc 1 1326 7 discriminator 7 view .LVU963
 3453 0112 0222     		movs	r2, #2
 3454 0114 84F84520 		strb	r2, [r4, #69]
 3455 0118 95E7     		b	.L287
 3456              	.L309:
 3457              		.loc 1 1326 7 discriminator 3 view .LVU964
 3458 011a 0222     		movs	r2, #2
 3459 011c 84F84320 		strb	r2, [r4, #67]
 3460 0120 91E7     		b	.L287
 3461              	.L310:
 3462              		.loc 1 1326 7 discriminator 6 view .LVU965
 3463 0122 0222     		movs	r2, #2
 3464 0124 84F84420 		strb	r2, [r4, #68]
 3465 0128 8DE7     		b	.L287
 3466              	.L304:
ARM GAS  C:\Users\Ika\AppData\Local\Temp\ccWGWhVY.s 			page 61


 3467              		.loc 1 1339 7 is_stmt 1 view .LVU966
 3468              		.loc 1 1339 17 is_stmt 0 view .LVU967
 3469 012a 626A     		ldr	r2, [r4, #36]
 3470              		.loc 1 1339 52 view .LVU968
 3471 012c 2D49     		ldr	r1, .L311+4
 3472              	.LVL227:
 3473              		.loc 1 1339 52 view .LVU969
 3474 012e 9162     		str	r1, [r2, #40]
 3475              		.loc 1 1340 7 is_stmt 1 view .LVU970
 3476              		.loc 1 1340 17 is_stmt 0 view .LVU971
 3477 0130 626A     		ldr	r2, [r4, #36]
 3478              		.loc 1 1340 56 view .LVU972
 3479 0132 2D49     		ldr	r1, .L311+8
 3480 0134 D162     		str	r1, [r2, #44]
 3481              		.loc 1 1343 7 is_stmt 1 view .LVU973
 3482              		.loc 1 1343 17 is_stmt 0 view .LVU974
 3483 0136 626A     		ldr	r2, [r4, #36]
 3484              		.loc 1 1343 53 view .LVU975
 3485 0138 2C49     		ldr	r1, .L311+12
 3486 013a 1163     		str	r1, [r2, #48]
 3487              		.loc 1 1346 7 is_stmt 1 view .LVU976
 3488              		.loc 1 1346 88 is_stmt 0 view .LVU977
 3489 013c 2268     		ldr	r2, [r4]
 3490              		.loc 1 1346 11 view .LVU978
 3491 013e 3432     		adds	r2, r2, #52
 3492 0140 3146     		mov	r1, r6
 3493 0142 606A     		ldr	r0, [r4, #36]
 3494 0144 FFF7FEFF 		bl	HAL_DMA_Start_IT
 3495              	.LVL228:
 3496              		.loc 1 1346 10 view .LVU979
 3497 0148 0028     		cmp	r0, #0
 3498 014a 41D1     		bne	.L298
 3499              		.loc 1 1352 7 is_stmt 1 view .LVU980
 3500 014c 2268     		ldr	r2, [r4]
 3501 014e D368     		ldr	r3, [r2, #12]
 3502 0150 43F40073 		orr	r3, r3, #512
 3503 0154 D360     		str	r3, [r2, #12]
 3504              		.loc 1 1353 7 view .LVU981
 3505 0156 7EE7     		b	.L292
 3506              	.LVL229:
 3507              	.L290:
 3508              		.loc 1 1359 7 view .LVU982
 3509              		.loc 1 1359 17 is_stmt 0 view .LVU983
 3510 0158 A26A     		ldr	r2, [r4, #40]
 3511              		.loc 1 1359 52 view .LVU984
 3512 015a 2249     		ldr	r1, .L311+4
 3513              	.LVL230:
 3514              		.loc 1 1359 52 view .LVU985
 3515 015c 9162     		str	r1, [r2, #40]
 3516              		.loc 1 1360 7 is_stmt 1 view .LVU986
 3517              		.loc 1 1360 17 is_stmt 0 view .LVU987
 3518 015e A26A     		ldr	r2, [r4, #40]
 3519              		.loc 1 1360 56 view .LVU988
 3520 0160 2149     		ldr	r1, .L311+8
 3521 0162 D162     		str	r1, [r2, #44]
 3522              		.loc 1 1363 7 is_stmt 1 view .LVU989
 3523              		.loc 1 1363 17 is_stmt 0 view .LVU990
ARM GAS  C:\Users\Ika\AppData\Local\Temp\ccWGWhVY.s 			page 62


 3524 0164 A26A     		ldr	r2, [r4, #40]
 3525              		.loc 1 1363 53 view .LVU991
 3526 0166 2149     		ldr	r1, .L311+12
 3527 0168 1163     		str	r1, [r2, #48]
 3528              		.loc 1 1366 7 is_stmt 1 view .LVU992
 3529              		.loc 1 1366 88 is_stmt 0 view .LVU993
 3530 016a 2268     		ldr	r2, [r4]
 3531              		.loc 1 1366 11 view .LVU994
 3532 016c 3832     		adds	r2, r2, #56
 3533 016e 3146     		mov	r1, r6
 3534 0170 A06A     		ldr	r0, [r4, #40]
 3535 0172 FFF7FEFF 		bl	HAL_DMA_Start_IT
 3536              	.LVL231:
 3537              		.loc 1 1366 10 view .LVU995
 3538 0176 0028     		cmp	r0, #0
 3539 0178 2CD1     		bne	.L299
 3540              		.loc 1 1372 7 is_stmt 1 view .LVU996
 3541 017a 2268     		ldr	r2, [r4]
 3542 017c D368     		ldr	r3, [r2, #12]
 3543 017e 43F48063 		orr	r3, r3, #1024
 3544 0182 D360     		str	r3, [r2, #12]
 3545              		.loc 1 1373 7 view .LVU997
 3546 0184 67E7     		b	.L292
 3547              	.LVL232:
 3548              	.L291:
 3549              		.loc 1 1379 7 view .LVU998
 3550              		.loc 1 1379 17 is_stmt 0 view .LVU999
 3551 0186 E26A     		ldr	r2, [r4, #44]
 3552              		.loc 1 1379 52 view .LVU1000
 3553 0188 1649     		ldr	r1, .L311+4
 3554              	.LVL233:
 3555              		.loc 1 1379 52 view .LVU1001
 3556 018a 9162     		str	r1, [r2, #40]
 3557              		.loc 1 1380 7 is_stmt 1 view .LVU1002
 3558              		.loc 1 1380 17 is_stmt 0 view .LVU1003
 3559 018c E26A     		ldr	r2, [r4, #44]
 3560              		.loc 1 1380 56 view .LVU1004
 3561 018e 1649     		ldr	r1, .L311+8
 3562 0190 D162     		str	r1, [r2, #44]
 3563              		.loc 1 1383 7 is_stmt 1 view .LVU1005
 3564              		.loc 1 1383 17 is_stmt 0 view .LVU1006
 3565 0192 E26A     		ldr	r2, [r4, #44]
 3566              		.loc 1 1383 53 view .LVU1007
 3567 0194 1549     		ldr	r1, .L311+12
 3568 0196 1163     		str	r1, [r2, #48]
 3569              		.loc 1 1386 7 is_stmt 1 view .LVU1008
 3570              		.loc 1 1386 88 is_stmt 0 view .LVU1009
 3571 0198 2268     		ldr	r2, [r4]
 3572              		.loc 1 1386 11 view .LVU1010
 3573 019a 3C32     		adds	r2, r2, #60
 3574 019c 3146     		mov	r1, r6
 3575 019e E06A     		ldr	r0, [r4, #44]
 3576 01a0 FFF7FEFF 		bl	HAL_DMA_Start_IT
 3577              	.LVL234:
 3578              		.loc 1 1386 10 view .LVU1011
 3579 01a4 C0B9     		cbnz	r0, .L300
 3580              		.loc 1 1392 7 is_stmt 1 view .LVU1012
ARM GAS  C:\Users\Ika\AppData\Local\Temp\ccWGWhVY.s 			page 63


 3581 01a6 2268     		ldr	r2, [r4]
 3582 01a8 D368     		ldr	r3, [r2, #12]
 3583 01aa 43F40063 		orr	r3, r3, #2048
 3584 01ae D360     		str	r3, [r2, #12]
 3585              		.loc 1 1393 7 view .LVU1013
 3586 01b0 51E7     		b	.L292
 3587              	.L293:
 3588              		.loc 1 1409 5 view .LVU1014
 3589              		.loc 1 1409 29 is_stmt 0 view .LVU1015
 3590 01b2 9A68     		ldr	r2, [r3, #8]
 3591              		.loc 1 1409 13 view .LVU1016
 3592 01b4 02F00702 		and	r2, r2, #7
 3593              	.LVL235:
 3594              		.loc 1 1410 5 is_stmt 1 view .LVU1017
 3595              		.loc 1 1410 8 is_stmt 0 view .LVU1018
 3596 01b8 062A     		cmp	r2, #6
 3597 01ba 0FD0     		beq	.L301
 3598              		.loc 1 1412 7 is_stmt 1 view .LVU1019
 3599 01bc 1A68     		ldr	r2, [r3]
 3600              	.LVL236:
 3601              		.loc 1 1412 7 is_stmt 0 view .LVU1020
 3602 01be 42F00102 		orr	r2, r2, #1
 3603 01c2 1A60     		str	r2, [r3]
 3604              		.loc 1 1421 10 view .LVU1021
 3605 01c4 0020     		movs	r0, #0
 3606 01c6 02E0     		b	.L280
 3607              	.LVL237:
 3608              	.L295:
 3609              		.loc 1 1316 12 view .LVU1022
 3610 01c8 0220     		movs	r0, #2
 3611 01ca 00E0     		b	.L280
 3612              	.LVL238:
 3613              	.L296:
 3614              		.loc 1 1331 12 view .LVU1023
 3615 01cc 0120     		movs	r0, #1
 3616              	.LVL239:
 3617              	.L280:
 3618              		.loc 1 1422 1 view .LVU1024
 3619 01ce 70BD     		pop	{r4, r5, r6, pc}
 3620              	.LVL240:
 3621              	.L298:
 3622              		.loc 1 1349 16 view .LVU1025
 3623 01d0 0120     		movs	r0, #1
 3624 01d2 FCE7     		b	.L280
 3625              	.L299:
 3626              		.loc 1 1369 16 view .LVU1026
 3627 01d4 0120     		movs	r0, #1
 3628 01d6 FAE7     		b	.L280
 3629              	.L300:
 3630              		.loc 1 1389 16 view .LVU1027
 3631 01d8 0120     		movs	r0, #1
 3632 01da F8E7     		b	.L280
 3633              	.LVL241:
 3634              	.L301:
 3635              		.loc 1 1421 10 view .LVU1028
 3636 01dc 0020     		movs	r0, #0
 3637 01de F6E7     		b	.L280
ARM GAS  C:\Users\Ika\AppData\Local\Temp\ccWGWhVY.s 			page 64


 3638              	.L312:
 3639              		.align	2
 3640              	.L311:
 3641 01e0 002C0140 		.word	1073818624
 3642 01e4 00000000 		.word	TIM_DMADelayPulseNCplt
 3643 01e8 00000000 		.word	TIM_DMADelayPulseHalfCplt
 3644 01ec 00000000 		.word	TIM_DMAErrorCCxN
 3645              		.cfi_endproc
 3646              	.LFE85:
 3648              		.section	.text.HAL_TIMEx_PWMN_Stop_DMA,"ax",%progbits
 3649              		.align	1
 3650              		.global	HAL_TIMEx_PWMN_Stop_DMA
 3651              		.syntax unified
 3652              		.thumb
 3653              		.thumb_func
 3654              		.fpu softvfp
 3656              	HAL_TIMEx_PWMN_Stop_DMA:
 3657              	.LVL242:
 3658              	.LFB86:
 3659              		.loc 1 1436 1 is_stmt 1 view -0
 3660              		.cfi_startproc
 3661              		@ args = 0, pretend = 0, frame = 0
 3662              		@ frame_needed = 0, uses_anonymous_args = 0
 3663              		.loc 1 1436 1 is_stmt 0 view .LVU1030
 3664 0000 38B5     		push	{r3, r4, r5, lr}
 3665              	.LCFI27:
 3666              		.cfi_def_cfa_offset 16
 3667              		.cfi_offset 3, -16
 3668              		.cfi_offset 4, -12
 3669              		.cfi_offset 5, -8
 3670              		.cfi_offset 14, -4
 3671 0002 0546     		mov	r5, r0
 3672 0004 0C46     		mov	r4, r1
 3673              		.loc 1 1438 3 is_stmt 1 view .LVU1031
 3674              		.loc 1 1440 3 view .LVU1032
 3675 0006 0429     		cmp	r1, #4
 3676 0008 34D0     		beq	.L314
 3677 000a 0829     		cmp	r1, #8
 3678 000c 3BD0     		beq	.L315
 3679 000e 41B3     		cbz	r1, .L324
 3680              	.LVL243:
 3681              	.L316:
 3682              		.loc 1 1471 3 view .LVU1033
 3683 0010 0022     		movs	r2, #0
 3684 0012 2146     		mov	r1, r4
 3685 0014 2868     		ldr	r0, [r5]
 3686 0016 FFF7FEFF 		bl	TIM_CCxNChannelCmd
 3687              	.LVL244:
 3688              		.loc 1 1474 3 view .LVU1034
 3689              		.loc 1 1474 3 view .LVU1035
 3690 001a 2B68     		ldr	r3, [r5]
 3691 001c 196A     		ldr	r1, [r3, #32]
 3692 001e 41F21112 		movw	r2, #4369
 3693 0022 1142     		tst	r1, r2
 3694 0024 08D1     		bne	.L317
 3695              		.loc 1 1474 3 discriminator 1 view .LVU1036
 3696 0026 196A     		ldr	r1, [r3, #32]
ARM GAS  C:\Users\Ika\AppData\Local\Temp\ccWGWhVY.s 			page 65


 3697 0028 40F24442 		movw	r2, #1092
 3698 002c 1142     		tst	r1, r2
 3699 002e 03D1     		bne	.L317
 3700              		.loc 1 1474 3 discriminator 3 view .LVU1037
 3701 0030 5A6C     		ldr	r2, [r3, #68]
 3702 0032 22F40042 		bic	r2, r2, #32768
 3703 0036 5A64     		str	r2, [r3, #68]
 3704              	.L317:
 3705              		.loc 1 1474 3 discriminator 5 view .LVU1038
 3706              		.loc 1 1477 3 discriminator 5 view .LVU1039
 3707              		.loc 1 1477 3 discriminator 5 view .LVU1040
 3708 0038 2B68     		ldr	r3, [r5]
 3709 003a 196A     		ldr	r1, [r3, #32]
 3710 003c 41F21112 		movw	r2, #4369
 3711 0040 1142     		tst	r1, r2
 3712 0042 08D1     		bne	.L318
 3713              		.loc 1 1477 3 discriminator 1 view .LVU1041
 3714 0044 196A     		ldr	r1, [r3, #32]
 3715 0046 40F24442 		movw	r2, #1092
 3716 004a 1142     		tst	r1, r2
 3717 004c 03D1     		bne	.L318
 3718              		.loc 1 1477 3 discriminator 3 view .LVU1042
 3719 004e 1A68     		ldr	r2, [r3]
 3720 0050 22F00102 		bic	r2, r2, #1
 3721 0054 1A60     		str	r2, [r3]
 3722              	.L318:
 3723              		.loc 1 1477 3 discriminator 5 view .LVU1043
 3724              		.loc 1 1480 3 discriminator 5 view .LVU1044
 3725 0056 FCB9     		cbnz	r4, .L319
 3726              		.loc 1 1480 3 is_stmt 0 discriminator 1 view .LVU1045
 3727 0058 0123     		movs	r3, #1
 3728 005a 85F84230 		strb	r3, [r5, #66]
 3729              	.L320:
 3730              		.loc 1 1483 3 is_stmt 1 view .LVU1046
 3731              		.loc 1 1484 1 is_stmt 0 view .LVU1047
 3732 005e 0020     		movs	r0, #0
 3733 0060 38BD     		pop	{r3, r4, r5, pc}
 3734              	.LVL245:
 3735              	.L324:
 3736              		.loc 1 1445 7 is_stmt 1 view .LVU1048
 3737 0062 0268     		ldr	r2, [r0]
 3738 0064 D368     		ldr	r3, [r2, #12]
 3739 0066 23F40073 		bic	r3, r3, #512
 3740 006a D360     		str	r3, [r2, #12]
 3741              		.loc 1 1446 7 view .LVU1049
 3742              		.loc 1 1446 13 is_stmt 0 view .LVU1050
 3743 006c 406A     		ldr	r0, [r0, #36]
 3744              	.LVL246:
 3745              		.loc 1 1446 13 view .LVU1051
 3746 006e FFF7FEFF 		bl	HAL_DMA_Abort_IT
 3747              	.LVL247:
 3748              		.loc 1 1447 7 is_stmt 1 view .LVU1052
 3749 0072 CDE7     		b	.L316
 3750              	.LVL248:
 3751              	.L314:
 3752              		.loc 1 1453 7 view .LVU1053
 3753 0074 0268     		ldr	r2, [r0]
ARM GAS  C:\Users\Ika\AppData\Local\Temp\ccWGWhVY.s 			page 66


 3754 0076 D368     		ldr	r3, [r2, #12]
 3755 0078 23F48063 		bic	r3, r3, #1024
 3756 007c D360     		str	r3, [r2, #12]
 3757              		.loc 1 1454 7 view .LVU1054
 3758              		.loc 1 1454 13 is_stmt 0 view .LVU1055
 3759 007e 806A     		ldr	r0, [r0, #40]
 3760              	.LVL249:
 3761              		.loc 1 1454 13 view .LVU1056
 3762 0080 FFF7FEFF 		bl	HAL_DMA_Abort_IT
 3763              	.LVL250:
 3764              		.loc 1 1455 7 is_stmt 1 view .LVU1057
 3765 0084 C4E7     		b	.L316
 3766              	.LVL251:
 3767              	.L315:
 3768              		.loc 1 1461 7 view .LVU1058
 3769 0086 0268     		ldr	r2, [r0]
 3770 0088 D368     		ldr	r3, [r2, #12]
 3771 008a 23F40063 		bic	r3, r3, #2048
 3772 008e D360     		str	r3, [r2, #12]
 3773              		.loc 1 1462 7 view .LVU1059
 3774              		.loc 1 1462 13 is_stmt 0 view .LVU1060
 3775 0090 C06A     		ldr	r0, [r0, #44]
 3776              	.LVL252:
 3777              		.loc 1 1462 13 view .LVU1061
 3778 0092 FFF7FEFF 		bl	HAL_DMA_Abort_IT
 3779              	.LVL253:
 3780              		.loc 1 1463 7 is_stmt 1 view .LVU1062
 3781 0096 BBE7     		b	.L316
 3782              	.L319:
 3783              		.loc 1 1480 3 is_stmt 0 discriminator 2 view .LVU1063
 3784 0098 042C     		cmp	r4, #4
 3785 009a 05D0     		beq	.L325
 3786              		.loc 1 1480 3 discriminator 4 view .LVU1064
 3787 009c 082C     		cmp	r4, #8
 3788 009e 07D0     		beq	.L326
 3789              		.loc 1 1480 3 discriminator 7 view .LVU1065
 3790 00a0 0123     		movs	r3, #1
 3791 00a2 85F84530 		strb	r3, [r5, #69]
 3792 00a6 DAE7     		b	.L320
 3793              	.L325:
 3794              		.loc 1 1480 3 discriminator 3 view .LVU1066
 3795 00a8 0123     		movs	r3, #1
 3796 00aa 85F84330 		strb	r3, [r5, #67]
 3797 00ae D6E7     		b	.L320
 3798              	.L326:
 3799              		.loc 1 1480 3 discriminator 6 view .LVU1067
 3800 00b0 0123     		movs	r3, #1
 3801 00b2 85F84430 		strb	r3, [r5, #68]
 3802 00b6 D2E7     		b	.L320
 3803              		.cfi_endproc
 3804              	.LFE86:
 3806              		.section	.text.HAL_TIMEx_OnePulseN_Start,"ax",%progbits
 3807              		.align	1
 3808              		.global	HAL_TIMEx_OnePulseN_Start
 3809              		.syntax unified
 3810              		.thumb
 3811              		.thumb_func
ARM GAS  C:\Users\Ika\AppData\Local\Temp\ccWGWhVY.s 			page 67


 3812              		.fpu softvfp
 3814              	HAL_TIMEx_OnePulseN_Start:
 3815              	.LVL254:
 3816              	.LFB87:
 3817              		.loc 1 1519 1 is_stmt 1 view -0
 3818              		.cfi_startproc
 3819              		@ args = 0, pretend = 0, frame = 0
 3820              		@ frame_needed = 0, uses_anonymous_args = 0
 3821              		.loc 1 1519 1 is_stmt 0 view .LVU1069
 3822 0000 38B5     		push	{r3, r4, r5, lr}
 3823              	.LCFI28:
 3824              		.cfi_def_cfa_offset 16
 3825              		.cfi_offset 3, -16
 3826              		.cfi_offset 4, -12
 3827              		.cfi_offset 5, -8
 3828              		.cfi_offset 14, -4
 3829 0002 0446     		mov	r4, r0
 3830              		.loc 1 1520 3 is_stmt 1 view .LVU1070
 3831              		.loc 1 1520 77 is_stmt 0 view .LVU1071
 3832 0004 0B46     		mov	r3, r1
 3833 0006 29B3     		cbz	r1, .L328
 3834              	.LVL255:
 3835              		.loc 1 1521 3 is_stmt 1 view .LVU1072
 3836              		.loc 1 1521 53 is_stmt 0 view .LVU1073
 3837 0008 90F83E20 		ldrb	r2, [r0, #62]	@ zero_extendqisi2
 3838 000c D2B2     		uxtb	r2, r2
 3839              		.loc 1 1520 77 view .LVU1074
 3840 000e 0025     		movs	r5, #0
 3841              	.LVL256:
 3842              	.L329:
 3843              		.loc 1 1522 3 is_stmt 1 discriminator 12 view .LVU1075
 3844              		.loc 1 1522 54 is_stmt 0 discriminator 12 view .LVU1076
 3845 0010 2BBB     		cbnz	r3, .L330
 3846              		.loc 1 1522 54 discriminator 1 view .LVU1077
 3847 0012 94F84200 		ldrb	r0, [r4, #66]	@ zero_extendqisi2
 3848              	.LVL257:
 3849              		.loc 1 1522 54 discriminator 1 view .LVU1078
 3850 0016 C0B2     		uxtb	r0, r0
 3851              	.L331:
 3852              	.LVL258:
 3853              		.loc 1 1525 3 is_stmt 1 discriminator 12 view .LVU1079
 3854              		.loc 1 1528 3 discriminator 12 view .LVU1080
 3855              		.loc 1 1528 6 is_stmt 0 discriminator 12 view .LVU1081
 3856 0018 0128     		cmp	r0, #1
 3857 001a 49D1     		bne	.L342
 3858              		.loc 1 1529 7 view .LVU1082
 3859 001c 012A     		cmp	r2, #1
 3860 001e 48D1     		bne	.L334
 3861              		.loc 1 1535 3 is_stmt 1 view .LVU1083
 3862 0020 6BBB     		cbnz	r3, .L335
 3863              		.loc 1 1535 3 is_stmt 0 discriminator 1 view .LVU1084
 3864 0022 0222     		movs	r2, #2
 3865              	.LVL259:
 3866              		.loc 1 1535 3 discriminator 1 view .LVU1085
 3867 0024 84F84220 		strb	r2, [r4, #66]
 3868              	.L336:
 3869              		.loc 1 1536 3 is_stmt 1 view .LVU1086
ARM GAS  C:\Users\Ika\AppData\Local\Temp\ccWGWhVY.s 			page 68


 3870 0028 002D     		cmp	r5, #0
 3871 002a 38D1     		bne	.L339
 3872              		.loc 1 1536 3 is_stmt 0 discriminator 1 view .LVU1087
 3873 002c 0222     		movs	r2, #2
 3874 002e 84F83E20 		strb	r2, [r4, #62]
 3875              	.L340:
 3876              		.loc 1 1539 3 is_stmt 1 view .LVU1088
 3877 0032 0422     		movs	r2, #4
 3878 0034 1946     		mov	r1, r3
 3879              	.LVL260:
 3880              		.loc 1 1539 3 is_stmt 0 view .LVU1089
 3881 0036 2068     		ldr	r0, [r4]
 3882              	.LVL261:
 3883              		.loc 1 1539 3 view .LVU1090
 3884 0038 FFF7FEFF 		bl	TIM_CCxNChannelCmd
 3885              	.LVL262:
 3886              		.loc 1 1540 3 is_stmt 1 view .LVU1091
 3887 003c 0122     		movs	r2, #1
 3888 003e 2946     		mov	r1, r5
 3889 0040 2068     		ldr	r0, [r4]
 3890 0042 FFF7FEFF 		bl	TIM_CCxChannelCmd
 3891              	.LVL263:
 3892              		.loc 1 1543 3 view .LVU1092
 3893 0046 2268     		ldr	r2, [r4]
 3894 0048 536C     		ldr	r3, [r2, #68]
 3895 004a 43F40043 		orr	r3, r3, #32768
 3896 004e 5364     		str	r3, [r2, #68]
 3897              		.loc 1 1546 3 view .LVU1093
 3898              		.loc 1 1546 10 is_stmt 0 view .LVU1094
 3899 0050 0020     		movs	r0, #0
 3900 0052 2EE0     		b	.L334
 3901              	.LVL264:
 3902              	.L328:
 3903              		.loc 1 1521 3 is_stmt 1 discriminator 4 view .LVU1095
 3904              		.loc 1 1521 53 is_stmt 0 discriminator 4 view .LVU1096
 3905 0054 90F83F20 		ldrb	r2, [r0, #63]	@ zero_extendqisi2
 3906 0058 D2B2     		uxtb	r2, r2
 3907              		.loc 1 1520 77 discriminator 4 view .LVU1097
 3908 005a 0425     		movs	r5, #4
 3909 005c D8E7     		b	.L329
 3910              	.LVL265:
 3911              	.L330:
 3912              		.loc 1 1522 54 discriminator 2 view .LVU1098
 3913 005e 042B     		cmp	r3, #4
 3914 0060 05D0     		beq	.L344
 3915              		.loc 1 1522 54 discriminator 5 view .LVU1099
 3916 0062 082B     		cmp	r3, #8
 3917 0064 07D0     		beq	.L345
 3918              		.loc 1 1522 54 discriminator 8 view .LVU1100
 3919 0066 94F84500 		ldrb	r0, [r4, #69]	@ zero_extendqisi2
 3920              	.LVL266:
 3921              		.loc 1 1522 54 discriminator 8 view .LVU1101
 3922 006a C0B2     		uxtb	r0, r0
 3923 006c D4E7     		b	.L331
 3924              	.LVL267:
 3925              	.L344:
 3926              		.loc 1 1522 54 discriminator 4 view .LVU1102
ARM GAS  C:\Users\Ika\AppData\Local\Temp\ccWGWhVY.s 			page 69


 3927 006e 94F84300 		ldrb	r0, [r4, #67]	@ zero_extendqisi2
 3928              	.LVL268:
 3929              		.loc 1 1522 54 discriminator 4 view .LVU1103
 3930 0072 C0B2     		uxtb	r0, r0
 3931 0074 D0E7     		b	.L331
 3932              	.LVL269:
 3933              	.L345:
 3934              		.loc 1 1522 54 discriminator 7 view .LVU1104
 3935 0076 94F84400 		ldrb	r0, [r4, #68]	@ zero_extendqisi2
 3936              	.LVL270:
 3937              		.loc 1 1522 54 discriminator 7 view .LVU1105
 3938 007a C0B2     		uxtb	r0, r0
 3939 007c CCE7     		b	.L331
 3940              	.LVL271:
 3941              	.L335:
 3942              		.loc 1 1535 3 discriminator 2 view .LVU1106
 3943 007e 042B     		cmp	r3, #4
 3944 0080 05D0     		beq	.L346
 3945              		.loc 1 1535 3 discriminator 4 view .LVU1107
 3946 0082 082B     		cmp	r3, #8
 3947 0084 07D0     		beq	.L347
 3948              		.loc 1 1535 3 discriminator 7 view .LVU1108
 3949 0086 0222     		movs	r2, #2
 3950              	.LVL272:
 3951              		.loc 1 1535 3 discriminator 7 view .LVU1109
 3952 0088 84F84520 		strb	r2, [r4, #69]
 3953 008c CCE7     		b	.L336
 3954              	.LVL273:
 3955              	.L346:
 3956              		.loc 1 1535 3 discriminator 3 view .LVU1110
 3957 008e 0222     		movs	r2, #2
 3958              	.LVL274:
 3959              		.loc 1 1535 3 discriminator 3 view .LVU1111
 3960 0090 84F84320 		strb	r2, [r4, #67]
 3961 0094 C8E7     		b	.L336
 3962              	.LVL275:
 3963              	.L347:
 3964              		.loc 1 1535 3 discriminator 6 view .LVU1112
 3965 0096 0222     		movs	r2, #2
 3966              	.LVL276:
 3967              		.loc 1 1535 3 discriminator 6 view .LVU1113
 3968 0098 84F84420 		strb	r2, [r4, #68]
 3969 009c C4E7     		b	.L336
 3970              	.L339:
 3971              		.loc 1 1536 3 discriminator 2 view .LVU1114
 3972 009e 1DB9     		cbnz	r5, .L348
 3973              		.loc 1 1536 3 discriminator 7 view .LVU1115
 3974 00a0 0222     		movs	r2, #2
 3975 00a2 84F84120 		strb	r2, [r4, #65]
 3976 00a6 C4E7     		b	.L340
 3977              	.L348:
 3978              		.loc 1 1536 3 discriminator 3 view .LVU1116
 3979 00a8 0222     		movs	r2, #2
 3980 00aa 84F83F20 		strb	r2, [r4, #63]
 3981 00ae C0E7     		b	.L340
 3982              	.LVL277:
 3983              	.L342:
ARM GAS  C:\Users\Ika\AppData\Local\Temp\ccWGWhVY.s 			page 70


 3984              		.loc 1 1531 12 view .LVU1117
 3985 00b0 0120     		movs	r0, #1
 3986              	.LVL278:
 3987              	.L334:
 3988              		.loc 1 1547 1 view .LVU1118
 3989 00b2 38BD     		pop	{r3, r4, r5, pc}
 3990              		.loc 1 1547 1 view .LVU1119
 3991              		.cfi_endproc
 3992              	.LFE87:
 3994              		.section	.text.HAL_TIMEx_OnePulseN_Stop,"ax",%progbits
 3995              		.align	1
 3996              		.global	HAL_TIMEx_OnePulseN_Stop
 3997              		.syntax unified
 3998              		.thumb
 3999              		.thumb_func
 4000              		.fpu softvfp
 4002              	HAL_TIMEx_OnePulseN_Stop:
 4003              	.LVL279:
 4004              	.LFB88:
 4005              		.loc 1 1560 1 is_stmt 1 view -0
 4006              		.cfi_startproc
 4007              		@ args = 0, pretend = 0, frame = 0
 4008              		@ frame_needed = 0, uses_anonymous_args = 0
 4009              		.loc 1 1560 1 is_stmt 0 view .LVU1121
 4010 0000 70B5     		push	{r4, r5, r6, lr}
 4011              	.LCFI29:
 4012              		.cfi_def_cfa_offset 16
 4013              		.cfi_offset 4, -16
 4014              		.cfi_offset 5, -12
 4015              		.cfi_offset 6, -8
 4016              		.cfi_offset 14, -4
 4017 0002 0446     		mov	r4, r0
 4018              		.loc 1 1561 3 is_stmt 1 view .LVU1122
 4019              		.loc 1 1561 77 is_stmt 0 view .LVU1123
 4020 0004 0D46     		mov	r5, r1
 4021 0006 0029     		cmp	r1, #0
 4022 0008 32D1     		bne	.L360
 4023 000a 0426     		movs	r6, #4
 4024              	.L350:
 4025              	.LVL280:
 4026              		.loc 1 1564 3 is_stmt 1 discriminator 4 view .LVU1124
 4027              		.loc 1 1567 3 discriminator 4 view .LVU1125
 4028 000c 0022     		movs	r2, #0
 4029 000e 2946     		mov	r1, r5
 4030              	.LVL281:
 4031              		.loc 1 1567 3 is_stmt 0 discriminator 4 view .LVU1126
 4032 0010 2068     		ldr	r0, [r4]
 4033              	.LVL282:
 4034              		.loc 1 1567 3 discriminator 4 view .LVU1127
 4035 0012 FFF7FEFF 		bl	TIM_CCxNChannelCmd
 4036              	.LVL283:
 4037              		.loc 1 1568 3 is_stmt 1 discriminator 4 view .LVU1128
 4038 0016 0022     		movs	r2, #0
 4039 0018 3146     		mov	r1, r6
 4040 001a 2068     		ldr	r0, [r4]
 4041 001c FFF7FEFF 		bl	TIM_CCxChannelCmd
 4042              	.LVL284:
ARM GAS  C:\Users\Ika\AppData\Local\Temp\ccWGWhVY.s 			page 71


 4043              		.loc 1 1571 3 discriminator 4 view .LVU1129
 4044              		.loc 1 1571 3 discriminator 4 view .LVU1130
 4045 0020 2368     		ldr	r3, [r4]
 4046 0022 196A     		ldr	r1, [r3, #32]
 4047 0024 41F21112 		movw	r2, #4369
 4048 0028 1142     		tst	r1, r2
 4049 002a 08D1     		bne	.L351
 4050              		.loc 1 1571 3 discriminator 1 view .LVU1131
 4051 002c 196A     		ldr	r1, [r3, #32]
 4052 002e 40F24442 		movw	r2, #1092
 4053 0032 1142     		tst	r1, r2
 4054 0034 03D1     		bne	.L351
 4055              		.loc 1 1571 3 discriminator 3 view .LVU1132
 4056 0036 5A6C     		ldr	r2, [r3, #68]
 4057 0038 22F40042 		bic	r2, r2, #32768
 4058 003c 5A64     		str	r2, [r3, #68]
 4059              	.L351:
 4060              		.loc 1 1571 3 discriminator 5 view .LVU1133
 4061              		.loc 1 1574 3 discriminator 5 view .LVU1134
 4062              		.loc 1 1574 3 discriminator 5 view .LVU1135
 4063 003e 2368     		ldr	r3, [r4]
 4064 0040 196A     		ldr	r1, [r3, #32]
 4065 0042 41F21112 		movw	r2, #4369
 4066 0046 1142     		tst	r1, r2
 4067 0048 08D1     		bne	.L352
 4068              		.loc 1 1574 3 discriminator 1 view .LVU1136
 4069 004a 196A     		ldr	r1, [r3, #32]
 4070 004c 40F24442 		movw	r2, #1092
 4071 0050 1142     		tst	r1, r2
 4072 0052 03D1     		bne	.L352
 4073              		.loc 1 1574 3 discriminator 3 view .LVU1137
 4074 0054 1A68     		ldr	r2, [r3]
 4075 0056 22F00102 		bic	r2, r2, #1
 4076 005a 1A60     		str	r2, [r3]
 4077              	.L352:
 4078              		.loc 1 1574 3 discriminator 5 view .LVU1138
 4079              		.loc 1 1577 3 discriminator 5 view .LVU1139
 4080 005c 55B9     		cbnz	r5, .L353
 4081              		.loc 1 1577 3 is_stmt 0 discriminator 1 view .LVU1140
 4082 005e 0123     		movs	r3, #1
 4083 0060 84F84230 		strb	r3, [r4, #66]
 4084              	.L354:
 4085              		.loc 1 1578 3 is_stmt 1 view .LVU1141
 4086 0064 B6B9     		cbnz	r6, .L357
 4087              		.loc 1 1578 3 is_stmt 0 discriminator 1 view .LVU1142
 4088 0066 0123     		movs	r3, #1
 4089 0068 84F83E30 		strb	r3, [r4, #62]
 4090              	.L358:
 4091              		.loc 1 1581 3 is_stmt 1 view .LVU1143
 4092              		.loc 1 1582 1 is_stmt 0 view .LVU1144
 4093 006c 0020     		movs	r0, #0
 4094 006e 70BD     		pop	{r4, r5, r6, pc}
 4095              	.LVL285:
 4096              	.L360:
 4097              		.loc 1 1561 77 view .LVU1145
 4098 0070 0026     		movs	r6, #0
 4099 0072 CBE7     		b	.L350
ARM GAS  C:\Users\Ika\AppData\Local\Temp\ccWGWhVY.s 			page 72


 4100              	.LVL286:
 4101              	.L353:
 4102              		.loc 1 1577 3 discriminator 2 view .LVU1146
 4103 0074 042D     		cmp	r5, #4
 4104 0076 05D0     		beq	.L362
 4105              		.loc 1 1577 3 discriminator 4 view .LVU1147
 4106 0078 082D     		cmp	r5, #8
 4107 007a 07D0     		beq	.L363
 4108              		.loc 1 1577 3 discriminator 7 view .LVU1148
 4109 007c 0123     		movs	r3, #1
 4110 007e 84F84530 		strb	r3, [r4, #69]
 4111 0082 EFE7     		b	.L354
 4112              	.L362:
 4113              		.loc 1 1577 3 discriminator 3 view .LVU1149
 4114 0084 0123     		movs	r3, #1
 4115 0086 84F84330 		strb	r3, [r4, #67]
 4116 008a EBE7     		b	.L354
 4117              	.L363:
 4118              		.loc 1 1577 3 discriminator 6 view .LVU1150
 4119 008c 0123     		movs	r3, #1
 4120 008e 84F84430 		strb	r3, [r4, #68]
 4121 0092 E7E7     		b	.L354
 4122              	.L357:
 4123              		.loc 1 1578 3 discriminator 2 view .LVU1151
 4124 0094 1EB9     		cbnz	r6, .L364
 4125              		.loc 1 1578 3 discriminator 7 view .LVU1152
 4126 0096 0123     		movs	r3, #1
 4127 0098 84F84130 		strb	r3, [r4, #65]
 4128 009c E6E7     		b	.L358
 4129              	.L364:
 4130              		.loc 1 1578 3 discriminator 3 view .LVU1153
 4131 009e 0123     		movs	r3, #1
 4132 00a0 84F83F30 		strb	r3, [r4, #63]
 4133 00a4 E2E7     		b	.L358
 4134              		.cfi_endproc
 4135              	.LFE88:
 4137              		.section	.text.HAL_TIMEx_OnePulseN_Start_IT,"ax",%progbits
 4138              		.align	1
 4139              		.global	HAL_TIMEx_OnePulseN_Start_IT
 4140              		.syntax unified
 4141              		.thumb
 4142              		.thumb_func
 4143              		.fpu softvfp
 4145              	HAL_TIMEx_OnePulseN_Start_IT:
 4146              	.LVL287:
 4147              	.LFB89:
 4148              		.loc 1 1595 1 is_stmt 1 view -0
 4149              		.cfi_startproc
 4150              		@ args = 0, pretend = 0, frame = 0
 4151              		@ frame_needed = 0, uses_anonymous_args = 0
 4152              		.loc 1 1595 1 is_stmt 0 view .LVU1155
 4153 0000 38B5     		push	{r3, r4, r5, lr}
 4154              	.LCFI30:
 4155              		.cfi_def_cfa_offset 16
 4156              		.cfi_offset 3, -16
 4157              		.cfi_offset 4, -12
 4158              		.cfi_offset 5, -8
ARM GAS  C:\Users\Ika\AppData\Local\Temp\ccWGWhVY.s 			page 73


 4159              		.cfi_offset 14, -4
 4160 0002 0446     		mov	r4, r0
 4161              		.loc 1 1596 3 is_stmt 1 view .LVU1156
 4162              		.loc 1 1596 77 is_stmt 0 view .LVU1157
 4163 0004 0B46     		mov	r3, r1
 4164 0006 0029     		cmp	r1, #0
 4165 0008 31D0     		beq	.L366
 4166              	.LVL288:
 4167              		.loc 1 1597 3 is_stmt 1 view .LVU1158
 4168              		.loc 1 1597 53 is_stmt 0 view .LVU1159
 4169 000a 90F83E20 		ldrb	r2, [r0, #62]	@ zero_extendqisi2
 4170 000e D2B2     		uxtb	r2, r2
 4171              		.loc 1 1596 77 view .LVU1160
 4172 0010 0025     		movs	r5, #0
 4173              	.LVL289:
 4174              	.L367:
 4175              		.loc 1 1598 3 is_stmt 1 discriminator 12 view .LVU1161
 4176              		.loc 1 1598 54 is_stmt 0 discriminator 12 view .LVU1162
 4177 0012 002B     		cmp	r3, #0
 4178 0014 30D1     		bne	.L368
 4179              		.loc 1 1598 54 discriminator 1 view .LVU1163
 4180 0016 94F84200 		ldrb	r0, [r4, #66]	@ zero_extendqisi2
 4181              	.LVL290:
 4182              		.loc 1 1598 54 discriminator 1 view .LVU1164
 4183 001a C0B2     		uxtb	r0, r0
 4184              	.L369:
 4185              	.LVL291:
 4186              		.loc 1 1601 3 is_stmt 1 discriminator 12 view .LVU1165
 4187              		.loc 1 1604 3 discriminator 12 view .LVU1166
 4188              		.loc 1 1604 6 is_stmt 0 discriminator 12 view .LVU1167
 4189 001c 0128     		cmp	r0, #1
 4190 001e 54D1     		bne	.L380
 4191              		.loc 1 1605 7 view .LVU1168
 4192 0020 012A     		cmp	r2, #1
 4193 0022 53D1     		bne	.L372
 4194              		.loc 1 1611 3 is_stmt 1 view .LVU1169
 4195 0024 002B     		cmp	r3, #0
 4196 0026 37D1     		bne	.L373
 4197              		.loc 1 1611 3 is_stmt 0 discriminator 1 view .LVU1170
 4198 0028 0222     		movs	r2, #2
 4199              	.LVL292:
 4200              		.loc 1 1611 3 discriminator 1 view .LVU1171
 4201 002a 84F84220 		strb	r2, [r4, #66]
 4202              	.L374:
 4203              		.loc 1 1612 3 is_stmt 1 view .LVU1172
 4204 002e 002D     		cmp	r5, #0
 4205 0030 42D1     		bne	.L377
 4206              		.loc 1 1612 3 is_stmt 0 discriminator 1 view .LVU1173
 4207 0032 0222     		movs	r2, #2
 4208 0034 84F83E20 		strb	r2, [r4, #62]
 4209              	.L378:
 4210              		.loc 1 1615 3 is_stmt 1 view .LVU1174
 4211 0038 2168     		ldr	r1, [r4]
 4212              	.LVL293:
 4213              		.loc 1 1615 3 is_stmt 0 view .LVU1175
 4214 003a CA68     		ldr	r2, [r1, #12]
 4215 003c 42F00202 		orr	r2, r2, #2
ARM GAS  C:\Users\Ika\AppData\Local\Temp\ccWGWhVY.s 			page 74


 4216 0040 CA60     		str	r2, [r1, #12]
 4217              		.loc 1 1618 3 is_stmt 1 view .LVU1176
 4218 0042 2168     		ldr	r1, [r4]
 4219 0044 CA68     		ldr	r2, [r1, #12]
 4220 0046 42F00402 		orr	r2, r2, #4
 4221 004a CA60     		str	r2, [r1, #12]
 4222              		.loc 1 1621 3 view .LVU1177
 4223 004c 0422     		movs	r2, #4
 4224 004e 1946     		mov	r1, r3
 4225 0050 2068     		ldr	r0, [r4]
 4226              	.LVL294:
 4227              		.loc 1 1621 3 is_stmt 0 view .LVU1178
 4228 0052 FFF7FEFF 		bl	TIM_CCxNChannelCmd
 4229              	.LVL295:
 4230              		.loc 1 1622 3 is_stmt 1 view .LVU1179
 4231 0056 0122     		movs	r2, #1
 4232 0058 2946     		mov	r1, r5
 4233 005a 2068     		ldr	r0, [r4]
 4234 005c FFF7FEFF 		bl	TIM_CCxChannelCmd
 4235              	.LVL296:
 4236              		.loc 1 1625 3 view .LVU1180
 4237 0060 2268     		ldr	r2, [r4]
 4238 0062 536C     		ldr	r3, [r2, #68]
 4239 0064 43F40043 		orr	r3, r3, #32768
 4240 0068 5364     		str	r3, [r2, #68]
 4241              		.loc 1 1628 3 view .LVU1181
 4242              		.loc 1 1628 10 is_stmt 0 view .LVU1182
 4243 006a 0020     		movs	r0, #0
 4244 006c 2EE0     		b	.L372
 4245              	.LVL297:
 4246              	.L366:
 4247              		.loc 1 1597 3 is_stmt 1 discriminator 4 view .LVU1183
 4248              		.loc 1 1597 53 is_stmt 0 discriminator 4 view .LVU1184
 4249 006e 90F83F20 		ldrb	r2, [r0, #63]	@ zero_extendqisi2
 4250 0072 D2B2     		uxtb	r2, r2
 4251              		.loc 1 1596 77 discriminator 4 view .LVU1185
 4252 0074 0425     		movs	r5, #4
 4253 0076 CCE7     		b	.L367
 4254              	.LVL298:
 4255              	.L368:
 4256              		.loc 1 1598 54 discriminator 2 view .LVU1186
 4257 0078 042B     		cmp	r3, #4
 4258 007a 05D0     		beq	.L382
 4259              		.loc 1 1598 54 discriminator 5 view .LVU1187
 4260 007c 082B     		cmp	r3, #8
 4261 007e 07D0     		beq	.L383
 4262              		.loc 1 1598 54 discriminator 8 view .LVU1188
 4263 0080 94F84500 		ldrb	r0, [r4, #69]	@ zero_extendqisi2
 4264              	.LVL299:
 4265              		.loc 1 1598 54 discriminator 8 view .LVU1189
 4266 0084 C0B2     		uxtb	r0, r0
 4267 0086 C9E7     		b	.L369
 4268              	.LVL300:
 4269              	.L382:
 4270              		.loc 1 1598 54 discriminator 4 view .LVU1190
 4271 0088 94F84300 		ldrb	r0, [r4, #67]	@ zero_extendqisi2
 4272              	.LVL301:
ARM GAS  C:\Users\Ika\AppData\Local\Temp\ccWGWhVY.s 			page 75


 4273              		.loc 1 1598 54 discriminator 4 view .LVU1191
 4274 008c C0B2     		uxtb	r0, r0
 4275 008e C5E7     		b	.L369
 4276              	.LVL302:
 4277              	.L383:
 4278              		.loc 1 1598 54 discriminator 7 view .LVU1192
 4279 0090 94F84400 		ldrb	r0, [r4, #68]	@ zero_extendqisi2
 4280              	.LVL303:
 4281              		.loc 1 1598 54 discriminator 7 view .LVU1193
 4282 0094 C0B2     		uxtb	r0, r0
 4283 0096 C1E7     		b	.L369
 4284              	.LVL304:
 4285              	.L373:
 4286              		.loc 1 1611 3 discriminator 2 view .LVU1194
 4287 0098 042B     		cmp	r3, #4
 4288 009a 05D0     		beq	.L384
 4289              		.loc 1 1611 3 discriminator 4 view .LVU1195
 4290 009c 082B     		cmp	r3, #8
 4291 009e 07D0     		beq	.L385
 4292              		.loc 1 1611 3 discriminator 7 view .LVU1196
 4293 00a0 0222     		movs	r2, #2
 4294              	.LVL305:
 4295              		.loc 1 1611 3 discriminator 7 view .LVU1197
 4296 00a2 84F84520 		strb	r2, [r4, #69]
 4297 00a6 C2E7     		b	.L374
 4298              	.LVL306:
 4299              	.L384:
 4300              		.loc 1 1611 3 discriminator 3 view .LVU1198
 4301 00a8 0222     		movs	r2, #2
 4302              	.LVL307:
 4303              		.loc 1 1611 3 discriminator 3 view .LVU1199
 4304 00aa 84F84320 		strb	r2, [r4, #67]
 4305 00ae BEE7     		b	.L374
 4306              	.LVL308:
 4307              	.L385:
 4308              		.loc 1 1611 3 discriminator 6 view .LVU1200
 4309 00b0 0222     		movs	r2, #2
 4310              	.LVL309:
 4311              		.loc 1 1611 3 discriminator 6 view .LVU1201
 4312 00b2 84F84420 		strb	r2, [r4, #68]
 4313 00b6 BAE7     		b	.L374
 4314              	.L377:
 4315              		.loc 1 1612 3 discriminator 2 view .LVU1202
 4316 00b8 1DB9     		cbnz	r5, .L386
 4317              		.loc 1 1612 3 discriminator 7 view .LVU1203
 4318 00ba 0222     		movs	r2, #2
 4319 00bc 84F84120 		strb	r2, [r4, #65]
 4320 00c0 BAE7     		b	.L378
 4321              	.L386:
 4322              		.loc 1 1612 3 discriminator 3 view .LVU1204
 4323 00c2 0222     		movs	r2, #2
 4324 00c4 84F83F20 		strb	r2, [r4, #63]
 4325 00c8 B6E7     		b	.L378
 4326              	.LVL310:
 4327              	.L380:
 4328              		.loc 1 1607 12 view .LVU1205
 4329 00ca 0120     		movs	r0, #1
ARM GAS  C:\Users\Ika\AppData\Local\Temp\ccWGWhVY.s 			page 76


 4330              	.LVL311:
 4331              	.L372:
 4332              		.loc 1 1629 1 view .LVU1206
 4333 00cc 38BD     		pop	{r3, r4, r5, pc}
 4334              		.loc 1 1629 1 view .LVU1207
 4335              		.cfi_endproc
 4336              	.LFE89:
 4338              		.section	.text.HAL_TIMEx_OnePulseN_Stop_IT,"ax",%progbits
 4339              		.align	1
 4340              		.global	HAL_TIMEx_OnePulseN_Stop_IT
 4341              		.syntax unified
 4342              		.thumb
 4343              		.thumb_func
 4344              		.fpu softvfp
 4346              	HAL_TIMEx_OnePulseN_Stop_IT:
 4347              	.LVL312:
 4348              	.LFB90:
 4349              		.loc 1 1642 1 is_stmt 1 view -0
 4350              		.cfi_startproc
 4351              		@ args = 0, pretend = 0, frame = 0
 4352              		@ frame_needed = 0, uses_anonymous_args = 0
 4353              		.loc 1 1642 1 is_stmt 0 view .LVU1209
 4354 0000 70B5     		push	{r4, r5, r6, lr}
 4355              	.LCFI31:
 4356              		.cfi_def_cfa_offset 16
 4357              		.cfi_offset 4, -16
 4358              		.cfi_offset 5, -12
 4359              		.cfi_offset 6, -8
 4360              		.cfi_offset 14, -4
 4361 0002 0446     		mov	r4, r0
 4362              		.loc 1 1643 3 is_stmt 1 view .LVU1210
 4363              		.loc 1 1643 77 is_stmt 0 view .LVU1211
 4364 0004 0D46     		mov	r5, r1
 4365 0006 0029     		cmp	r1, #0
 4366 0008 3CD1     		bne	.L398
 4367 000a 0426     		movs	r6, #4
 4368              	.L388:
 4369              	.LVL313:
 4370              		.loc 1 1646 3 is_stmt 1 discriminator 4 view .LVU1212
 4371              		.loc 1 1649 3 discriminator 4 view .LVU1213
 4372 000c 2268     		ldr	r2, [r4]
 4373 000e D368     		ldr	r3, [r2, #12]
 4374 0010 23F00203 		bic	r3, r3, #2
 4375 0014 D360     		str	r3, [r2, #12]
 4376              		.loc 1 1652 3 discriminator 4 view .LVU1214
 4377 0016 2268     		ldr	r2, [r4]
 4378 0018 D368     		ldr	r3, [r2, #12]
 4379 001a 23F00403 		bic	r3, r3, #4
 4380 001e D360     		str	r3, [r2, #12]
 4381              		.loc 1 1655 3 discriminator 4 view .LVU1215
 4382 0020 0022     		movs	r2, #0
 4383 0022 2946     		mov	r1, r5
 4384              	.LVL314:
 4385              		.loc 1 1655 3 is_stmt 0 discriminator 4 view .LVU1216
 4386 0024 2068     		ldr	r0, [r4]
 4387              	.LVL315:
 4388              		.loc 1 1655 3 discriminator 4 view .LVU1217
ARM GAS  C:\Users\Ika\AppData\Local\Temp\ccWGWhVY.s 			page 77


 4389 0026 FFF7FEFF 		bl	TIM_CCxNChannelCmd
 4390              	.LVL316:
 4391              		.loc 1 1656 3 is_stmt 1 discriminator 4 view .LVU1218
 4392 002a 0022     		movs	r2, #0
 4393 002c 3146     		mov	r1, r6
 4394 002e 2068     		ldr	r0, [r4]
 4395 0030 FFF7FEFF 		bl	TIM_CCxChannelCmd
 4396              	.LVL317:
 4397              		.loc 1 1659 3 discriminator 4 view .LVU1219
 4398              		.loc 1 1659 3 discriminator 4 view .LVU1220
 4399 0034 2368     		ldr	r3, [r4]
 4400 0036 196A     		ldr	r1, [r3, #32]
 4401 0038 41F21112 		movw	r2, #4369
 4402 003c 1142     		tst	r1, r2
 4403 003e 08D1     		bne	.L389
 4404              		.loc 1 1659 3 discriminator 1 view .LVU1221
 4405 0040 196A     		ldr	r1, [r3, #32]
 4406 0042 40F24442 		movw	r2, #1092
 4407 0046 1142     		tst	r1, r2
 4408 0048 03D1     		bne	.L389
 4409              		.loc 1 1659 3 discriminator 3 view .LVU1222
 4410 004a 5A6C     		ldr	r2, [r3, #68]
 4411 004c 22F40042 		bic	r2, r2, #32768
 4412 0050 5A64     		str	r2, [r3, #68]
 4413              	.L389:
 4414              		.loc 1 1659 3 discriminator 5 view .LVU1223
 4415              		.loc 1 1662 3 discriminator 5 view .LVU1224
 4416              		.loc 1 1662 3 discriminator 5 view .LVU1225
 4417 0052 2368     		ldr	r3, [r4]
 4418 0054 196A     		ldr	r1, [r3, #32]
 4419 0056 41F21112 		movw	r2, #4369
 4420 005a 1142     		tst	r1, r2
 4421 005c 08D1     		bne	.L390
 4422              		.loc 1 1662 3 discriminator 1 view .LVU1226
 4423 005e 196A     		ldr	r1, [r3, #32]
 4424 0060 40F24442 		movw	r2, #1092
 4425 0064 1142     		tst	r1, r2
 4426 0066 03D1     		bne	.L390
 4427              		.loc 1 1662 3 discriminator 3 view .LVU1227
 4428 0068 1A68     		ldr	r2, [r3]
 4429 006a 22F00102 		bic	r2, r2, #1
 4430 006e 1A60     		str	r2, [r3]
 4431              	.L390:
 4432              		.loc 1 1662 3 discriminator 5 view .LVU1228
 4433              		.loc 1 1665 3 discriminator 5 view .LVU1229
 4434 0070 55B9     		cbnz	r5, .L391
 4435              		.loc 1 1665 3 is_stmt 0 discriminator 1 view .LVU1230
 4436 0072 0123     		movs	r3, #1
 4437 0074 84F84230 		strb	r3, [r4, #66]
 4438              	.L392:
 4439              		.loc 1 1666 3 is_stmt 1 view .LVU1231
 4440 0078 B6B9     		cbnz	r6, .L395
 4441              		.loc 1 1666 3 is_stmt 0 discriminator 1 view .LVU1232
 4442 007a 0123     		movs	r3, #1
 4443 007c 84F83E30 		strb	r3, [r4, #62]
 4444              	.L396:
 4445              		.loc 1 1669 3 is_stmt 1 view .LVU1233
ARM GAS  C:\Users\Ika\AppData\Local\Temp\ccWGWhVY.s 			page 78


 4446              		.loc 1 1670 1 is_stmt 0 view .LVU1234
 4447 0080 0020     		movs	r0, #0
 4448 0082 70BD     		pop	{r4, r5, r6, pc}
 4449              	.LVL318:
 4450              	.L398:
 4451              		.loc 1 1643 77 view .LVU1235
 4452 0084 0026     		movs	r6, #0
 4453 0086 C1E7     		b	.L388
 4454              	.LVL319:
 4455              	.L391:
 4456              		.loc 1 1665 3 discriminator 2 view .LVU1236
 4457 0088 042D     		cmp	r5, #4
 4458 008a 05D0     		beq	.L400
 4459              		.loc 1 1665 3 discriminator 4 view .LVU1237
 4460 008c 082D     		cmp	r5, #8
 4461 008e 07D0     		beq	.L401
 4462              		.loc 1 1665 3 discriminator 7 view .LVU1238
 4463 0090 0123     		movs	r3, #1
 4464 0092 84F84530 		strb	r3, [r4, #69]
 4465 0096 EFE7     		b	.L392
 4466              	.L400:
 4467              		.loc 1 1665 3 discriminator 3 view .LVU1239
 4468 0098 0123     		movs	r3, #1
 4469 009a 84F84330 		strb	r3, [r4, #67]
 4470 009e EBE7     		b	.L392
 4471              	.L401:
 4472              		.loc 1 1665 3 discriminator 6 view .LVU1240
 4473 00a0 0123     		movs	r3, #1
 4474 00a2 84F84430 		strb	r3, [r4, #68]
 4475 00a6 E7E7     		b	.L392
 4476              	.L395:
 4477              		.loc 1 1666 3 discriminator 2 view .LVU1241
 4478 00a8 1EB9     		cbnz	r6, .L402
 4479              		.loc 1 1666 3 discriminator 7 view .LVU1242
 4480 00aa 0123     		movs	r3, #1
 4481 00ac 84F84130 		strb	r3, [r4, #65]
 4482 00b0 E6E7     		b	.L396
 4483              	.L402:
 4484              		.loc 1 1666 3 discriminator 3 view .LVU1243
 4485 00b2 0123     		movs	r3, #1
 4486 00b4 84F83F30 		strb	r3, [r4, #63]
 4487 00b8 E2E7     		b	.L396
 4488              		.cfi_endproc
 4489              	.LFE90:
 4491              		.section	.text.HAL_TIMEx_ConfigCommutEvent,"ax",%progbits
 4492              		.align	1
 4493              		.global	HAL_TIMEx_ConfigCommutEvent
 4494              		.syntax unified
 4495              		.thumb
 4496              		.thumb_func
 4497              		.fpu softvfp
 4499              	HAL_TIMEx_ConfigCommutEvent:
 4500              	.LVL320:
 4501              	.LFB91:
 4502              		.loc 1 1720 1 is_stmt 1 view -0
 4503              		.cfi_startproc
 4504              		@ args = 0, pretend = 0, frame = 0
ARM GAS  C:\Users\Ika\AppData\Local\Temp\ccWGWhVY.s 			page 79


 4505              		@ frame_needed = 0, uses_anonymous_args = 0
 4506              		@ link register save eliminated.
 4507              		.loc 1 1722 3 view .LVU1245
 4508              		.loc 1 1723 3 view .LVU1246
 4509              		.loc 1 1725 3 view .LVU1247
 4510              		.loc 1 1725 3 view .LVU1248
 4511 0000 90F83C30 		ldrb	r3, [r0, #60]	@ zero_extendqisi2
 4512 0004 012B     		cmp	r3, #1
 4513 0006 31D0     		beq	.L407
 4514              		.loc 1 1720 1 is_stmt 0 discriminator 2 view .LVU1249
 4515 0008 10B4     		push	{r4}
 4516              	.LCFI32:
 4517              		.cfi_def_cfa_offset 4
 4518              		.cfi_offset 4, -4
 4519              		.loc 1 1725 3 is_stmt 1 discriminator 2 view .LVU1250
 4520 000a 0123     		movs	r3, #1
 4521 000c 80F83C30 		strb	r3, [r0, #60]
 4522              		.loc 1 1725 3 discriminator 2 view .LVU1251
 4523              		.loc 1 1727 3 discriminator 2 view .LVU1252
 4524              		.loc 1 1727 6 is_stmt 0 discriminator 2 view .LVU1253
 4525 0010 29B1     		cbz	r1, .L405
 4526              		.loc 1 1727 37 discriminator 1 view .LVU1254
 4527 0012 1029     		cmp	r1, #16
 4528 0014 03D0     		beq	.L405
 4529              		.loc 1 1727 70 discriminator 2 view .LVU1255
 4530 0016 2029     		cmp	r1, #32
 4531 0018 01D0     		beq	.L405
 4532              		.loc 1 1728 37 view .LVU1256
 4533 001a 3029     		cmp	r1, #48
 4534 001c 08D1     		bne	.L406
 4535              	.L405:
 4536              		.loc 1 1731 5 is_stmt 1 view .LVU1257
 4537              		.loc 1 1731 9 is_stmt 0 view .LVU1258
 4538 001e 0468     		ldr	r4, [r0]
 4539              		.loc 1 1731 26 view .LVU1259
 4540 0020 A368     		ldr	r3, [r4, #8]
 4541 0022 23F07003 		bic	r3, r3, #112
 4542 0026 A360     		str	r3, [r4, #8]
 4543              		.loc 1 1732 5 is_stmt 1 view .LVU1260
 4544              		.loc 1 1732 9 is_stmt 0 view .LVU1261
 4545 0028 0468     		ldr	r4, [r0]
 4546              		.loc 1 1732 26 view .LVU1262
 4547 002a A368     		ldr	r3, [r4, #8]
 4548 002c 1943     		orrs	r1, r1, r3
 4549              	.LVL321:
 4550              		.loc 1 1732 26 view .LVU1263
 4551 002e A160     		str	r1, [r4, #8]
 4552              	.L406:
 4553              		.loc 1 1736 3 is_stmt 1 view .LVU1264
 4554              		.loc 1 1736 7 is_stmt 0 view .LVU1265
 4555 0030 0168     		ldr	r1, [r0]
 4556              		.loc 1 1736 23 view .LVU1266
 4557 0032 4B68     		ldr	r3, [r1, #4]
 4558 0034 43F00103 		orr	r3, r3, #1
 4559 0038 4B60     		str	r3, [r1, #4]
 4560              		.loc 1 1738 3 is_stmt 1 view .LVU1267
 4561              		.loc 1 1738 7 is_stmt 0 view .LVU1268
ARM GAS  C:\Users\Ika\AppData\Local\Temp\ccWGWhVY.s 			page 80


 4562 003a 0168     		ldr	r1, [r0]
 4563              		.loc 1 1738 23 view .LVU1269
 4564 003c 4B68     		ldr	r3, [r1, #4]
 4565 003e 23F00403 		bic	r3, r3, #4
 4566 0042 4B60     		str	r3, [r1, #4]
 4567              		.loc 1 1739 3 is_stmt 1 view .LVU1270
 4568              		.loc 1 1739 7 is_stmt 0 view .LVU1271
 4569 0044 0168     		ldr	r1, [r0]
 4570              		.loc 1 1739 23 view .LVU1272
 4571 0046 4B68     		ldr	r3, [r1, #4]
 4572 0048 1A43     		orrs	r2, r2, r3
 4573              	.LVL322:
 4574              		.loc 1 1739 23 view .LVU1273
 4575 004a 4A60     		str	r2, [r1, #4]
 4576              		.loc 1 1742 3 is_stmt 1 view .LVU1274
 4577 004c 0268     		ldr	r2, [r0]
 4578 004e D368     		ldr	r3, [r2, #12]
 4579 0050 23F02003 		bic	r3, r3, #32
 4580 0054 D360     		str	r3, [r2, #12]
 4581              		.loc 1 1745 3 view .LVU1275
 4582 0056 0268     		ldr	r2, [r0]
 4583 0058 D368     		ldr	r3, [r2, #12]
 4584 005a 23F40053 		bic	r3, r3, #8192
 4585 005e D360     		str	r3, [r2, #12]
 4586              		.loc 1 1747 3 view .LVU1276
 4587              		.loc 1 1747 3 view .LVU1277
 4588 0060 0023     		movs	r3, #0
 4589 0062 80F83C30 		strb	r3, [r0, #60]
 4590              		.loc 1 1747 3 view .LVU1278
 4591              		.loc 1 1749 3 view .LVU1279
 4592              		.loc 1 1749 10 is_stmt 0 view .LVU1280
 4593 0066 1846     		mov	r0, r3
 4594              	.LVL323:
 4595              		.loc 1 1750 1 view .LVU1281
 4596 0068 10BC     		pop	{r4}
 4597              	.LCFI33:
 4598              		.cfi_restore 4
 4599              		.cfi_def_cfa_offset 0
 4600 006a 7047     		bx	lr
 4601              	.LVL324:
 4602              	.L407:
 4603              		.loc 1 1725 3 view .LVU1282
 4604 006c 0220     		movs	r0, #2
 4605              	.LVL325:
 4606              		.loc 1 1750 1 view .LVU1283
 4607 006e 7047     		bx	lr
 4608              		.cfi_endproc
 4609              	.LFE91:
 4611              		.section	.text.HAL_TIMEx_ConfigCommutEvent_IT,"ax",%progbits
 4612              		.align	1
 4613              		.global	HAL_TIMEx_ConfigCommutEvent_IT
 4614              		.syntax unified
 4615              		.thumb
 4616              		.thumb_func
 4617              		.fpu softvfp
 4619              	HAL_TIMEx_ConfigCommutEvent_IT:
 4620              	.LVL326:
ARM GAS  C:\Users\Ika\AppData\Local\Temp\ccWGWhVY.s 			page 81


 4621              	.LFB92:
 4622              		.loc 1 1776 1 is_stmt 1 view -0
 4623              		.cfi_startproc
 4624              		@ args = 0, pretend = 0, frame = 0
 4625              		@ frame_needed = 0, uses_anonymous_args = 0
 4626              		@ link register save eliminated.
 4627              		.loc 1 1778 3 view .LVU1285
 4628              		.loc 1 1779 3 view .LVU1286
 4629              		.loc 1 1781 3 view .LVU1287
 4630              		.loc 1 1781 3 view .LVU1288
 4631 0000 90F83C30 		ldrb	r3, [r0, #60]	@ zero_extendqisi2
 4632 0004 012B     		cmp	r3, #1
 4633 0006 31D0     		beq	.L416
 4634              		.loc 1 1776 1 is_stmt 0 discriminator 2 view .LVU1289
 4635 0008 10B4     		push	{r4}
 4636              	.LCFI34:
 4637              		.cfi_def_cfa_offset 4
 4638              		.cfi_offset 4, -4
 4639              		.loc 1 1781 3 is_stmt 1 discriminator 2 view .LVU1290
 4640 000a 0123     		movs	r3, #1
 4641 000c 80F83C30 		strb	r3, [r0, #60]
 4642              		.loc 1 1781 3 discriminator 2 view .LVU1291
 4643              		.loc 1 1783 3 discriminator 2 view .LVU1292
 4644              		.loc 1 1783 6 is_stmt 0 discriminator 2 view .LVU1293
 4645 0010 29B1     		cbz	r1, .L414
 4646              		.loc 1 1783 37 discriminator 1 view .LVU1294
 4647 0012 1029     		cmp	r1, #16
 4648 0014 03D0     		beq	.L414
 4649              		.loc 1 1783 70 discriminator 2 view .LVU1295
 4650 0016 2029     		cmp	r1, #32
 4651 0018 01D0     		beq	.L414
 4652              		.loc 1 1784 37 view .LVU1296
 4653 001a 3029     		cmp	r1, #48
 4654 001c 08D1     		bne	.L415
 4655              	.L414:
 4656              		.loc 1 1787 5 is_stmt 1 view .LVU1297
 4657              		.loc 1 1787 9 is_stmt 0 view .LVU1298
 4658 001e 0468     		ldr	r4, [r0]
 4659              		.loc 1 1787 26 view .LVU1299
 4660 0020 A368     		ldr	r3, [r4, #8]
 4661 0022 23F07003 		bic	r3, r3, #112
 4662 0026 A360     		str	r3, [r4, #8]
 4663              		.loc 1 1788 5 is_stmt 1 view .LVU1300
 4664              		.loc 1 1788 9 is_stmt 0 view .LVU1301
 4665 0028 0468     		ldr	r4, [r0]
 4666              		.loc 1 1788 26 view .LVU1302
 4667 002a A368     		ldr	r3, [r4, #8]
 4668 002c 1943     		orrs	r1, r1, r3
 4669              	.LVL327:
 4670              		.loc 1 1788 26 view .LVU1303
 4671 002e A160     		str	r1, [r4, #8]
 4672              	.L415:
 4673              		.loc 1 1792 3 is_stmt 1 view .LVU1304
 4674              		.loc 1 1792 7 is_stmt 0 view .LVU1305
 4675 0030 0168     		ldr	r1, [r0]
 4676              		.loc 1 1792 23 view .LVU1306
 4677 0032 4B68     		ldr	r3, [r1, #4]
ARM GAS  C:\Users\Ika\AppData\Local\Temp\ccWGWhVY.s 			page 82


 4678 0034 43F00103 		orr	r3, r3, #1
 4679 0038 4B60     		str	r3, [r1, #4]
 4680              		.loc 1 1794 3 is_stmt 1 view .LVU1307
 4681              		.loc 1 1794 7 is_stmt 0 view .LVU1308
 4682 003a 0168     		ldr	r1, [r0]
 4683              		.loc 1 1794 23 view .LVU1309
 4684 003c 4B68     		ldr	r3, [r1, #4]
 4685 003e 23F00403 		bic	r3, r3, #4
 4686 0042 4B60     		str	r3, [r1, #4]
 4687              		.loc 1 1795 3 is_stmt 1 view .LVU1310
 4688              		.loc 1 1795 7 is_stmt 0 view .LVU1311
 4689 0044 0168     		ldr	r1, [r0]
 4690              		.loc 1 1795 23 view .LVU1312
 4691 0046 4B68     		ldr	r3, [r1, #4]
 4692 0048 1A43     		orrs	r2, r2, r3
 4693              	.LVL328:
 4694              		.loc 1 1795 23 view .LVU1313
 4695 004a 4A60     		str	r2, [r1, #4]
 4696              		.loc 1 1798 3 is_stmt 1 view .LVU1314
 4697 004c 0268     		ldr	r2, [r0]
 4698 004e D368     		ldr	r3, [r2, #12]
 4699 0050 23F40053 		bic	r3, r3, #8192
 4700 0054 D360     		str	r3, [r2, #12]
 4701              		.loc 1 1801 3 view .LVU1315
 4702 0056 0268     		ldr	r2, [r0]
 4703 0058 D368     		ldr	r3, [r2, #12]
 4704 005a 43F02003 		orr	r3, r3, #32
 4705 005e D360     		str	r3, [r2, #12]
 4706              		.loc 1 1803 3 view .LVU1316
 4707              		.loc 1 1803 3 view .LVU1317
 4708 0060 0023     		movs	r3, #0
 4709 0062 80F83C30 		strb	r3, [r0, #60]
 4710              		.loc 1 1803 3 view .LVU1318
 4711              		.loc 1 1805 3 view .LVU1319
 4712              		.loc 1 1805 10 is_stmt 0 view .LVU1320
 4713 0066 1846     		mov	r0, r3
 4714              	.LVL329:
 4715              		.loc 1 1806 1 view .LVU1321
 4716 0068 10BC     		pop	{r4}
 4717              	.LCFI35:
 4718              		.cfi_restore 4
 4719              		.cfi_def_cfa_offset 0
 4720 006a 7047     		bx	lr
 4721              	.LVL330:
 4722              	.L416:
 4723              		.loc 1 1781 3 view .LVU1322
 4724 006c 0220     		movs	r0, #2
 4725              	.LVL331:
 4726              		.loc 1 1806 1 view .LVU1323
 4727 006e 7047     		bx	lr
 4728              		.cfi_endproc
 4729              	.LFE92:
 4731              		.section	.text.HAL_TIMEx_ConfigCommutEvent_DMA,"ax",%progbits
 4732              		.align	1
 4733              		.global	HAL_TIMEx_ConfigCommutEvent_DMA
 4734              		.syntax unified
 4735              		.thumb
ARM GAS  C:\Users\Ika\AppData\Local\Temp\ccWGWhVY.s 			page 83


 4736              		.thumb_func
 4737              		.fpu softvfp
 4739              	HAL_TIMEx_ConfigCommutEvent_DMA:
 4740              	.LVL332:
 4741              	.LFB93:
 4742              		.loc 1 1833 1 is_stmt 1 view -0
 4743              		.cfi_startproc
 4744              		@ args = 0, pretend = 0, frame = 0
 4745              		@ frame_needed = 0, uses_anonymous_args = 0
 4746              		@ link register save eliminated.
 4747              		.loc 1 1835 3 view .LVU1325
 4748              		.loc 1 1836 3 view .LVU1326
 4749              		.loc 1 1838 3 view .LVU1327
 4750              		.loc 1 1838 3 view .LVU1328
 4751 0000 90F83C30 		ldrb	r3, [r0, #60]	@ zero_extendqisi2
 4752 0004 012B     		cmp	r3, #1
 4753 0006 3AD0     		beq	.L425
 4754              		.loc 1 1833 1 is_stmt 0 discriminator 2 view .LVU1329
 4755 0008 10B4     		push	{r4}
 4756              	.LCFI36:
 4757              		.cfi_def_cfa_offset 4
 4758              		.cfi_offset 4, -4
 4759              		.loc 1 1838 3 is_stmt 1 discriminator 2 view .LVU1330
 4760 000a 0123     		movs	r3, #1
 4761 000c 80F83C30 		strb	r3, [r0, #60]
 4762              		.loc 1 1838 3 discriminator 2 view .LVU1331
 4763              		.loc 1 1840 3 discriminator 2 view .LVU1332
 4764              		.loc 1 1840 6 is_stmt 0 discriminator 2 view .LVU1333
 4765 0010 29B1     		cbz	r1, .L423
 4766              		.loc 1 1840 37 discriminator 1 view .LVU1334
 4767 0012 1029     		cmp	r1, #16
 4768 0014 03D0     		beq	.L423
 4769              		.loc 1 1840 70 discriminator 2 view .LVU1335
 4770 0016 2029     		cmp	r1, #32
 4771 0018 01D0     		beq	.L423
 4772              		.loc 1 1841 37 view .LVU1336
 4773 001a 3029     		cmp	r1, #48
 4774 001c 08D1     		bne	.L424
 4775              	.L423:
 4776              		.loc 1 1844 5 is_stmt 1 view .LVU1337
 4777              		.loc 1 1844 9 is_stmt 0 view .LVU1338
 4778 001e 0468     		ldr	r4, [r0]
 4779              		.loc 1 1844 26 view .LVU1339
 4780 0020 A368     		ldr	r3, [r4, #8]
 4781 0022 23F07003 		bic	r3, r3, #112
 4782 0026 A360     		str	r3, [r4, #8]
 4783              		.loc 1 1845 5 is_stmt 1 view .LVU1340
 4784              		.loc 1 1845 9 is_stmt 0 view .LVU1341
 4785 0028 0468     		ldr	r4, [r0]
 4786              		.loc 1 1845 26 view .LVU1342
 4787 002a A368     		ldr	r3, [r4, #8]
 4788 002c 1943     		orrs	r1, r1, r3
 4789              	.LVL333:
 4790              		.loc 1 1845 26 view .LVU1343
 4791 002e A160     		str	r1, [r4, #8]
 4792              	.L424:
 4793              		.loc 1 1849 3 is_stmt 1 view .LVU1344
ARM GAS  C:\Users\Ika\AppData\Local\Temp\ccWGWhVY.s 			page 84


 4794              		.loc 1 1849 7 is_stmt 0 view .LVU1345
 4795 0030 0168     		ldr	r1, [r0]
 4796              		.loc 1 1849 23 view .LVU1346
 4797 0032 4B68     		ldr	r3, [r1, #4]
 4798 0034 43F00103 		orr	r3, r3, #1
 4799 0038 4B60     		str	r3, [r1, #4]
 4800              		.loc 1 1851 3 is_stmt 1 view .LVU1347
 4801              		.loc 1 1851 7 is_stmt 0 view .LVU1348
 4802 003a 0168     		ldr	r1, [r0]
 4803              		.loc 1 1851 23 view .LVU1349
 4804 003c 4B68     		ldr	r3, [r1, #4]
 4805 003e 23F00403 		bic	r3, r3, #4
 4806 0042 4B60     		str	r3, [r1, #4]
 4807              		.loc 1 1852 3 is_stmt 1 view .LVU1350
 4808              		.loc 1 1852 7 is_stmt 0 view .LVU1351
 4809 0044 0168     		ldr	r1, [r0]
 4810              		.loc 1 1852 23 view .LVU1352
 4811 0046 4B68     		ldr	r3, [r1, #4]
 4812 0048 1A43     		orrs	r2, r2, r3
 4813              	.LVL334:
 4814              		.loc 1 1852 23 view .LVU1353
 4815 004a 4A60     		str	r2, [r1, #4]
 4816              		.loc 1 1856 3 is_stmt 1 view .LVU1354
 4817              		.loc 1 1856 13 is_stmt 0 view .LVU1355
 4818 004c 436B     		ldr	r3, [r0, #52]
 4819              		.loc 1 1856 56 view .LVU1356
 4820 004e 0D4A     		ldr	r2, .L430
 4821 0050 9A62     		str	r2, [r3, #40]
 4822              		.loc 1 1857 3 is_stmt 1 view .LVU1357
 4823              		.loc 1 1857 13 is_stmt 0 view .LVU1358
 4824 0052 436B     		ldr	r3, [r0, #52]
 4825              		.loc 1 1857 60 view .LVU1359
 4826 0054 0C4A     		ldr	r2, .L430+4
 4827 0056 DA62     		str	r2, [r3, #44]
 4828              		.loc 1 1859 3 is_stmt 1 view .LVU1360
 4829              		.loc 1 1859 13 is_stmt 0 view .LVU1361
 4830 0058 436B     		ldr	r3, [r0, #52]
 4831              		.loc 1 1859 57 view .LVU1362
 4832 005a 0C4A     		ldr	r2, .L430+8
 4833 005c 1A63     		str	r2, [r3, #48]
 4834              		.loc 1 1862 3 is_stmt 1 view .LVU1363
 4835 005e 0268     		ldr	r2, [r0]
 4836 0060 D368     		ldr	r3, [r2, #12]
 4837 0062 23F02003 		bic	r3, r3, #32
 4838 0066 D360     		str	r3, [r2, #12]
 4839              		.loc 1 1865 3 view .LVU1364
 4840 0068 0268     		ldr	r2, [r0]
 4841 006a D368     		ldr	r3, [r2, #12]
 4842 006c 43F40053 		orr	r3, r3, #8192
 4843 0070 D360     		str	r3, [r2, #12]
 4844              		.loc 1 1867 3 view .LVU1365
 4845              		.loc 1 1867 3 view .LVU1366
 4846 0072 0023     		movs	r3, #0
 4847 0074 80F83C30 		strb	r3, [r0, #60]
 4848              		.loc 1 1867 3 view .LVU1367
 4849              		.loc 1 1869 3 view .LVU1368
 4850              		.loc 1 1869 10 is_stmt 0 view .LVU1369
ARM GAS  C:\Users\Ika\AppData\Local\Temp\ccWGWhVY.s 			page 85


 4851 0078 1846     		mov	r0, r3
 4852              	.LVL335:
 4853              		.loc 1 1870 1 view .LVU1370
 4854 007a 10BC     		pop	{r4}
 4855              	.LCFI37:
 4856              		.cfi_restore 4
 4857              		.cfi_def_cfa_offset 0
 4858 007c 7047     		bx	lr
 4859              	.LVL336:
 4860              	.L425:
 4861              		.loc 1 1838 3 view .LVU1371
 4862 007e 0220     		movs	r0, #2
 4863              	.LVL337:
 4864              		.loc 1 1870 1 view .LVU1372
 4865 0080 7047     		bx	lr
 4866              	.L431:
 4867 0082 00BF     		.align	2
 4868              	.L430:
 4869 0084 00000000 		.word	TIMEx_DMACommutationCplt
 4870 0088 00000000 		.word	TIMEx_DMACommutationHalfCplt
 4871 008c 00000000 		.word	TIM_DMAError
 4872              		.cfi_endproc
 4873              	.LFE93:
 4875              		.section	.text.HAL_TIMEx_MasterConfigSynchronization,"ax",%progbits
 4876              		.align	1
 4877              		.global	HAL_TIMEx_MasterConfigSynchronization
 4878              		.syntax unified
 4879              		.thumb
 4880              		.thumb_func
 4881              		.fpu softvfp
 4883              	HAL_TIMEx_MasterConfigSynchronization:
 4884              	.LVL338:
 4885              	.LFB94:
 4886              		.loc 1 1882 1 is_stmt 1 view -0
 4887              		.cfi_startproc
 4888              		@ args = 0, pretend = 0, frame = 0
 4889              		@ frame_needed = 0, uses_anonymous_args = 0
 4890              		@ link register save eliminated.
 4891              		.loc 1 1883 3 view .LVU1374
 4892              		.loc 1 1884 3 view .LVU1375
 4893              		.loc 1 1887 3 view .LVU1376
 4894              		.loc 1 1888 3 view .LVU1377
 4895              		.loc 1 1889 3 view .LVU1378
 4896              		.loc 1 1892 3 view .LVU1379
 4897              		.loc 1 1892 3 view .LVU1380
 4898 0000 90F83C30 		ldrb	r3, [r0, #60]	@ zero_extendqisi2
 4899 0004 012B     		cmp	r3, #1
 4900 0006 27D0     		beq	.L436
 4901              		.loc 1 1882 1 is_stmt 0 discriminator 2 view .LVU1381
 4902 0008 30B4     		push	{r4, r5}
 4903              	.LCFI38:
 4904              		.cfi_def_cfa_offset 8
 4905              		.cfi_offset 4, -8
 4906              		.cfi_offset 5, -4
 4907              		.loc 1 1892 3 is_stmt 1 discriminator 2 view .LVU1382
 4908 000a 0123     		movs	r3, #1
 4909 000c 80F83C30 		strb	r3, [r0, #60]
ARM GAS  C:\Users\Ika\AppData\Local\Temp\ccWGWhVY.s 			page 86


 4910              		.loc 1 1892 3 discriminator 2 view .LVU1383
 4911              		.loc 1 1895 3 discriminator 2 view .LVU1384
 4912              		.loc 1 1895 15 is_stmt 0 discriminator 2 view .LVU1385
 4913 0010 0223     		movs	r3, #2
 4914 0012 80F83D30 		strb	r3, [r0, #61]
 4915              		.loc 1 1898 3 is_stmt 1 discriminator 2 view .LVU1386
 4916              		.loc 1 1898 16 is_stmt 0 discriminator 2 view .LVU1387
 4917 0016 0368     		ldr	r3, [r0]
 4918              		.loc 1 1898 10 discriminator 2 view .LVU1388
 4919 0018 5C68     		ldr	r4, [r3, #4]
 4920              	.LVL339:
 4921              		.loc 1 1901 3 is_stmt 1 discriminator 2 view .LVU1389
 4922              		.loc 1 1901 11 is_stmt 0 discriminator 2 view .LVU1390
 4923 001a 9D68     		ldr	r5, [r3, #8]
 4924              	.LVL340:
 4925              		.loc 1 1904 3 is_stmt 1 discriminator 2 view .LVU1391
 4926              		.loc 1 1904 10 is_stmt 0 discriminator 2 view .LVU1392
 4927 001c 24F07004 		bic	r4, r4, #112
 4928              	.LVL341:
 4929              		.loc 1 1906 3 is_stmt 1 discriminator 2 view .LVU1393
 4930              		.loc 1 1906 27 is_stmt 0 discriminator 2 view .LVU1394
 4931 0020 0A68     		ldr	r2, [r1]
 4932              		.loc 1 1906 10 discriminator 2 view .LVU1395
 4933 0022 2243     		orrs	r2, r2, r4
 4934              	.LVL342:
 4935              		.loc 1 1909 3 is_stmt 1 discriminator 2 view .LVU1396
 4936              		.loc 1 1909 23 is_stmt 0 discriminator 2 view .LVU1397
 4937 0024 5A60     		str	r2, [r3, #4]
 4938              		.loc 1 1911 3 is_stmt 1 discriminator 2 view .LVU1398
 4939              		.loc 1 1911 7 is_stmt 0 discriminator 2 view .LVU1399
 4940 0026 0368     		ldr	r3, [r0]
 4941              		.loc 1 1911 6 discriminator 2 view .LVU1400
 4942 0028 0C4A     		ldr	r2, .L441
 4943              	.LVL343:
 4944              		.loc 1 1911 6 discriminator 2 view .LVU1401
 4945 002a 9342     		cmp	r3, r2
 4946 002c 06D0     		beq	.L434
 4947              		.loc 1 1911 7 discriminator 1 view .LVU1402
 4948 002e B3F1804F 		cmp	r3, #1073741824
 4949 0032 03D0     		beq	.L434
 4950              		.loc 1 1911 7 discriminator 2 view .LVU1403
 4951 0034 A2F59432 		sub	r2, r2, #75776
 4952 0038 9342     		cmp	r3, r2
 4953 003a 04D1     		bne	.L435
 4954              	.L434:
 4955              		.loc 1 1914 5 is_stmt 1 view .LVU1404
 4956              		.loc 1 1914 13 is_stmt 0 view .LVU1405
 4957 003c 25F08005 		bic	r5, r5, #128
 4958              	.LVL344:
 4959              		.loc 1 1916 5 is_stmt 1 view .LVU1406
 4960              		.loc 1 1916 29 is_stmt 0 view .LVU1407
 4961 0040 4A68     		ldr	r2, [r1, #4]
 4962              		.loc 1 1916 13 view .LVU1408
 4963 0042 1543     		orrs	r5, r5, r2
 4964              	.LVL345:
 4965              		.loc 1 1919 5 is_stmt 1 view .LVU1409
 4966              		.loc 1 1919 26 is_stmt 0 view .LVU1410
ARM GAS  C:\Users\Ika\AppData\Local\Temp\ccWGWhVY.s 			page 87


 4967 0044 9D60     		str	r5, [r3, #8]
 4968              	.L435:
 4969              		.loc 1 1923 3 is_stmt 1 view .LVU1411
 4970              		.loc 1 1923 15 is_stmt 0 view .LVU1412
 4971 0046 0123     		movs	r3, #1
 4972 0048 80F83D30 		strb	r3, [r0, #61]
 4973              		.loc 1 1925 3 is_stmt 1 view .LVU1413
 4974              		.loc 1 1925 3 view .LVU1414
 4975 004c 0023     		movs	r3, #0
 4976 004e 80F83C30 		strb	r3, [r0, #60]
 4977              		.loc 1 1925 3 view .LVU1415
 4978              		.loc 1 1927 3 view .LVU1416
 4979              		.loc 1 1927 10 is_stmt 0 view .LVU1417
 4980 0052 1846     		mov	r0, r3
 4981              	.LVL346:
 4982              		.loc 1 1928 1 view .LVU1418
 4983 0054 30BC     		pop	{r4, r5}
 4984              	.LCFI39:
 4985              		.cfi_restore 5
 4986              		.cfi_restore 4
 4987              		.cfi_def_cfa_offset 0
 4988              	.LVL347:
 4989              		.loc 1 1928 1 view .LVU1419
 4990 0056 7047     		bx	lr
 4991              	.LVL348:
 4992              	.L436:
 4993              		.loc 1 1892 3 view .LVU1420
 4994 0058 0220     		movs	r0, #2
 4995              	.LVL349:
 4996              		.loc 1 1928 1 view .LVU1421
 4997 005a 7047     		bx	lr
 4998              	.L442:
 4999              		.align	2
 5000              	.L441:
 5001 005c 002C0140 		.word	1073818624
 5002              		.cfi_endproc
 5003              	.LFE94:
 5005              		.section	.text.HAL_TIMEx_ConfigBreakDeadTime,"ax",%progbits
 5006              		.align	1
 5007              		.global	HAL_TIMEx_ConfigBreakDeadTime
 5008              		.syntax unified
 5009              		.thumb
 5010              		.thumb_func
 5011              		.fpu softvfp
 5013              	HAL_TIMEx_ConfigBreakDeadTime:
 5014              	.LVL350:
 5015              	.LFB95:
 5016              		.loc 1 1943 1 is_stmt 1 view -0
 5017              		.cfi_startproc
 5018              		@ args = 0, pretend = 0, frame = 0
 5019              		@ frame_needed = 0, uses_anonymous_args = 0
 5020              		@ link register save eliminated.
 5021              		.loc 1 1945 3 view .LVU1423
 5022              		.loc 1 1948 3 view .LVU1424
 5023              		.loc 1 1949 3 view .LVU1425
 5024              		.loc 1 1950 3 view .LVU1426
 5025              		.loc 1 1951 3 view .LVU1427
ARM GAS  C:\Users\Ika\AppData\Local\Temp\ccWGWhVY.s 			page 88


 5026              		.loc 1 1952 3 view .LVU1428
 5027              		.loc 1 1953 3 view .LVU1429
 5028              		.loc 1 1954 3 view .LVU1430
 5029              		.loc 1 1955 3 view .LVU1431
 5030              		.loc 1 1958 3 view .LVU1432
 5031              		.loc 1 1958 3 view .LVU1433
 5032 0000 90F83C30 		ldrb	r3, [r0, #60]	@ zero_extendqisi2
 5033 0004 012B     		cmp	r3, #1
 5034 0006 22D0     		beq	.L445
 5035              		.loc 1 1958 3 discriminator 2 view .LVU1434
 5036 0008 0123     		movs	r3, #1
 5037 000a 80F83C30 		strb	r3, [r0, #60]
 5038              		.loc 1 1958 3 discriminator 2 view .LVU1435
 5039              		.loc 1 1964 3 discriminator 2 view .LVU1436
 5040 000e CB68     		ldr	r3, [r1, #12]
 5041              	.LVL351:
 5042              		.loc 1 1965 3 discriminator 2 view .LVU1437
 5043 0010 23F44073 		bic	r3, r3, #768
 5044              	.LVL352:
 5045              		.loc 1 1965 3 is_stmt 0 discriminator 2 view .LVU1438
 5046 0014 8A68     		ldr	r2, [r1, #8]
 5047 0016 1343     		orrs	r3, r3, r2
 5048              	.LVL353:
 5049              		.loc 1 1966 3 is_stmt 1 discriminator 2 view .LVU1439
 5050 0018 23F48063 		bic	r3, r3, #1024
 5051              	.LVL354:
 5052              		.loc 1 1966 3 is_stmt 0 discriminator 2 view .LVU1440
 5053 001c 4A68     		ldr	r2, [r1, #4]
 5054              	.LVL355:
 5055              		.loc 1 1966 3 discriminator 2 view .LVU1441
 5056 001e 1343     		orrs	r3, r3, r2
 5057              	.LVL356:
 5058              		.loc 1 1967 3 is_stmt 1 discriminator 2 view .LVU1442
 5059 0020 23F40063 		bic	r3, r3, #2048
 5060              	.LVL357:
 5061              		.loc 1 1967 3 is_stmt 0 discriminator 2 view .LVU1443
 5062 0024 0A68     		ldr	r2, [r1]
 5063              	.LVL358:
 5064              		.loc 1 1967 3 discriminator 2 view .LVU1444
 5065 0026 1343     		orrs	r3, r3, r2
 5066              	.LVL359:
 5067              		.loc 1 1968 3 is_stmt 1 discriminator 2 view .LVU1445
 5068 0028 23F48053 		bic	r3, r3, #4096
 5069              	.LVL360:
 5070              		.loc 1 1968 3 is_stmt 0 discriminator 2 view .LVU1446
 5071 002c 0A69     		ldr	r2, [r1, #16]
 5072              	.LVL361:
 5073              		.loc 1 1968 3 discriminator 2 view .LVU1447
 5074 002e 1343     		orrs	r3, r3, r2
 5075              	.LVL362:
 5076              		.loc 1 1969 3 is_stmt 1 discriminator 2 view .LVU1448
 5077 0030 23F40053 		bic	r3, r3, #8192
 5078              	.LVL363:
 5079              		.loc 1 1969 3 is_stmt 0 discriminator 2 view .LVU1449
 5080 0034 4A69     		ldr	r2, [r1, #20]
 5081              	.LVL364:
 5082              		.loc 1 1969 3 discriminator 2 view .LVU1450
ARM GAS  C:\Users\Ika\AppData\Local\Temp\ccWGWhVY.s 			page 89


 5083 0036 1343     		orrs	r3, r3, r2
 5084              	.LVL365:
 5085              		.loc 1 1970 3 is_stmt 1 discriminator 2 view .LVU1451
 5086 0038 23F48043 		bic	r3, r3, #16384
 5087              	.LVL366:
 5088              		.loc 1 1970 3 is_stmt 0 discriminator 2 view .LVU1452
 5089 003c CA69     		ldr	r2, [r1, #28]
 5090              	.LVL367:
 5091              		.loc 1 1970 3 discriminator 2 view .LVU1453
 5092 003e 1343     		orrs	r3, r3, r2
 5093              	.LVL368:
 5094              		.loc 1 1974 3 is_stmt 1 discriminator 2 view .LVU1454
 5095              		.loc 1 1974 7 is_stmt 0 discriminator 2 view .LVU1455
 5096 0040 0268     		ldr	r2, [r0]
 5097              		.loc 1 1974 24 discriminator 2 view .LVU1456
 5098 0042 5364     		str	r3, [r2, #68]
 5099              		.loc 1 1976 3 is_stmt 1 discriminator 2 view .LVU1457
 5100              		.loc 1 1976 3 discriminator 2 view .LVU1458
 5101 0044 0023     		movs	r3, #0
 5102              	.LVL369:
 5103              		.loc 1 1976 3 is_stmt 0 discriminator 2 view .LVU1459
 5104 0046 80F83C30 		strb	r3, [r0, #60]
 5105              	.LVL370:
 5106              		.loc 1 1976 3 is_stmt 1 discriminator 2 view .LVU1460
 5107              		.loc 1 1978 3 discriminator 2 view .LVU1461
 5108              		.loc 1 1978 10 is_stmt 0 discriminator 2 view .LVU1462
 5109 004a 1846     		mov	r0, r3
 5110              	.LVL371:
 5111              		.loc 1 1978 10 discriminator 2 view .LVU1463
 5112 004c 7047     		bx	lr
 5113              	.LVL372:
 5114              	.L445:
 5115              		.loc 1 1958 3 view .LVU1464
 5116 004e 0220     		movs	r0, #2
 5117              	.LVL373:
 5118              		.loc 1 1979 1 view .LVU1465
 5119 0050 7047     		bx	lr
 5120              		.cfi_endproc
 5121              	.LFE95:
 5123              		.section	.text.HAL_TIMEx_RemapConfig,"ax",%progbits
 5124              		.align	1
 5125              		.global	HAL_TIMEx_RemapConfig
 5126              		.syntax unified
 5127              		.thumb
 5128              		.thumb_func
 5129              		.fpu softvfp
 5131              	HAL_TIMEx_RemapConfig:
 5132              	.LVL374:
 5133              	.LFB96:
 5134              		.loc 1 1989 1 is_stmt 1 view -0
 5135              		.cfi_startproc
 5136              		@ args = 0, pretend = 0, frame = 0
 5137              		@ frame_needed = 0, uses_anonymous_args = 0
 5138              		@ link register save eliminated.
 5139              		.loc 1 1991 3 view .LVU1467
 5140              		.loc 1 1992 3 view .LVU1468
 5141              		.loc 1 1994 3 view .LVU1469
ARM GAS  C:\Users\Ika\AppData\Local\Temp\ccWGWhVY.s 			page 90


 5142              		.loc 1 1995 1 is_stmt 0 view .LVU1470
 5143 0000 0020     		movs	r0, #0
 5144              	.LVL375:
 5145              		.loc 1 1995 1 view .LVU1471
 5146 0002 7047     		bx	lr
 5147              		.cfi_endproc
 5148              	.LFE96:
 5150              		.section	.text.HAL_TIMEx_CommutCallback,"ax",%progbits
 5151              		.align	1
 5152              		.weak	HAL_TIMEx_CommutCallback
 5153              		.syntax unified
 5154              		.thumb
 5155              		.thumb_func
 5156              		.fpu softvfp
 5158              	HAL_TIMEx_CommutCallback:
 5159              	.LVL376:
 5160              	.LFB97:
 5161              		.loc 1 2023 1 is_stmt 1 view -0
 5162              		.cfi_startproc
 5163              		@ args = 0, pretend = 0, frame = 0
 5164              		@ frame_needed = 0, uses_anonymous_args = 0
 5165              		@ link register save eliminated.
 5166              		.loc 1 2025 3 view .LVU1473
 5167              		.loc 1 2030 1 is_stmt 0 view .LVU1474
 5168 0000 7047     		bx	lr
 5169              		.cfi_endproc
 5170              	.LFE97:
 5172              		.section	.text.TIMEx_DMACommutationCplt,"ax",%progbits
 5173              		.align	1
 5174              		.global	TIMEx_DMACommutationCplt
 5175              		.syntax unified
 5176              		.thumb
 5177              		.thumb_func
 5178              		.fpu softvfp
 5180              	TIMEx_DMACommutationCplt:
 5181              	.LVL377:
 5182              	.LFB102:
 5183              		.loc 1 2129 1 is_stmt 1 view -0
 5184              		.cfi_startproc
 5185              		@ args = 0, pretend = 0, frame = 0
 5186              		@ frame_needed = 0, uses_anonymous_args = 0
 5187              		.loc 1 2129 1 is_stmt 0 view .LVU1476
 5188 0000 08B5     		push	{r3, lr}
 5189              	.LCFI40:
 5190              		.cfi_def_cfa_offset 8
 5191              		.cfi_offset 3, -8
 5192              		.cfi_offset 14, -4
 5193              		.loc 1 2130 3 is_stmt 1 view .LVU1477
 5194              		.loc 1 2130 22 is_stmt 0 view .LVU1478
 5195 0002 406A     		ldr	r0, [r0, #36]
 5196              	.LVL378:
 5197              		.loc 1 2133 3 is_stmt 1 view .LVU1479
 5198              		.loc 1 2133 15 is_stmt 0 view .LVU1480
 5199 0004 0123     		movs	r3, #1
 5200 0006 80F83D30 		strb	r3, [r0, #61]
 5201              		.loc 1 2138 3 is_stmt 1 view .LVU1481
 5202 000a FFF7FEFF 		bl	HAL_TIMEx_CommutCallback
ARM GAS  C:\Users\Ika\AppData\Local\Temp\ccWGWhVY.s 			page 91


 5203              	.LVL379:
 5204              		.loc 1 2140 1 is_stmt 0 view .LVU1482
 5205 000e 08BD     		pop	{r3, pc}
 5206              		.cfi_endproc
 5207              	.LFE102:
 5209              		.section	.text.HAL_TIMEx_CommutHalfCpltCallback,"ax",%progbits
 5210              		.align	1
 5211              		.weak	HAL_TIMEx_CommutHalfCpltCallback
 5212              		.syntax unified
 5213              		.thumb
 5214              		.thumb_func
 5215              		.fpu softvfp
 5217              	HAL_TIMEx_CommutHalfCpltCallback:
 5218              	.LVL380:
 5219              	.LFB98:
 5220              		.loc 1 2037 1 is_stmt 1 view -0
 5221              		.cfi_startproc
 5222              		@ args = 0, pretend = 0, frame = 0
 5223              		@ frame_needed = 0, uses_anonymous_args = 0
 5224              		@ link register save eliminated.
 5225              		.loc 1 2039 3 view .LVU1484
 5226              		.loc 1 2044 1 is_stmt 0 view .LVU1485
 5227 0000 7047     		bx	lr
 5228              		.cfi_endproc
 5229              	.LFE98:
 5231              		.section	.text.TIMEx_DMACommutationHalfCplt,"ax",%progbits
 5232              		.align	1
 5233              		.global	TIMEx_DMACommutationHalfCplt
 5234              		.syntax unified
 5235              		.thumb
 5236              		.thumb_func
 5237              		.fpu softvfp
 5239              	TIMEx_DMACommutationHalfCplt:
 5240              	.LVL381:
 5241              	.LFB103:
 5242              		.loc 1 2148 1 is_stmt 1 view -0
 5243              		.cfi_startproc
 5244              		@ args = 0, pretend = 0, frame = 0
 5245              		@ frame_needed = 0, uses_anonymous_args = 0
 5246              		.loc 1 2148 1 is_stmt 0 view .LVU1487
 5247 0000 08B5     		push	{r3, lr}
 5248              	.LCFI41:
 5249              		.cfi_def_cfa_offset 8
 5250              		.cfi_offset 3, -8
 5251              		.cfi_offset 14, -4
 5252              		.loc 1 2149 3 is_stmt 1 view .LVU1488
 5253              		.loc 1 2149 22 is_stmt 0 view .LVU1489
 5254 0002 406A     		ldr	r0, [r0, #36]
 5255              	.LVL382:
 5256              		.loc 1 2152 3 is_stmt 1 view .LVU1490
 5257              		.loc 1 2152 15 is_stmt 0 view .LVU1491
 5258 0004 0123     		movs	r3, #1
 5259 0006 80F83D30 		strb	r3, [r0, #61]
 5260              		.loc 1 2157 3 is_stmt 1 view .LVU1492
 5261 000a FFF7FEFF 		bl	HAL_TIMEx_CommutHalfCpltCallback
 5262              	.LVL383:
 5263              		.loc 1 2159 1 is_stmt 0 view .LVU1493
ARM GAS  C:\Users\Ika\AppData\Local\Temp\ccWGWhVY.s 			page 92


 5264 000e 08BD     		pop	{r3, pc}
 5265              		.cfi_endproc
 5266              	.LFE103:
 5268              		.section	.text.HAL_TIMEx_BreakCallback,"ax",%progbits
 5269              		.align	1
 5270              		.weak	HAL_TIMEx_BreakCallback
 5271              		.syntax unified
 5272              		.thumb
 5273              		.thumb_func
 5274              		.fpu softvfp
 5276              	HAL_TIMEx_BreakCallback:
 5277              	.LVL384:
 5278              	.LFB99:
 5279              		.loc 1 2052 1 is_stmt 1 view -0
 5280              		.cfi_startproc
 5281              		@ args = 0, pretend = 0, frame = 0
 5282              		@ frame_needed = 0, uses_anonymous_args = 0
 5283              		@ link register save eliminated.
 5284              		.loc 1 2054 3 view .LVU1495
 5285              		.loc 1 2059 1 is_stmt 0 view .LVU1496
 5286 0000 7047     		bx	lr
 5287              		.cfi_endproc
 5288              	.LFE99:
 5290              		.section	.text.HAL_TIMEx_HallSensor_GetState,"ax",%progbits
 5291              		.align	1
 5292              		.global	HAL_TIMEx_HallSensor_GetState
 5293              		.syntax unified
 5294              		.thumb
 5295              		.thumb_func
 5296              		.fpu softvfp
 5298              	HAL_TIMEx_HallSensor_GetState:
 5299              	.LVL385:
 5300              	.LFB100:
 5301              		.loc 1 2085 1 is_stmt 1 view -0
 5302              		.cfi_startproc
 5303              		@ args = 0, pretend = 0, frame = 0
 5304              		@ frame_needed = 0, uses_anonymous_args = 0
 5305              		@ link register save eliminated.
 5306              		.loc 1 2086 3 view .LVU1498
 5307              		.loc 1 2086 14 is_stmt 0 view .LVU1499
 5308 0000 90F83D00 		ldrb	r0, [r0, #61]	@ zero_extendqisi2
 5309              	.LVL386:
 5310              		.loc 1 2087 1 view .LVU1500
 5311 0004 7047     		bx	lr
 5312              		.cfi_endproc
 5313              	.LFE100:
 5315              		.section	.text.HAL_TIMEx_GetChannelNState,"ax",%progbits
 5316              		.align	1
 5317              		.global	HAL_TIMEx_GetChannelNState
 5318              		.syntax unified
 5319              		.thumb
 5320              		.thumb_func
 5321              		.fpu softvfp
 5323              	HAL_TIMEx_GetChannelNState:
 5324              	.LVL387:
 5325              	.LFB101:
 5326              		.loc 1 2100 1 is_stmt 1 view -0
ARM GAS  C:\Users\Ika\AppData\Local\Temp\ccWGWhVY.s 			page 93


 5327              		.cfi_startproc
 5328              		@ args = 0, pretend = 0, frame = 0
 5329              		@ frame_needed = 0, uses_anonymous_args = 0
 5330              		@ link register save eliminated.
 5331              		.loc 1 2101 3 view .LVU1502
 5332              		.loc 1 2104 3 view .LVU1503
 5333              		.loc 1 2106 3 view .LVU1504
 5334              		.loc 1 2106 19 is_stmt 0 view .LVU1505
 5335 0000 19B9     		cbnz	r1, .L456
 5336              		.loc 1 2106 19 discriminator 1 view .LVU1506
 5337 0002 90F84200 		ldrb	r0, [r0, #66]	@ zero_extendqisi2
 5338              	.LVL388:
 5339              		.loc 1 2106 19 discriminator 1 view .LVU1507
 5340 0006 C0B2     		uxtb	r0, r0
 5341 0008 7047     		bx	lr
 5342              	.LVL389:
 5343              	.L456:
 5344              		.loc 1 2106 19 discriminator 2 view .LVU1508
 5345 000a 0429     		cmp	r1, #4
 5346 000c 05D0     		beq	.L460
 5347              		.loc 1 2106 19 discriminator 5 view .LVU1509
 5348 000e 0829     		cmp	r1, #8
 5349 0010 07D0     		beq	.L461
 5350              		.loc 1 2106 19 discriminator 8 view .LVU1510
 5351 0012 90F84500 		ldrb	r0, [r0, #69]	@ zero_extendqisi2
 5352              	.LVL390:
 5353              		.loc 1 2106 19 discriminator 8 view .LVU1511
 5354 0016 C0B2     		uxtb	r0, r0
 5355              	.LVL391:
 5356              		.loc 1 2108 3 is_stmt 1 discriminator 8 view .LVU1512
 5357              		.loc 1 2109 1 is_stmt 0 discriminator 8 view .LVU1513
 5358 0018 7047     		bx	lr
 5359              	.LVL392:
 5360              	.L460:
 5361              		.loc 1 2106 19 discriminator 4 view .LVU1514
 5362 001a 90F84300 		ldrb	r0, [r0, #67]	@ zero_extendqisi2
 5363              	.LVL393:
 5364              		.loc 1 2106 19 discriminator 4 view .LVU1515
 5365 001e C0B2     		uxtb	r0, r0
 5366 0020 7047     		bx	lr
 5367              	.LVL394:
 5368              	.L461:
 5369              		.loc 1 2106 19 discriminator 7 view .LVU1516
 5370 0022 90F84400 		ldrb	r0, [r0, #68]	@ zero_extendqisi2
 5371              	.LVL395:
 5372              		.loc 1 2106 19 discriminator 7 view .LVU1517
 5373 0026 C0B2     		uxtb	r0, r0
 5374 0028 7047     		bx	lr
 5375              		.cfi_endproc
 5376              	.LFE101:
 5378              		.text
 5379              	.Letext0:
 5380              		.file 2 "../c:\\users\\ika\\desktop\\gnu mcu\\arm-none-eabi-gcc-9.3.1-1.1\\arm-none-eabi\\include\
 5381              		.file 3 "../c:\\users\\ika\\desktop\\gnu mcu\\arm-none-eabi-gcc-9.3.1-1.1\\arm-none-eabi\\include\
 5382              		.file 4 "../Drivers/CMSIS/Include/core_cm3.h"
 5383              		.file 5 "../Drivers/CMSIS/Device/ST/STM32F1xx/Include/system_stm32f1xx.h"
 5384              		.file 6 "../Drivers/CMSIS/Device/ST/STM32F1xx/Include/stm32f103x6.h"
ARM GAS  C:\Users\Ika\AppData\Local\Temp\ccWGWhVY.s 			page 94


 5385              		.file 7 "../Drivers/CMSIS/Device/ST/STM32F1xx/Include/stm32f1xx.h"
 5386              		.file 8 "../Drivers/STM32F1xx_HAL_Driver/Inc/stm32f1xx_hal_def.h"
 5387              		.file 9 "../Drivers/STM32F1xx_HAL_Driver/Inc/stm32f1xx_hal_dma.h"
 5388              		.file 10 "../Drivers/STM32F1xx_HAL_Driver/Inc/stm32f1xx_hal_tim.h"
 5389              		.file 11 "../Drivers/STM32F1xx_HAL_Driver/Inc/stm32f1xx_hal_tim_ex.h"
 5390              		.file 12 "../Drivers/STM32F1xx_HAL_Driver/Inc/stm32f1xx_hal.h"
ARM GAS  C:\Users\Ika\AppData\Local\Temp\ccWGWhVY.s 			page 95

