ARM GAS  C:\Users\Ika\AppData\Local\Temp\cc4TPvqD.s 			page 1


   1              		.cpu cortex-m3
   2              		.eabi_attribute 20, 1
   3              		.eabi_attribute 21, 1
   4              		.eabi_attribute 23, 3
   5              		.eabi_attribute 24, 1
   6              		.eabi_attribute 25, 1
   7              		.eabi_attribute 26, 1
   8              		.eabi_attribute 30, 1
   9              		.eabi_attribute 34, 1
  10              		.eabi_attribute 18, 4
  11              		.file	"casovnik.c"
  12              		.text
  13              	.Ltext0:
  14              		.cfi_sections	.debug_frame
  15              		.section	.text.casovnik,"ax",%progbits
  16              		.align	1
  17              		.global	casovnik
  18              		.arch armv7-m
  19              		.syntax unified
  20              		.thumb
  21              		.thumb_func
  22              		.fpu softvfp
  24              	casovnik:
  25              	.LFB65:
  26              		.file 1 "../Core/Src/casovnik.c"
   1:../Core/Src/casovnik.c **** 
  27              		.loc 1 59 16 view -0
  28              		.cfi_startproc
  29              		@ args = 0, pretend = 0, frame = 0
  30              		@ frame_needed = 0, uses_anonymous_args = 0
  31 0000 08B5     		push	{r3, lr}
  32              	.LCFI0:
  33              		.cfi_def_cfa_offset 8
  34              		.cfi_offset 3, -8
  35              		.cfi_offset 14, -4
  36              		.loc 1 62 2 view .LVU1
  37              		.loc 1 62 24 is_stmt 0 view .LVU2
  38 0002 044B     		ldr	r3, .L3
  39 0004 1A78     		ldrb	r2, [r3]	@ zero_extendqisi2
  40              		.loc 1 62 13 view .LVU3
  41 0006 044B     		ldr	r3, .L3+4
  42 0008 DA60     		str	r2, [r3, #12]
  43              		.loc 1 64 2 is_stmt 1 view .LVU4
  44 000a 044B     		ldr	r3, .L3+8
  45 000c 1868     		ldr	r0, [r3]
  46 000e FFF7FEFF 		bl	HAL_TIM_Base_Start_IT
  47              	.LVL0:
  48              		.loc 1 66 1 is_stmt 0 view .LVU5
  49 0012 08BD     		pop	{r3, pc}
  50              	.L4:
  51              		.align	2
  52              	.L3:
  53 0014 00000000 		.word	.LANCHOR0
  54 0018 00100140 		.word	1073811456
  55 001c 00000000 		.word	.LANCHOR1
  56              		.cfi_endproc
  57              	.LFE65:
ARM GAS  C:\Users\Ika\AppData\Local\Temp\cc4TPvqD.s 			page 2


  59              		.section	.text.HAL_TIM_PeriodElapsedCallback,"ax",%progbits
  60              		.align	1
  61              		.global	HAL_TIM_PeriodElapsedCallback
  62              		.syntax unified
  63              		.thumb
  64              		.thumb_func
  65              		.fpu softvfp
  67              	HAL_TIM_PeriodElapsedCallback:
  68              	.LVL1:
  69              	.LFB66:
  70              		.loc 1 68 60 is_stmt 1 view -0
  71              		.cfi_startproc
  72              		@ args = 0, pretend = 0, frame = 0
  73              		@ frame_needed = 0, uses_anonymous_args = 0
  74              		.loc 1 70 2 view .LVU7
  75              		.loc 1 70 9 is_stmt 0 view .LVU8
  76 0000 0268     		ldr	r2, [r0]
  77              		.loc 1 70 28 view .LVU9
  78 0002 2C4B     		ldr	r3, .L16
  79 0004 1B68     		ldr	r3, [r3]
  80              		.loc 1 70 4 view .LVU10
  81 0006 9A42     		cmp	r2, r3
  82 0008 00D0     		beq	.L13
  83 000a 7047     		bx	lr
  84              	.L13:
  85              		.loc 1 68 60 view .LVU11
  86 000c 10B5     		push	{r4, lr}
  87              	.LCFI1:
  88              		.cfi_def_cfa_offset 8
  89              		.cfi_offset 4, -8
  90              		.cfi_offset 14, -4
  91              		.loc 1 71 3 is_stmt 1 view .LVU12
  92 000e 0121     		movs	r1, #1
  93 0010 2948     		ldr	r0, .L16+4
  94              	.LVL2:
  95              		.loc 1 71 3 is_stmt 0 view .LVU13
  96 0012 FFF7FEFF 		bl	HAL_GPIO_TogglePin
  97              	.LVL3:
  98              		.loc 1 73 3 is_stmt 1 view .LVU14
  99              		.loc 1 73 6 is_stmt 0 view .LVU15
 100 0016 294A     		ldr	r2, .L16+8
 101 0018 1368     		ldr	r3, [r2]
 102 001a 0133     		adds	r3, r3, #1
 103              		.loc 1 73 5 view .LVU16
 104 001c 1360     		str	r3, [r2]
 105 001e 642B     		cmp	r3, #100
 106 0020 18D0     		beq	.L14
 107              	.L7:
 108              		.loc 1 91 3 is_stmt 1 view .LVU17
 109              		.loc 1 91 20 is_stmt 0 view .LVU18
 110 0022 274A     		ldr	r2, .L16+12
 111 0024 1368     		ldr	r3, [r2]
 112 0026 0133     		adds	r3, r3, #1
 113              		.loc 1 91 25 view .LVU19
 114 0028 03F00303 		and	r3, r3, #3
 115              		.loc 1 91 10 view .LVU20
 116 002c 1360     		str	r3, [r2]
ARM GAS  C:\Users\Ika\AppData\Local\Temp\cc4TPvqD.s 			page 3


 117              		.loc 1 94 3 is_stmt 1 view .LVU21
 118              		.loc 1 94 14 is_stmt 0 view .LVU22
 119 002e 254A     		ldr	r2, .L16+16
 120 0030 2549     		ldr	r1, .L16+20
 121 0032 D160     		str	r1, [r2, #12]
 122              		.loc 1 97 3 is_stmt 1 view .LVU23
 123              		.loc 1 97 14 is_stmt 0 view .LVU24
 124 0034 D168     		ldr	r1, [r2, #12]
 125              		.loc 1 97 32 view .LVU25
 126 0036 2548     		ldr	r0, .L16+24
 127 0038 50F82300 		ldr	r0, [r0, r3, lsl #2]
 128              		.loc 1 97 26 view .LVU26
 129 003c 244C     		ldr	r4, .L16+28
 130 003e 205C     		ldrb	r0, [r4, r0]	@ zero_extendqisi2
 131              		.loc 1 97 14 view .LVU27
 132 0040 0143     		orrs	r1, r1, r0
 133 0042 D160     		str	r1, [r2, #12]
 134              		.loc 1 100 3 is_stmt 1 view .LVU28
 135              		.loc 1 100 14 is_stmt 0 view .LVU29
 136 0044 D168     		ldr	r1, [r2, #12]
 137              		.loc 1 100 27 view .LVU30
 138 0046 0833     		adds	r3, r3, #8
 139              		.loc 1 100 21 view .LVU31
 140 0048 0120     		movs	r0, #1
 141 004a 00FA03F3 		lsl	r3, r0, r3
 142              		.loc 1 100 14 view .LVU32
 143 004e 0B43     		orrs	r3, r3, r1
 144 0050 D360     		str	r3, [r2, #12]
 145              		.loc 1 104 1 view .LVU33
 146 0052 10BD     		pop	{r4, pc}
 147              	.L14:
 148              		.loc 1 75 4 is_stmt 1 view .LVU34
 149              		.loc 1 75 12 is_stmt 0 view .LVU35
 150 0054 1346     		mov	r3, r2
 151 0056 0022     		movs	r2, #0
 152 0058 1A60     		str	r2, [r3]
 153              		.loc 1 77 4 is_stmt 1 view .LVU36
 154              		.loc 1 77 7 is_stmt 0 view .LVU37
 155 005a 1E4A     		ldr	r2, .L16+32
 156 005c 1368     		ldr	r3, [r2]
 157 005e 0133     		adds	r3, r3, #1
 158              		.loc 1 77 6 view .LVU38
 159 0060 1360     		str	r3, [r2]
 160 0062 3C2B     		cmp	r3, #60
 161 0064 18D0     		beq	.L15
 162              	.L8:
 163              		.loc 1 85 4 is_stmt 1 view .LVU39
 164              		.loc 1 85 22 is_stmt 0 view .LVU40
 165 0066 1C4B     		ldr	r3, .L16+36
 166 0068 1868     		ldr	r0, [r3]
 167 006a 1C4B     		ldr	r3, .L16+40
 168 006c A3FB0012 		umull	r1, r2, r3, r0
 169 0070 D208     		lsrs	r2, r2, #3
 170              		.loc 1 85 13 view .LVU41
 171 0072 1649     		ldr	r1, .L16+24
 172 0074 0A60     		str	r2, [r1]
 173              		.loc 1 86 4 is_stmt 1 view .LVU42
ARM GAS  C:\Users\Ika\AppData\Local\Temp\cc4TPvqD.s 			page 4


 174              		.loc 1 86 22 is_stmt 0 view .LVU43
 175 0076 02EB8202 		add	r2, r2, r2, lsl #2
 176 007a A0EB4202 		sub	r2, r0, r2, lsl #1
 177              		.loc 1 86 13 view .LVU44
 178 007e 4A60     		str	r2, [r1, #4]
 179              		.loc 1 87 4 is_stmt 1 view .LVU45
 180              		.loc 1 87 23 is_stmt 0 view .LVU46
 181 0080 144A     		ldr	r2, .L16+32
 182 0082 1268     		ldr	r2, [r2]
 183 0084 A3FB0203 		umull	r0, r3, r3, r2
 184 0088 DB08     		lsrs	r3, r3, #3
 185              		.loc 1 87 13 view .LVU47
 186 008a 8B60     		str	r3, [r1, #8]
 187              		.loc 1 88 4 is_stmt 1 view .LVU48
 188              		.loc 1 88 23 is_stmt 0 view .LVU49
 189 008c 03EB8303 		add	r3, r3, r3, lsl #2
 190 0090 A2EB4303 		sub	r3, r2, r3, lsl #1
 191              		.loc 1 88 13 view .LVU50
 192 0094 CB60     		str	r3, [r1, #12]
 193 0096 C4E7     		b	.L7
 194              	.L15:
 195              		.loc 1 78 5 is_stmt 1 view .LVU51
 196              		.loc 1 78 13 is_stmt 0 view .LVU52
 197 0098 1346     		mov	r3, r2
 198 009a 0022     		movs	r2, #0
 199 009c 1A60     		str	r2, [r3]
 200              		.loc 1 80 5 is_stmt 1 view .LVU53
 201              		.loc 1 80 8 is_stmt 0 view .LVU54
 202 009e 0E4A     		ldr	r2, .L16+36
 203 00a0 1368     		ldr	r3, [r2]
 204 00a2 0133     		adds	r3, r3, #1
 205              		.loc 1 80 7 view .LVU55
 206 00a4 1360     		str	r3, [r2]
 207 00a6 3C2B     		cmp	r3, #60
 208 00a8 DDD1     		bne	.L8
 209              		.loc 1 81 6 is_stmt 1 view .LVU56
 210              		.loc 1 81 13 is_stmt 0 view .LVU57
 211 00aa 1346     		mov	r3, r2
 212 00ac 0022     		movs	r2, #0
 213 00ae 1A60     		str	r2, [r3]
 214 00b0 D9E7     		b	.L8
 215              	.L17:
 216 00b2 00BF     		.align	2
 217              	.L16:
 218 00b4 00000000 		.word	htim1
 219 00b8 000C0140 		.word	1073810432
 220 00bc 00000000 		.word	.LANCHOR2
 221 00c0 00000000 		.word	.LANCHOR6
 222 00c4 00100140 		.word	1073811456
 223 00c8 00F0FFFF 		.word	-4096
 224 00cc 00000000 		.word	.LANCHOR5
 225 00d0 00000000 		.word	.LANCHOR0
 226 00d4 00000000 		.word	.LANCHOR3
 227 00d8 00000000 		.word	.LANCHOR4
 228 00dc CDCCCCCC 		.word	-858993459
 229              		.cfi_endproc
 230              	.LFE66:
ARM GAS  C:\Users\Ika\AppData\Local\Temp\cc4TPvqD.s 			page 5


 232              		.section	.text.resetStoperice,"ax",%progbits
 233              		.align	1
 234              		.global	resetStoperice
 235              		.syntax unified
 236              		.thumb
 237              		.thumb_func
 238              		.fpu softvfp
 240              	resetStoperice:
 241              	.LFB67:
 242              		.loc 1 106 22 is_stmt 1 view -0
 243              		.cfi_startproc
 244              		@ args = 0, pretend = 0, frame = 0
 245              		@ frame_needed = 0, uses_anonymous_args = 0
 246              		@ link register save eliminated.
 247              		.loc 1 107 2 view .LVU59
 248              		.loc 1 107 9 is_stmt 0 view .LVU60
 249 0000 0023     		movs	r3, #0
 250 0002 034A     		ldr	r2, .L19
 251 0004 1360     		str	r3, [r2]
 252              		.loc 1 108 2 is_stmt 1 view .LVU61
 253              		.loc 1 108 10 is_stmt 0 view .LVU62
 254 0006 034A     		ldr	r2, .L19+4
 255 0008 1360     		str	r3, [r2]
 256              		.loc 1 109 2 is_stmt 1 view .LVU63
 257              		.loc 1 109 9 is_stmt 0 view .LVU64
 258 000a 034A     		ldr	r2, .L19+8
 259 000c 1360     		str	r3, [r2]
 260              		.loc 1 110 1 view .LVU65
 261 000e 7047     		bx	lr
 262              	.L20:
 263              		.align	2
 264              	.L19:
 265 0010 00000000 		.word	.LANCHOR4
 266 0014 00000000 		.word	.LANCHOR3
 267 0018 00000000 		.word	.LANCHOR6
 268              		.cfi_endproc
 269              	.LFE67:
 271              		.global	cifre
 272              		.global	minuti
 273              		.global	sekunde
 274              		.global	tekuca
 275              		.global	counter
 276              		.global	casovnik_tim_handle
 277              		.global	seven_seg
 278              		.section	.bss.cifre,"aw",%nobits
 279              		.align	2
 280              		.set	.LANCHOR5,. + 0
 283              	cifre:
 284 0000 00000000 		.space	16
 284      00000000 
 284      00000000 
 284      00000000 
 285              		.section	.bss.counter,"aw",%nobits
 286              		.align	2
 287              		.set	.LANCHOR2,. + 0
 290              	counter:
 291 0000 00000000 		.space	4
ARM GAS  C:\Users\Ika\AppData\Local\Temp\cc4TPvqD.s 			page 6


 292              		.section	.bss.minuti,"aw",%nobits
 293              		.align	2
 294              		.set	.LANCHOR4,. + 0
 297              	minuti:
 298 0000 00000000 		.space	4
 299              		.section	.bss.sekunde,"aw",%nobits
 300              		.align	2
 301              		.set	.LANCHOR3,. + 0
 304              	sekunde:
 305 0000 00000000 		.space	4
 306              		.section	.bss.tekuca,"aw",%nobits
 307              		.align	2
 308              		.set	.LANCHOR6,. + 0
 311              	tekuca:
 312 0000 00000000 		.space	4
 313              		.section	.data.casovnik_tim_handle,"aw"
 314              		.align	2
 315              		.set	.LANCHOR1,. + 0
 318              	casovnik_tim_handle:
 319 0000 00000000 		.word	htim1
 320              		.section	.data.seven_seg,"aw"
 321              		.align	2
 322              		.set	.LANCHOR0,. + 0
 325              	seven_seg:
 326 0000 81CF9286 		.ascii	"\201\317\222\206\314\244\240\217\200\204"
 326      CCA4A08F 
 326      8084
 327              		.text
 328              	.Letext0:
 329              		.file 2 "../c:\\users\\ika\\desktop\\gnu mcu\\arm-none-eabi-gcc-9.3.1-1.1\\arm-none-eabi\\include\
 330              		.file 3 "../c:\\users\\ika\\desktop\\gnu mcu\\arm-none-eabi-gcc-9.3.1-1.1\\arm-none-eabi\\include\
 331              		.file 4 "../Drivers/CMSIS/Include/core_cm3.h"
 332              		.file 5 "../Drivers/CMSIS/Device/ST/STM32F1xx/Include/system_stm32f1xx.h"
 333              		.file 6 "../Drivers/CMSIS/Device/ST/STM32F1xx/Include/stm32f103x6.h"
 334              		.file 7 "../Drivers/STM32F1xx_HAL_Driver/Inc/stm32f1xx_hal_def.h"
 335              		.file 8 "../Drivers/STM32F1xx_HAL_Driver/Inc/stm32f1xx_hal_dma.h"
 336              		.file 9 "../Drivers/STM32F1xx_HAL_Driver/Inc/stm32f1xx_hal_tim.h"
 337              		.file 10 "../Drivers/STM32F1xx_HAL_Driver/Inc/stm32f1xx_hal.h"
 338              		.file 11 "../Core/Inc/tim.h"
 339              		.file 12 "../Drivers/STM32F1xx_HAL_Driver/Inc/stm32f1xx_hal_gpio.h"
ARM GAS  C:\Users\Ika\AppData\Local\Temp\cc4TPvqD.s 			page 7

