ARM GAS  C:\Users\Ika\AppData\Local\Temp\cc25maU8.s 			page 1


   1              		.cpu cortex-m3
   2              		.eabi_attribute 20, 1
   3              		.eabi_attribute 21, 1
   4              		.eabi_attribute 23, 3
   5              		.eabi_attribute 24, 1
   6              		.eabi_attribute 25, 1
   7              		.eabi_attribute 26, 1
   8              		.eabi_attribute 30, 1
   9              		.eabi_attribute 34, 1
  10              		.eabi_attribute 18, 4
  11              		.file	"tim.c"
  12              		.text
  13              	.Ltext0:
  14              		.cfi_sections	.debug_frame
  15              		.section	.text.HAL_TIM_Base_MspInit,"ax",%progbits
  16              		.align	1
  17              		.global	HAL_TIM_Base_MspInit
  18              		.arch armv7-m
  19              		.syntax unified
  20              		.thumb
  21              		.thumb_func
  22              		.fpu softvfp
  24              	HAL_TIM_Base_MspInit:
  25              	.LVL0:
  26              	.LFB66:
  27              		.file 1 "../Core/Src/tim.c"
   1:../Core/Src/tim.c **** 
  28              		.loc 1 90 1 view -0
  29              		.cfi_startproc
  30              		@ args = 0, pretend = 0, frame = 8
  31              		@ frame_needed = 0, uses_anonymous_args = 0
  32              		.loc 1 92 3 view .LVU1
  33              		.loc 1 92 20 is_stmt 0 view .LVU2
  34 0000 0268     		ldr	r2, [r0]
  35              		.loc 1 92 5 view .LVU3
  36 0002 0E4B     		ldr	r3, .L8
  37 0004 9A42     		cmp	r2, r3
  38 0006 00D0     		beq	.L7
  39 0008 7047     		bx	lr
  40              	.L7:
  41              		.loc 1 90 1 view .LVU4
  42 000a 00B5     		push	{lr}
  43              	.LCFI0:
  44              		.cfi_def_cfa_offset 4
  45              		.cfi_offset 14, -4
  46 000c 83B0     		sub	sp, sp, #12
  47              	.LCFI1:
  48              		.cfi_def_cfa_offset 16
  49              		.loc 1 98 5 is_stmt 1 view .LVU5
  50              	.LBB2:
  51              		.loc 1 98 5 view .LVU6
  52              		.loc 1 98 5 view .LVU7
  53 000e 03F56443 		add	r3, r3, #58368
  54 0012 9A69     		ldr	r2, [r3, #24]
  55 0014 42F40062 		orr	r2, r2, #2048
  56 0018 9A61     		str	r2, [r3, #24]
  57              		.loc 1 98 5 view .LVU8
ARM GAS  C:\Users\Ika\AppData\Local\Temp\cc25maU8.s 			page 2


  58 001a 9B69     		ldr	r3, [r3, #24]
  59 001c 03F40063 		and	r3, r3, #2048
  60 0020 0193     		str	r3, [sp, #4]
  61              		.loc 1 98 5 view .LVU9
  62 0022 019B     		ldr	r3, [sp, #4]
  63              	.LBE2:
  64              		.loc 1 98 5 view .LVU10
  65              		.loc 1 101 5 view .LVU11
  66 0024 0022     		movs	r2, #0
  67 0026 1146     		mov	r1, r2
  68 0028 1920     		movs	r0, #25
  69              	.LVL1:
  70              		.loc 1 101 5 is_stmt 0 view .LVU12
  71 002a FFF7FEFF 		bl	HAL_NVIC_SetPriority
  72              	.LVL2:
  73              		.loc 1 102 5 is_stmt 1 view .LVU13
  74 002e 1920     		movs	r0, #25
  75 0030 FFF7FEFF 		bl	HAL_NVIC_EnableIRQ
  76              	.LVL3:
  77              		.loc 1 107 1 is_stmt 0 view .LVU14
  78 0034 03B0     		add	sp, sp, #12
  79              	.LCFI2:
  80              		.cfi_def_cfa_offset 4
  81              		@ sp needed
  82 0036 5DF804FB 		ldr	pc, [sp], #4
  83              	.L9:
  84 003a 00BF     		.align	2
  85              	.L8:
  86 003c 002C0140 		.word	1073818624
  87              		.cfi_endproc
  88              	.LFE66:
  90              		.section	.text.HAL_TIM_MspPostInit,"ax",%progbits
  91              		.align	1
  92              		.global	HAL_TIM_MspPostInit
  93              		.syntax unified
  94              		.thumb
  95              		.thumb_func
  96              		.fpu softvfp
  98              	HAL_TIM_MspPostInit:
  99              	.LVL4:
 100              	.LFB67:
 101              		.loc 1 109 1 is_stmt 1 view -0
 102              		.cfi_startproc
 103              		@ args = 0, pretend = 0, frame = 24
 104              		@ frame_needed = 0, uses_anonymous_args = 0
 105              		.loc 1 109 1 is_stmt 0 view .LVU16
 106 0000 00B5     		push	{lr}
 107              	.LCFI3:
 108              		.cfi_def_cfa_offset 4
 109              		.cfi_offset 14, -4
 110 0002 87B0     		sub	sp, sp, #28
 111              	.LCFI4:
 112              		.cfi_def_cfa_offset 32
 113              		.loc 1 111 3 is_stmt 1 view .LVU17
 114              		.loc 1 111 20 is_stmt 0 view .LVU18
 115 0004 0023     		movs	r3, #0
 116 0006 0293     		str	r3, [sp, #8]
ARM GAS  C:\Users\Ika\AppData\Local\Temp\cc25maU8.s 			page 3


 117 0008 0393     		str	r3, [sp, #12]
 118 000a 0493     		str	r3, [sp, #16]
 119 000c 0593     		str	r3, [sp, #20]
 120              		.loc 1 112 3 is_stmt 1 view .LVU19
 121              		.loc 1 112 15 is_stmt 0 view .LVU20
 122 000e 0268     		ldr	r2, [r0]
 123              		.loc 1 112 5 view .LVU21
 124 0010 0D4B     		ldr	r3, .L14
 125 0012 9A42     		cmp	r2, r3
 126 0014 02D0     		beq	.L13
 127              	.LVL5:
 128              	.L10:
 129              		.loc 1 132 1 view .LVU22
 130 0016 07B0     		add	sp, sp, #28
 131              	.LCFI5:
 132              		.cfi_remember_state
 133              		.cfi_def_cfa_offset 4
 134              		@ sp needed
 135 0018 5DF804FB 		ldr	pc, [sp], #4
 136              	.LVL6:
 137              	.L13:
 138              	.LCFI6:
 139              		.cfi_restore_state
 140              		.loc 1 118 5 is_stmt 1 view .LVU23
 141              	.LBB3:
 142              		.loc 1 118 5 view .LVU24
 143              		.loc 1 118 5 view .LVU25
 144 001c 03F56443 		add	r3, r3, #58368
 145 0020 9A69     		ldr	r2, [r3, #24]
 146 0022 42F00402 		orr	r2, r2, #4
 147 0026 9A61     		str	r2, [r3, #24]
 148              		.loc 1 118 5 view .LVU26
 149 0028 9B69     		ldr	r3, [r3, #24]
 150 002a 03F00403 		and	r3, r3, #4
 151 002e 0193     		str	r3, [sp, #4]
 152              		.loc 1 118 5 view .LVU27
 153 0030 019B     		ldr	r3, [sp, #4]
 154              	.LBE3:
 155              		.loc 1 118 5 view .LVU28
 156              		.loc 1 122 5 view .LVU29
 157              		.loc 1 122 25 is_stmt 0 view .LVU30
 158 0032 4FF48073 		mov	r3, #256
 159 0036 0293     		str	r3, [sp, #8]
 160              		.loc 1 123 5 is_stmt 1 view .LVU31
 161              		.loc 1 123 26 is_stmt 0 view .LVU32
 162 0038 0223     		movs	r3, #2
 163 003a 0393     		str	r3, [sp, #12]
 164              		.loc 1 124 5 is_stmt 1 view .LVU33
 165              		.loc 1 124 27 is_stmt 0 view .LVU34
 166 003c 0593     		str	r3, [sp, #20]
 167              		.loc 1 125 5 is_stmt 1 view .LVU35
 168 003e 02A9     		add	r1, sp, #8
 169 0040 0248     		ldr	r0, .L14+4
 170              	.LVL7:
 171              		.loc 1 125 5 is_stmt 0 view .LVU36
 172 0042 FFF7FEFF 		bl	HAL_GPIO_Init
 173              	.LVL8:
ARM GAS  C:\Users\Ika\AppData\Local\Temp\cc25maU8.s 			page 4


 174              		.loc 1 132 1 view .LVU37
 175 0046 E6E7     		b	.L10
 176              	.L15:
 177              		.align	2
 178              	.L14:
 179 0048 002C0140 		.word	1073818624
 180 004c 00080140 		.word	1073809408
 181              		.cfi_endproc
 182              	.LFE67:
 184              		.section	.text.MX_TIM1_Init,"ax",%progbits
 185              		.align	1
 186              		.global	MX_TIM1_Init
 187              		.syntax unified
 188              		.thumb
 189              		.thumb_func
 190              		.fpu softvfp
 192              	MX_TIM1_Init:
 193              	.LFB65:
 194              		.loc 1 31 1 is_stmt 1 view -0
 195              		.cfi_startproc
 196              		@ args = 0, pretend = 0, frame = 88
 197              		@ frame_needed = 0, uses_anonymous_args = 0
 198 0000 10B5     		push	{r4, lr}
 199              	.LCFI7:
 200              		.cfi_def_cfa_offset 8
 201              		.cfi_offset 4, -8
 202              		.cfi_offset 14, -4
 203 0002 96B0     		sub	sp, sp, #88
 204              	.LCFI8:
 205              		.cfi_def_cfa_offset 96
 206              		.loc 1 32 3 view .LVU39
 207              		.loc 1 32 26 is_stmt 0 view .LVU40
 208 0004 0024     		movs	r4, #0
 209 0006 1294     		str	r4, [sp, #72]
 210 0008 1394     		str	r4, [sp, #76]
 211 000a 1494     		str	r4, [sp, #80]
 212 000c 1594     		str	r4, [sp, #84]
 213              		.loc 1 33 3 is_stmt 1 view .LVU41
 214              		.loc 1 33 27 is_stmt 0 view .LVU42
 215 000e 1094     		str	r4, [sp, #64]
 216 0010 1194     		str	r4, [sp, #68]
 217              		.loc 1 34 3 is_stmt 1 view .LVU43
 218              		.loc 1 34 22 is_stmt 0 view .LVU44
 219 0012 0994     		str	r4, [sp, #36]
 220 0014 0A94     		str	r4, [sp, #40]
 221 0016 0B94     		str	r4, [sp, #44]
 222 0018 0C94     		str	r4, [sp, #48]
 223 001a 0D94     		str	r4, [sp, #52]
 224 001c 0E94     		str	r4, [sp, #56]
 225 001e 0F94     		str	r4, [sp, #60]
 226              		.loc 1 35 3 is_stmt 1 view .LVU45
 227              		.loc 1 35 34 is_stmt 0 view .LVU46
 228 0020 2022     		movs	r2, #32
 229 0022 2146     		mov	r1, r4
 230 0024 01A8     		add	r0, sp, #4
 231 0026 FFF7FEFF 		bl	memset
 232              	.LVL9:
ARM GAS  C:\Users\Ika\AppData\Local\Temp\cc25maU8.s 			page 5


 233              		.loc 1 37 3 is_stmt 1 view .LVU47
 234              		.loc 1 37 18 is_stmt 0 view .LVU48
 235 002a 2D48     		ldr	r0, .L30
 236 002c 2D4B     		ldr	r3, .L30+4
 237 002e 0360     		str	r3, [r0]
 238              		.loc 1 38 3 is_stmt 1 view .LVU49
 239              		.loc 1 38 24 is_stmt 0 view .LVU50
 240 0030 41F63F73 		movw	r3, #7999
 241 0034 4360     		str	r3, [r0, #4]
 242              		.loc 1 39 3 is_stmt 1 view .LVU51
 243              		.loc 1 39 26 is_stmt 0 view .LVU52
 244 0036 8460     		str	r4, [r0, #8]
 245              		.loc 1 40 3 is_stmt 1 view .LVU53
 246              		.loc 1 40 21 is_stmt 0 view .LVU54
 247 0038 0923     		movs	r3, #9
 248 003a C360     		str	r3, [r0, #12]
 249              		.loc 1 41 3 is_stmt 1 view .LVU55
 250              		.loc 1 41 28 is_stmt 0 view .LVU56
 251 003c 0461     		str	r4, [r0, #16]
 252              		.loc 1 42 3 is_stmt 1 view .LVU57
 253              		.loc 1 42 32 is_stmt 0 view .LVU58
 254 003e 4461     		str	r4, [r0, #20]
 255              		.loc 1 43 3 is_stmt 1 view .LVU59
 256              		.loc 1 43 32 is_stmt 0 view .LVU60
 257 0040 8461     		str	r4, [r0, #24]
 258              		.loc 1 44 3 is_stmt 1 view .LVU61
 259              		.loc 1 44 7 is_stmt 0 view .LVU62
 260 0042 FFF7FEFF 		bl	HAL_TIM_Base_Init
 261              	.LVL10:
 262              		.loc 1 44 6 view .LVU63
 263 0046 0028     		cmp	r0, #0
 264 0048 38D1     		bne	.L24
 265              	.L17:
 266              		.loc 1 48 3 is_stmt 1 view .LVU64
 267              		.loc 1 48 34 is_stmt 0 view .LVU65
 268 004a 4FF48053 		mov	r3, #4096
 269 004e 1293     		str	r3, [sp, #72]
 270              		.loc 1 49 3 is_stmt 1 view .LVU66
 271              		.loc 1 49 7 is_stmt 0 view .LVU67
 272 0050 12A9     		add	r1, sp, #72
 273 0052 2348     		ldr	r0, .L30
 274 0054 FFF7FEFF 		bl	HAL_TIM_ConfigClockSource
 275              	.LVL11:
 276              		.loc 1 49 6 view .LVU68
 277 0058 0028     		cmp	r0, #0
 278 005a 32D1     		bne	.L25
 279              	.L18:
 280              		.loc 1 53 3 is_stmt 1 view .LVU69
 281              		.loc 1 53 7 is_stmt 0 view .LVU70
 282 005c 2048     		ldr	r0, .L30
 283 005e FFF7FEFF 		bl	HAL_TIM_PWM_Init
 284              	.LVL12:
 285              		.loc 1 53 6 view .LVU71
 286 0062 0028     		cmp	r0, #0
 287 0064 30D1     		bne	.L26
 288              	.L19:
 289              		.loc 1 57 3 is_stmt 1 view .LVU72
ARM GAS  C:\Users\Ika\AppData\Local\Temp\cc25maU8.s 			page 6


 290              		.loc 1 57 37 is_stmt 0 view .LVU73
 291 0066 0023     		movs	r3, #0
 292 0068 1093     		str	r3, [sp, #64]
 293              		.loc 1 58 3 is_stmt 1 view .LVU74
 294              		.loc 1 58 33 is_stmt 0 view .LVU75
 295 006a 1193     		str	r3, [sp, #68]
 296              		.loc 1 59 3 is_stmt 1 view .LVU76
 297              		.loc 1 59 7 is_stmt 0 view .LVU77
 298 006c 10A9     		add	r1, sp, #64
 299 006e 1C48     		ldr	r0, .L30
 300 0070 FFF7FEFF 		bl	HAL_TIMEx_MasterConfigSynchronization
 301              	.LVL13:
 302              		.loc 1 59 6 view .LVU78
 303 0074 58BB     		cbnz	r0, .L27
 304              	.L20:
 305              		.loc 1 63 3 is_stmt 1 view .LVU79
 306              		.loc 1 63 20 is_stmt 0 view .LVU80
 307 0076 6023     		movs	r3, #96
 308 0078 0993     		str	r3, [sp, #36]
 309              		.loc 1 64 3 is_stmt 1 view .LVU81
 310              		.loc 1 64 19 is_stmt 0 view .LVU82
 311 007a 0022     		movs	r2, #0
 312 007c 0A92     		str	r2, [sp, #40]
 313              		.loc 1 65 3 is_stmt 1 view .LVU83
 314              		.loc 1 65 24 is_stmt 0 view .LVU84
 315 007e 0223     		movs	r3, #2
 316 0080 0B93     		str	r3, [sp, #44]
 317              		.loc 1 66 3 is_stmt 1 view .LVU85
 318              		.loc 1 66 25 is_stmt 0 view .LVU86
 319 0082 0C92     		str	r2, [sp, #48]
 320              		.loc 1 67 3 is_stmt 1 view .LVU87
 321              		.loc 1 67 24 is_stmt 0 view .LVU88
 322 0084 0D92     		str	r2, [sp, #52]
 323              		.loc 1 68 3 is_stmt 1 view .LVU89
 324              		.loc 1 68 25 is_stmt 0 view .LVU90
 325 0086 0E92     		str	r2, [sp, #56]
 326              		.loc 1 69 3 is_stmt 1 view .LVU91
 327              		.loc 1 69 26 is_stmt 0 view .LVU92
 328 0088 0F92     		str	r2, [sp, #60]
 329              		.loc 1 70 3 is_stmt 1 view .LVU93
 330              		.loc 1 70 7 is_stmt 0 view .LVU94
 331 008a 09A9     		add	r1, sp, #36
 332 008c 1448     		ldr	r0, .L30
 333 008e FFF7FEFF 		bl	HAL_TIM_PWM_ConfigChannel
 334              	.LVL14:
 335              		.loc 1 70 6 view .LVU95
 336 0092 F8B9     		cbnz	r0, .L28
 337              	.L21:
 338              		.loc 1 74 3 is_stmt 1 view .LVU96
 339              		.loc 1 74 40 is_stmt 0 view .LVU97
 340 0094 0023     		movs	r3, #0
 341 0096 0193     		str	r3, [sp, #4]
 342              		.loc 1 75 3 is_stmt 1 view .LVU98
 343              		.loc 1 75 41 is_stmt 0 view .LVU99
 344 0098 0293     		str	r3, [sp, #8]
 345              		.loc 1 76 3 is_stmt 1 view .LVU100
 346              		.loc 1 76 34 is_stmt 0 view .LVU101
ARM GAS  C:\Users\Ika\AppData\Local\Temp\cc25maU8.s 			page 7


 347 009a 0393     		str	r3, [sp, #12]
 348              		.loc 1 77 3 is_stmt 1 view .LVU102
 349              		.loc 1 77 33 is_stmt 0 view .LVU103
 350 009c 0493     		str	r3, [sp, #16]
 351              		.loc 1 78 3 is_stmt 1 view .LVU104
 352              		.loc 1 78 35 is_stmt 0 view .LVU105
 353 009e 0593     		str	r3, [sp, #20]
 354              		.loc 1 79 3 is_stmt 1 view .LVU106
 355              		.loc 1 79 38 is_stmt 0 view .LVU107
 356 00a0 4FF40052 		mov	r2, #8192
 357 00a4 0692     		str	r2, [sp, #24]
 358              		.loc 1 80 3 is_stmt 1 view .LVU108
 359              		.loc 1 80 40 is_stmt 0 view .LVU109
 360 00a6 0893     		str	r3, [sp, #32]
 361              		.loc 1 81 3 is_stmt 1 view .LVU110
 362              		.loc 1 81 7 is_stmt 0 view .LVU111
 363 00a8 01A9     		add	r1, sp, #4
 364 00aa 0D48     		ldr	r0, .L30
 365 00ac FFF7FEFF 		bl	HAL_TIMEx_ConfigBreakDeadTime
 366              	.LVL15:
 367              		.loc 1 81 6 view .LVU112
 368 00b0 98B9     		cbnz	r0, .L29
 369              	.L22:
 370              		.loc 1 85 3 is_stmt 1 view .LVU113
 371 00b2 0B48     		ldr	r0, .L30
 372 00b4 FFF7FEFF 		bl	HAL_TIM_MspPostInit
 373              	.LVL16:
 374              		.loc 1 87 1 is_stmt 0 view .LVU114
 375 00b8 16B0     		add	sp, sp, #88
 376              	.LCFI9:
 377              		.cfi_remember_state
 378              		.cfi_def_cfa_offset 8
 379              		@ sp needed
 380 00ba 10BD     		pop	{r4, pc}
 381              	.L24:
 382              	.LCFI10:
 383              		.cfi_restore_state
 384              		.loc 1 46 5 is_stmt 1 view .LVU115
 385 00bc FFF7FEFF 		bl	Error_Handler
 386              	.LVL17:
 387 00c0 C3E7     		b	.L17
 388              	.L25:
 389              		.loc 1 51 5 view .LVU116
 390 00c2 FFF7FEFF 		bl	Error_Handler
 391              	.LVL18:
 392 00c6 C9E7     		b	.L18
 393              	.L26:
 394              		.loc 1 55 5 view .LVU117
 395 00c8 FFF7FEFF 		bl	Error_Handler
 396              	.LVL19:
 397 00cc CBE7     		b	.L19
 398              	.L27:
 399              		.loc 1 61 5 view .LVU118
 400 00ce FFF7FEFF 		bl	Error_Handler
 401              	.LVL20:
 402 00d2 D0E7     		b	.L20
 403              	.L28:
ARM GAS  C:\Users\Ika\AppData\Local\Temp\cc25maU8.s 			page 8


 404              		.loc 1 72 5 view .LVU119
 405 00d4 FFF7FEFF 		bl	Error_Handler
 406              	.LVL21:
 407 00d8 DCE7     		b	.L21
 408              	.L29:
 409              		.loc 1 83 5 view .LVU120
 410 00da FFF7FEFF 		bl	Error_Handler
 411              	.LVL22:
 412 00de E8E7     		b	.L22
 413              	.L31:
 414              		.align	2
 415              	.L30:
 416 00e0 00000000 		.word	htim1
 417 00e4 002C0140 		.word	1073818624
 418              		.cfi_endproc
 419              	.LFE65:
 421              		.section	.text.HAL_TIM_Base_MspDeInit,"ax",%progbits
 422              		.align	1
 423              		.global	HAL_TIM_Base_MspDeInit
 424              		.syntax unified
 425              		.thumb
 426              		.thumb_func
 427              		.fpu softvfp
 429              	HAL_TIM_Base_MspDeInit:
 430              	.LVL23:
 431              	.LFB68:
 432              		.loc 1 135 1 view -0
 433              		.cfi_startproc
 434              		@ args = 0, pretend = 0, frame = 0
 435              		@ frame_needed = 0, uses_anonymous_args = 0
 436              		.loc 1 135 1 is_stmt 0 view .LVU122
 437 0000 08B5     		push	{r3, lr}
 438              	.LCFI11:
 439              		.cfi_def_cfa_offset 8
 440              		.cfi_offset 3, -8
 441              		.cfi_offset 14, -4
 442              		.loc 1 137 3 is_stmt 1 view .LVU123
 443              		.loc 1 137 20 is_stmt 0 view .LVU124
 444 0002 0268     		ldr	r2, [r0]
 445              		.loc 1 137 5 view .LVU125
 446 0004 064B     		ldr	r3, .L36
 447 0006 9A42     		cmp	r2, r3
 448 0008 00D0     		beq	.L35
 449              	.LVL24:
 450              	.L32:
 451              		.loc 1 151 1 view .LVU126
 452 000a 08BD     		pop	{r3, pc}
 453              	.LVL25:
 454              	.L35:
 455              		.loc 1 143 5 is_stmt 1 view .LVU127
 456 000c 054A     		ldr	r2, .L36+4
 457 000e 9369     		ldr	r3, [r2, #24]
 458 0010 23F40063 		bic	r3, r3, #2048
 459 0014 9361     		str	r3, [r2, #24]
 460              		.loc 1 146 5 view .LVU128
 461 0016 1920     		movs	r0, #25
 462              	.LVL26:
ARM GAS  C:\Users\Ika\AppData\Local\Temp\cc25maU8.s 			page 9


 463              		.loc 1 146 5 is_stmt 0 view .LVU129
 464 0018 FFF7FEFF 		bl	HAL_NVIC_DisableIRQ
 465              	.LVL27:
 466              		.loc 1 151 1 view .LVU130
 467 001c F5E7     		b	.L32
 468              	.L37:
 469 001e 00BF     		.align	2
 470              	.L36:
 471 0020 002C0140 		.word	1073818624
 472 0024 00100240 		.word	1073876992
 473              		.cfi_endproc
 474              	.LFE68:
 476              		.comm	htim1,72,4
 477              		.text
 478              	.Letext0:
 479              		.file 2 "../c:\\users\\ika\\desktop\\gnu mcu\\arm-none-eabi-gcc-9.3.1-1.1\\arm-none-eabi\\include\
 480              		.file 3 "../c:\\users\\ika\\desktop\\gnu mcu\\arm-none-eabi-gcc-9.3.1-1.1\\arm-none-eabi\\include\
 481              		.file 4 "../Drivers/CMSIS/Include/core_cm3.h"
 482              		.file 5 "../Drivers/CMSIS/Device/ST/STM32F1xx/Include/system_stm32f1xx.h"
 483              		.file 6 "../Drivers/CMSIS/Device/ST/STM32F1xx/Include/stm32f103x6.h"
 484              		.file 7 "../Drivers/STM32F1xx_HAL_Driver/Inc/stm32f1xx_hal_def.h"
 485              		.file 8 "../Drivers/STM32F1xx_HAL_Driver/Inc/stm32f1xx_hal_gpio.h"
 486              		.file 9 "../Drivers/STM32F1xx_HAL_Driver/Inc/stm32f1xx_hal_dma.h"
 487              		.file 10 "../Drivers/STM32F1xx_HAL_Driver/Inc/stm32f1xx_hal_tim.h"
 488              		.file 11 "../Drivers/STM32F1xx_HAL_Driver/Inc/stm32f1xx_hal.h"
 489              		.file 12 "../Core/Inc/tim.h"
 490              		.file 13 "../Drivers/STM32F1xx_HAL_Driver/Inc/stm32f1xx_hal_cortex.h"
 491              		.file 14 "../Drivers/STM32F1xx_HAL_Driver/Inc/stm32f1xx_hal_tim_ex.h"
 492              		.file 15 "../Core/Inc/main.h"
 493              		.file 16 "../<built-in>"
ARM GAS  C:\Users\Ika\AppData\Local\Temp\cc25maU8.s 			page 10

